 Shell

 Timestamp is 64e9e85b (Sat Aug 26 19:56:11 2023)

 Preferred load address is 0000000000010000

 Start         Length     Name                   Class
 0001:00000000 00000004H .text                   CODE
 0001:00000004 000ae59eH .text$mn                CODE
 0002:00000000 0001efa4H .rdata                  DATA
 0002:0001efa4 0000007cH .rdata$voltmd           DATA
 0002:0001f020 0000014cH .rdata$zzzdbg           DATA
 0003:00000000 00060b20H .data                   DATA
 0003:00060b20 00002e08H .bss                    DATA
 0004:00000000 0000004dH .edata                  DATA
 0005:00000000 00003f60H .pdata                  DATA
 0006:00000000 00000500H .xdata                  DATA

  Address         Publics by Value              Rva+Base               Lib:Object

 0000:00000000       __guard_iat_table          0000000000000000     <absolute>
 0000:00000000       __guard_longjmp_table      0000000000000000     <absolute>
 0000:00000000       __guard_fids_count         0000000000000000     <absolute>
 0000:00000000       __arm64x_redirection_metadata_count 0000000000000000     <absolute>
 0000:00000000       __hybrid_auxiliary_iat_copy 0000000000000000     <absolute>
 0000:00000000       __enclave_config           0000000000000000     <absolute>
 0000:00000000       __hybrid_code_map          0000000000000000     <absolute>
 0000:00000000       __arm64x_extra_rfe_table_size 0000000000000000     <absolute>
 0000:00000000       __guard_fids_table         0000000000000000     <absolute>
 0000:00000000       __guard_eh_cont_table      0000000000000000     <absolute>
 0000:00000000       __AbsoluteZero             0000000000000000     <absolute>
 0000:00000000       __guard_iat_count          0000000000000000     <absolute>
 0000:00000000       __arm64x_native_entrypoint 0000000000000000     <absolute>
 0000:00000000       __arm64x_extra_rfe_table   0000000000000000     <absolute>
 0000:00000000       __arm64x_redirection_metadata 0000000000000000     <absolute>
 0000:00000000       __guard_longjmp_count      0000000000000000     <absolute>
 0000:00000000       __guard_eh_cont_count      0000000000000000     <absolute>
 0000:00000000       __guard_check_icall_a64n_fptr 0000000000000000     <absolute>
 0000:00000000       __hybrid_code_map_count    0000000000000000     <absolute>
 0000:00000000       __x64_code_ranges_to_entry_points_count 0000000000000000     <absolute>
 0000:00000000       __dynamic_value_reloc_table 0000000000000000     <absolute>
 0000:00000000       __x64_code_ranges_to_entry_points 0000000000000000     <absolute>
 0000:00000000       __hybrid_auxiliary_iat     0000000000000000     <absolute>
 0000:00000100       __guard_flags              0000000000000100     <absolute>
 0000:00000000       __ImageBase                0000000000010000     <linker-defined>
 0001:00000000       CpuPause                   0000000000011000     BaseLib:CpuPause.obj
 0001:00000004       _ModuleEntryPoint          0000000000011004 f   UefiApplicationEntryPoint:ApplicationEntryPoint.obj
 0001:00000074       ProcessLibraryConstructorList 0000000000011074 f   Shell:AutoGen.obj
 0001:000008d8       ProcessLibraryDestructorList 00000000000118d8 f   Shell:AutoGen.obj
 0001:00000e20       ProcessModuleEntryPointList 0000000000011e20 f   Shell:AutoGen.obj
 0001:00000e44       TrimSpaces                 0000000000011e44 f   Shell:Shell.obj
 0001:00000f90       FindNextInstance           0000000000011f90 f   Shell:Shell.obj
 0001:0000101c       IsValidEnvironmentVariableName 000000000001201c f   Shell:Shell.obj
 0001:000011b4       ContainsSplit              00000000000121b4 f   Shell:Shell.obj
 0001:00001350       InternalEfiShellStartCtrlSMonitor 0000000000012350 f   Shell:Shell.obj
 0001:000014c0       UefiMain                   00000000000124c0 f   Shell:Shell.obj
 0001:000025a0       SetBuiltInAlias            00000000000135a0 f   Shell:Shell.obj
 0001:00002694       IsCommand                  0000000000013694 f   Shell:Shell.obj
 0001:000026c4       IsScriptOnlyCommand        00000000000136c4 f   Shell:Shell.obj
 0001:00002768       GetDevicePathsForImageAndFile 0000000000013768 f   Shell:Shell.obj
 0001:000028e8       ProcessCommandLine         00000000000138e8 f   Shell:Shell.obj
 0001:0000307c       LocateStartupScript        000000000001407c f   Shell:Shell.obj
 0001:000031c4       DoStartupScript            00000000000141c4 f   Shell:Shell.obj
 0001:000035b8       DoShellPrompt              00000000000145b8 f   Shell:Shell.obj
 0001:000037a4       AddBufferToFreeList        00000000000147a4 f   Shell:Shell.obj
 0001:00003800       SaveBufferList             0000000000014800 f   Shell:Shell.obj
 0001:00003834       RestoreBufferList          0000000000014834 f   Shell:Shell.obj
 0001:00003868       AddLineToCommandHistory    0000000000014868 f   Shell:Shell.obj
 0001:000039c0       ShellConvertAlias          00000000000149c0 f   Shell:Shell.obj
 0001:00003a38       StripUnreplacedEnvironmentVariables 0000000000014a38 f   Shell:Shell.obj
 0001:00003bbc       ShellConvertVariables      0000000000014bbc f   Shell:Shell.obj
 0001:000041ac       RunSplitCommand            00000000000151ac f   Shell:Shell.obj
 0001:000046a8       ShellSubstituteVariables   00000000000156a8 f   Shell:Shell.obj
 0001:00004718       ShellSubstituteAliases     0000000000015718 f   Shell:Shell.obj
 0001:000049cc       GetOperationType           00000000000159cc f   Shell:Shell.obj
 0001:00004b40       IsValidSplit               0000000000015b40 f   Shell:Shell.obj
 0001:00004cf0       VerifySplit                0000000000015cf0 f   Shell:Shell.obj
 0001:00004d90       ProcessNewSplitCommandLine 0000000000015d90 f   Shell:Shell.obj
 0001:00004e68       ChangeMappedDrive          0000000000015e68 f   Shell:Shell.obj
 0001:00004f2c       DoHelpUpdate               0000000000015f2c f   Shell:Shell.obj
 0001:00005138       SetLastError               0000000000016138 f   Shell:Shell.obj
 0001:000051d0       ProcessCommandLineToFinal  00000000000161d0 f   Shell:Shell.obj
 0001:000052a4       RunInternalCommand         00000000000162a4 f   Shell:Shell.obj
 0001:000054d0       RunCommandOrFile           00000000000164d0 f   Shell:Shell.obj
 0001:000057f4       SetupAndRunCommandOrFile   00000000000167f4 f   Shell:Shell.obj
 0001:00005960       RunShellCommand            0000000000016960 f   Shell:Shell.obj
 0001:00005d30       RunCommand                 0000000000016d30 f   Shell:Shell.obj
 0001:00005d4c       RunScriptFileHandle        0000000000016d4c f   Shell:Shell.obj
 0001:0000717c       RunScriptFile              000000000001817c f   Shell:Shell.obj
 0001:00007264       FindFirstCharacter         0000000000018264 f   Shell:Shell.obj
 0001:0000734c       EfiShellClose              000000000001834c f   Shell:ShellProtocol.obj
 0001:00007378       InternalShellProtocolIsBlockIoPresent 0000000000018378 f   Shell:ShellProtocol.obj
 0001:000073d4       InternalShellProtocolIsSimpleFileSystemPresent 00000000000183d4 f   Shell:ShellProtocol.obj
 0001:00007430       EfiShellSetMap             0000000000018430 f   Shell:ShellProtocol.obj
 0001:00007650       EfiShellGetDevicePathFromMap 0000000000018650 f   Shell:ShellProtocol.obj
 0001:000076e8       EfiShellGetMapFromDevicePath 00000000000186e8 f   Shell:ShellProtocol.obj
 0001:00007878       EfiShellGetFilePathFromDevicePath 0000000000018878 f   Shell:ShellProtocol.obj
 0001:00007bd0       EfiShellGetDevicePathFromFilePath 0000000000018bd0 f   Shell:ShellProtocol.obj
 0001:00007f34       EfiShellGetDeviceName      0000000000018f34 f   Shell:ShellProtocol.obj
 0001:00008484       EfiShellOpenRootByHandle   0000000000019484 f   Shell:ShellProtocol.obj
 0001:00008580       EfiShellOpenRoot           0000000000019580 f   Shell:ShellProtocol.obj
 0001:000085f0       EfiShellBatchIsActive      00000000000195f0 f   Shell:ShellProtocol.obj
 0001:0000860c       InternalOpenFileDevicePath 000000000001960c f   Shell:ShellProtocol.obj
 0001:00008950       EfiShellCreateFile         0000000000019950 f   Shell:ShellProtocol.obj
 0001:00008a34       EfiShellRegisterGuidName   0000000000019a34 f   Shell:ShellProtocol.obj
 0001:00008a5c       EfiShellOpenFileByName     0000000000019a5c f   Shell:ShellProtocol.obj
 0001:00008cc0       EfiShellDeleteFileByName   0000000000019cc0 f   Shell:ShellProtocol.obj
 0001:00008d18       EfiShellDisablePageBreak   0000000000019d18 f   Shell:ShellProtocol.obj
 0001:00008d20       EfiShellEnablePageBreak    0000000000019d20 f   Shell:ShellProtocol.obj
 0001:00008d28       InternalShellExecuteDevicePath 0000000000019d28 f   Shell:ShellProtocol.obj
 0001:00009340       InternalShellExecute       000000000001a340 f   Shell:ShellProtocol.obj
 0001:000095ac       EfiShellExecute            000000000001a5ac f   Shell:ShellProtocol.obj
 0001:00009778       InternalFreeShellFileInfoNode 000000000001a778 f   Shell:ShellProtocol.obj
 0001:00009800       EfiShellFreeFileList       000000000001a800 f   Shell:ShellProtocol.obj
 0001:000098a4       EfiShellRemoveDupInFileList 000000000001a8a4 f   Shell:ShellProtocol.obj
 0001:00009a18       InternalDuplicateShellFileInfo 000000000001aa18 f   Shell:ShellProtocol.obj
 0001:00009c00       CreateAndPopulateShellFileInfo 000000000001ac00 f   Shell:ShellProtocol.obj
 0001:00009f00       EfiShellFindFilesInDir     000000000001af00 f   Shell:ShellProtocol.obj
 0001:0000a200       EfiShellGetGuidFromName    000000000001b200 f   Shell:ShellProtocol.obj
 0001:0000a264       EfiShellGetGuidName        000000000001b264 f   Shell:ShellProtocol.obj
 0001:0000a2fc       ShellSearchHandle          000000000001b2fc f   Shell:ShellProtocol.obj
 0001:0000a930       EfiShellFindFiles          000000000001b930 f   Shell:ShellProtocol.obj
 0001:0000abc4       EfiShellOpenFileList       000000000001bbc4 f   Shell:ShellProtocol.obj
 0001:0000ae94       EfiShellGetEnvEx           000000000001be94 f   Shell:ShellProtocol.obj
 0001:0000b190       EfiShellGetEnv             000000000001c190 f   Shell:ShellProtocol.obj
 0001:0000b1ac       InternalEfiShellSetEnv     000000000001c1ac f   Shell:ShellProtocol.obj
 0001:0000b340       EfiShellSetEnv             000000000001c340 f   Shell:ShellProtocol.obj
 0001:0000b44c       EfiShellGetCurDir          000000000001c44c f   Shell:ShellProtocol.obj
 0001:0000b550       EfiShellSetCurDir          000000000001c550 f   Shell:ShellProtocol.obj
 0001:0000bc88       EfiShellGetHelpText        000000000001cc88 f   Shell:ShellProtocol.obj
 0001:0000bec4       EfiShellGetPageBreak       000000000001cec4 f   Shell:ShellProtocol.obj
 0001:0000becc       EfiShellIsRootShell        000000000001cecc f   Shell:ShellProtocol.obj
 0001:0000bed4       InternalEfiShellGetListAlias 000000000001ced4 f   Shell:ShellProtocol.obj
 0001:0000c154       ToLower                    000000000001d154 f   Shell:ShellProtocol.obj
 0001:0000c1d4       EfiShellGetAlias           000000000001d1d4 f   Shell:ShellProtocol.obj
 0001:0000c35c       InternalSetAlias           000000000001d35c f   Shell:ShellProtocol.obj
 0001:0000c49c       EfiShellSetAlias           000000000001d49c f   Shell:ShellProtocol.obj
 0001:0000c564       CreatePopulateInstallShellProtocol 000000000001d564 f   Shell:ShellProtocol.obj
 0001:0000c888       CleanUpShellProtocol       000000000001d888 f   Shell:ShellProtocol.obj
 0001:0000c948       CleanUpShellEnvironment    000000000001d948 f   Shell:ShellProtocol.obj
 0001:0000caa8       NotificationFunction       000000000001daa8 f   Shell:ShellProtocol.obj
 0001:0000cb5c       InernalEfiShellStartMonitor 000000000001db5c f   Shell:ShellProtocol.obj
 0001:0000ccec       ConInWaitForKey            000000000001dcec f   Shell:ConsoleWrappers.obj
 0001:0000cd10       FileBasedSimpleTextOutReset 000000000001dd10 f   Shell:ConsoleWrappers.obj
 0001:0000cd10       FileBasedSimpleTextOutEnableCursor 000000000001dd10 f   Shell:ConsoleWrappers.obj
 0001:0000cd10       FileBasedSimpleTextInReset 000000000001dd10 f   Shell:ConsoleWrappers.obj
 0001:0000cd1c       FileBasedSimpleTextInReadKeyStroke 000000000001dd1c f   Shell:ConsoleWrappers.obj
 0001:0000cdfc       CreateSimpleTextInOnFile   000000000001ddfc f   Shell:ConsoleWrappers.obj
 0001:0000cf50       CloseSimpleTextInOnFile    000000000001df50 f   Shell:ConsoleWrappers.obj
 0001:0000cfd4       FileBasedSimpleTextOutSetAttribute 000000000001dfd4 f   Shell:ConsoleWrappers.obj
 0001:0000cfd4       UefiLibConstructor         000000000001dfd4 f   UefiLib:UefiLib.obj
 0001:0000cfd4       FileBasedSimpleTextOutTestString 000000000001dfd4 f   Shell:ConsoleWrappers.obj
 0001:0000cfe4       FileBasedSimpleTextOutQueryMode 000000000001dfe4 f   Shell:ConsoleWrappers.obj
 0001:0000d02c       FileInterfaceNopGetPosition 000000000001e02c f   Shell:FileHandleWrappers.obj
 0001:0000d02c       FileInterfaceNopSetPosition 000000000001e02c f   Shell:FileHandleWrappers.obj
 0001:0000d02c       FileBasedSimpleTextOutSetMode 000000000001e02c f   Shell:ConsoleWrappers.obj
 0001:0000d044       FileBasedSimpleTextOutClearScreen 000000000001e044 f   Shell:ConsoleWrappers.obj
 0001:0000d044       FileInterfaceNopGeneric    000000000001e044 f   Shell:FileHandleWrappers.obj
 0001:0000d04c       FileInterfaceNulWrite      000000000001e04c f   Shell:FileHandleWrappers.obj
 0001:0000d04c       FileBasedSimpleTextOutSetCursorPosition 000000000001e04c f   Shell:ConsoleWrappers.obj
 0001:0000d04c       DevPathSerialDefault       000000000001e04c f   UefiShellCommandLib:ConsistMapping.obj
 0001:0000d060       FileBasedSimpleTextOutOutputString 000000000001e060 f   Shell:ConsoleWrappers.obj
 0001:0000d0a8       CreateSimpleTextOutOnFile  000000000001e0a8 f   Shell:ConsoleWrappers.obj
 0001:0000d300       CloseSimpleTextOutOnFile   000000000001e300 f   Shell:ConsoleWrappers.obj
 0001:0000d36c       IsVolatileEnv              000000000001e36c f   Shell:ShellEnvVar.obj
 0001:0000d4d0       FreeEnvironmentVariableList 000000000001e4d0 f   Shell:ShellEnvVar.obj
 0001:0000d5d4       GetEnvironmentVariableList 000000000001e5d4 f   Shell:ShellEnvVar.obj
 0001:0000daa4       SetEnvironmentVariableList 000000000001eaa4 f   Shell:ShellEnvVar.obj
 0001:0000ddac       SetEnvironmentVariables    000000000001edac f   Shell:ShellEnvVar.obj
 0001:0000e114       ShellFindEnvVarInList      000000000001f114 f   Shell:ShellEnvVar.obj
 0001:0000e22c       ShellAddEnvVarToList       000000000001f22c f   Shell:ShellEnvVar.obj
 0001:0000e408       ShellRemvoeEnvVarFromList  000000000001f408 f   Shell:ShellEnvVar.obj
 0001:0000e540       ShellInitEnvVarList        000000000001f540 f   Shell:ShellEnvVar.obj
 0001:0000e56c       ShellFreeEnvVarList        000000000001f56c f   Shell:ShellEnvVar.obj
 0001:0000e590       FindEndOfParameter         000000000001f590 f   Shell:ShellParametersProtocol.obj
 0001:0000e624       GetNextParameter           000000000001f624 f   Shell:ShellParametersProtocol.obj
 0001:0000e8b8       ParseCommandLineToArgs     000000000001f8b8 f   Shell:ShellParametersProtocol.obj
 0001:0000ec1c       CreatePopulateInstallShellParametersProtocol 000000000001fc1c f   Shell:ShellParametersProtocol.obj
 0001:0000f0cc       CleanUpShellParametersProtocol 00000000000200cc f   Shell:ShellParametersProtocol.obj
 0001:0000f1cc       IsUnicodeFile              00000000000201cc f   Shell:ShellParametersProtocol.obj
 0001:0000f2b8       StripQuotes                00000000000202b8 f   Shell:ShellParametersProtocol.obj
 0001:0000f360       CalculateEfiHdrCrc         0000000000020360 f   Shell:ShellParametersProtocol.obj
 0001:0000f3b0       FixFileName                00000000000203b0 f   Shell:ShellParametersProtocol.obj
 0001:0000f4a8       FixVarName                 00000000000204a8 f   Shell:ShellParametersProtocol.obj
 0001:0000f524       WriteFileTag               0000000000020524 f   Shell:ShellParametersProtocol.obj
 0001:0000f5a8       UpdateStdInStdOutStdErr    00000000000205a8 f   Shell:ShellParametersProtocol.obj
 0001:00011588       RestoreStdInStdOutStdErr   0000000000022588 f   Shell:ShellParametersProtocol.obj
 0001:000117fc       UpdateArgcArgv             00000000000227fc f   Shell:ShellParametersProtocol.obj
 0001:000118b0       RestoreArgcArgv            00000000000228b0 f   Shell:ShellParametersProtocol.obj
 0001:000119f0       ConsoleLoggerInstall       00000000000229f0 f   Shell:ConsoleLogger.obj
 0001:00011e40       ConsoleLoggerUninstall     0000000000022e40 f   Shell:ConsoleLogger.obj
 0001:00012048       ConsoleLoggerDisplayHistory 0000000000023048 f   Shell:ConsoleLogger.obj
 0001:000121cc       ConsoleLoggerStopHistory   00000000000231cc f   Shell:ConsoleLogger.obj
 0001:00012264       UpdateDisplayFromHistory   0000000000023264 f   Shell:ConsoleLogger.obj
 0001:00012778       ConsoleLoggerReset         0000000000023778 f   Shell:ConsoleLogger.obj
 0001:00012840       AppendStringToHistory      0000000000023840 f   Shell:ConsoleLogger.obj
 0001:00012e14       ConsoleLoggerOutputStringSplit 0000000000023e14 f   Shell:ConsoleLogger.obj
 0001:00012e64       ConsoleLoggerDoPageBreak   0000000000023e64 f   Shell:ConsoleLogger.obj
 0001:00012fec       ConsoleLoggerPrintWithPageBreak 0000000000023fec f   Shell:ConsoleLogger.obj
 0001:000132d4       ConsoleLoggerOutputString  00000000000242d4 f   Shell:ConsoleLogger.obj
 0001:00013518       ConsoleLoggerTestString    0000000000024518 f   Shell:ConsoleLogger.obj
 0001:0001359c       ConsoleLoggerQueryMode     000000000002459c f   Shell:ConsoleLogger.obj
 0001:00013634       ConsoleLoggerSetMode       0000000000024634 f   Shell:ConsoleLogger.obj
 0001:00013720       ConsoleLoggerSetAttribute  0000000000024720 f   Shell:ConsoleLogger.obj
 0001:000137c8       ConsoleLoggerClearScreen   00000000000247c8 f   Shell:ConsoleLogger.obj
 0001:000139b4       ConsoleLoggerSetCursorPosition 00000000000249b4 f   Shell:ConsoleLogger.obj
 0001:00013aa0       ConsoleLoggerEnableCursor  0000000000024aa0 f   Shell:ConsoleLogger.obj
 0001:00013b44       ConsoleLoggerResetBuffers  0000000000024b44 f   Shell:ConsoleLogger.obj
 0001:00013d40       FileInterfaceOpenNotFound  0000000000024d40 f   Shell:FileHandleWrappers.obj
 0001:00013d60       FileInterfaceNopSetInfo    0000000000024d60 f   Shell:FileHandleWrappers.obj
 0001:00013d60       FileInterfaceNopGetInfo    0000000000024d60 f   Shell:FileHandleWrappers.obj
 0001:00013d80       FileInterfaceStdOutWrite   0000000000024d80 f   Shell:FileHandleWrappers.obj
 0001:00013e18       FileInterfaceStdErrRead    0000000000024e18 f   Shell:FileHandleWrappers.obj
 0001:00013e18       FileInterfaceStdInWrite    0000000000024e18 f   Shell:FileHandleWrappers.obj
 0001:00013e18       FileInterfaceStdOutRead    0000000000024e18 f   Shell:FileHandleWrappers.obj
 0001:00013e34       FileInterfaceStdErrWrite   0000000000024e34 f   Shell:FileHandleWrappers.obj
 0001:00013e6c       FileInterfaceNulRead       0000000000024e6c f   Shell:FileHandleWrappers.obj
 0001:00013e8c       CreateTabCompletionList    0000000000024e8c f   Shell:FileHandleWrappers.obj
 0001:00014370       FileInterfaceStdInRead     0000000000025370 f   Shell:FileHandleWrappers.obj
 0001:000154a0       FileInterfaceEnvClose      00000000000264a0 f   Shell:FileHandleWrappers.obj
 0001:00015748       FileInterfaceEnvDelete     0000000000026748 f   Shell:FileHandleWrappers.obj
 0001:0001578c       FileInterfaceEnvRead       000000000002678c f   Shell:FileHandleWrappers.obj
 0001:00015864       FileInterfaceEnvVolWrite   0000000000026864 f   Shell:FileHandleWrappers.obj
 0001:00015a84       FileInterfaceEnvNonVolWrite 0000000000026a84 f   Shell:FileHandleWrappers.obj
 0001:00015ca4       CreateFileInterfaceEnv     0000000000026ca4 f   Shell:FileHandleWrappers.obj
 0001:00015e00       MoveCursorBackward         0000000000026e00 f   Shell:FileHandleWrappers.obj
 0001:00015e60       MoveCursorForward          0000000000026e60 f   Shell:FileHandleWrappers.obj
 0001:00015ec8       PrintCommandHistory        0000000000026ec8 f   Shell:FileHandleWrappers.obj
 0001:00016004       FileInterfaceMemSetPosition 0000000000027004 f   Shell:FileHandleWrappers.obj
 0001:00016040       FileInterfaceMemGetPosition 0000000000027040 f   Shell:FileHandleWrappers.obj
 0001:00016060       FileInterfaceMemGetInfo    0000000000027060 f   Shell:FileHandleWrappers.obj
 0001:00016128       FileInterfaceMemWrite      0000000000027128 f   Shell:FileHandleWrappers.obj
 0001:000163ac       FileInterfaceMemRead       00000000000273ac f   Shell:FileHandleWrappers.obj
 0001:00016450       FileInterfaceMemClose      0000000000027450 f   Shell:FileHandleWrappers.obj
 0001:000164b0       CreateFileInterfaceMem     00000000000274b0 f   Shell:FileHandleWrappers.obj
 0001:0001669c       FileInterfaceFileSetPosition 000000000002769c f   Shell:FileHandleWrappers.obj
 0001:000166cc       FileInterfaceFileGetPosition 00000000000276cc f   Shell:FileHandleWrappers.obj
 0001:000166fc       FileInterfaceFileGetInfo   00000000000276fc f   Shell:FileHandleWrappers.obj
 0001:00016740       FileInterfaceFileSetInfo   0000000000027740 f   Shell:FileHandleWrappers.obj
 0001:00016784       FileInterfaceFileFlush     0000000000027784 f   Shell:FileHandleWrappers.obj
 0001:000167a8       FileInterfaceFileRead      00000000000277a8 f   Shell:FileHandleWrappers.obj
 0001:000169e0       FileInterfaceFileOpen      00000000000279e0 f   Shell:FileHandleWrappers.obj
 0001:00016a2c       FileInterfaceFileDelete    0000000000027a2c f   Shell:FileHandleWrappers.obj
 0001:00016a64       FileInterfaceFileClose     0000000000027a64 f   Shell:FileHandleWrappers.obj
 0001:00016a9c       FileInterfaceFileWrite     0000000000027a9c f   Shell:FileHandleWrappers.obj
 0001:00016b5c       CreateFileInterfaceFile    0000000000027b5c f   Shell:FileHandleWrappers.obj
 0001:00016c60       GetExecuatableFileName     0000000000027c60 f   Shell:ShellManParser.obj
 0001:00016f30       GetManFileName             0000000000027f30 f   Shell:ShellManParser.obj
 0001:00017038       SearchPathForFile          0000000000028038 f   Shell:ShellManParser.obj
 0001:000170c4       ManFileFindSections        00000000000280c4 f   Shell:ShellManParser.obj
 0001:000173a4       IsTitleHeader              00000000000283a4 f   Shell:ShellManParser.obj
 0001:00017658       ManFileFindTitleSection    0000000000028658 f   Shell:ShellManParser.obj
 0001:0001783c       ProcessManFile             000000000002883c f   Shell:ShellManParser.obj
 0001:00017ff0       UnicodeVSPrint             0000000000028ff0 f   BasePrintLib:PrintLib.obj
 0001:000180b0       UnicodeSPrint              00000000000290b0 f   BasePrintLib:PrintLib.obj
 0001:00018104       UnicodeValueToStringS      0000000000029104 f   BasePrintLib:PrintLib.obj
 0001:00018188       AsciiVSPrint               0000000000029188 f   BasePrintLib:PrintLib.obj
 0001:000181d0       AsciiSPrint                00000000000291d0 f   BasePrintLib:PrintLib.obj
 0001:00018224       SPrintLength               0000000000029224 f   BasePrintLib:PrintLib.obj
 0001:00018298       BasePrintLibFillBuffer     0000000000029298 f   BasePrintLib:PrintLibInternal.obj
 0001:00018324       BasePrintLibValueToString  0000000000029324 f   BasePrintLib:PrintLibInternal.obj
 0001:0001838c       BasePrintLibConvertValueToStringS 000000000002938c f   BasePrintLib:PrintLibInternal.obj
 0001:00018ac0       BasePrintLibSPrintMarker   0000000000029ac0 f   BasePrintLib:PrintLibInternal.obj
 0001:0001abb4       BasePrintLibSPrint         000000000002bbb4 f   BasePrintLib:PrintLibInternal.obj
 0001:0001ac1c       CopyMem                    000000000002bc1c f   BaseMemoryLib:CopyMemWrapper.obj
 0001:0001acf4       CopyGuid                   000000000002bcf4 f   BaseMemoryLib:MemLibGuid.obj
 0001:0001ad48       CompareGuid                000000000002bd48 f   BaseMemoryLib:MemLibGuid.obj
 0001:0001add0       ZeroMem                    000000000002bdd0 f   BaseMemoryLib:ZeroMemWrapper.obj
 0001:0001ae78       SetMem16                   000000000002be78 f   BaseMemoryLib:SetMem16Wrapper.obj
 0001:0001afac       SetMem                     000000000002bfac f   BaseMemoryLib:SetMemWrapper.obj
 0001:0001b02c       InternalMemCopyMem         000000000002c02c f   BaseMemoryLib:CopyMem.obj
 0001:0001b608       InternalMemSetMem16        000000000002c608 f   BaseMemoryLib:MemLibGeneric.obj
 0001:0001b64c       InternalMemZeroMem         000000000002c64c f   BaseMemoryLib:MemLibGeneric.obj
 0001:0001b674       InternalMemCompareMem      000000000002c674 f   BaseMemoryLib:MemLibGeneric.obj
 0001:0001b6dc       InternalMemSetMem          000000000002c6dc f   BaseMemoryLib:SetMem.obj
 0001:0001b870       GetDevicePathSize          000000000002c870 f   UefiDevicePathLib:UefiDevicePathLib.obj
 0001:0001b888       DuplicateDevicePath        000000000002c888 f   UefiDevicePathLib:UefiDevicePathLib.obj
 0001:0001b8a0       AppendDevicePath           000000000002c8a0 f   UefiDevicePathLib:UefiDevicePathLib.obj
 0001:0001b8c4       AppendDevicePathNode       000000000002c8c4 f   UefiDevicePathLib:UefiDevicePathLib.obj
 0001:0001b8e8       GetNextDevicePathInstance  000000000002c8e8 f   UefiDevicePathLib:UefiDevicePathLib.obj
 0001:0001b90c       CreateDeviceNode           000000000002c90c f   UefiDevicePathLib:UefiDevicePathLib.obj
 0001:0001b938       ConvertDevicePathToText    000000000002c938 f   UefiDevicePathLib:UefiDevicePathLib.obj
 0001:0001b964       ConvertTextToDevicePath    000000000002c964 f   UefiDevicePathLib:UefiDevicePathLib.obj
 0001:0001b97c       IsDevicePathValid          000000000002c97c f   UefiDevicePathLib:DevicePathUtilities.obj
 0001:0001bae8       DevicePathType             000000000002cae8 f   UefiDevicePathLib:DevicePathUtilities.obj
 0001:0001bb30       DevicePathSubType          000000000002cb30 f   UefiDevicePathLib:DevicePathUtilities.obj
 0001:0001bb78       DevicePathNodeLength       000000000002cb78 f   UefiDevicePathLib:DevicePathUtilities.obj
 0001:0001bbd8       NextDevicePathNode         000000000002cbd8 f   UefiDevicePathLib:DevicePathUtilities.obj
 0001:0001bc30       IsDevicePathEndType        000000000002cc30 f   UefiDevicePathLib:DevicePathUtilities.obj
 0001:0001bc94       IsDevicePathEnd            000000000002cc94 f   UefiDevicePathLib:DevicePathUtilities.obj
 0001:0001bd0c       SetDevicePathNodeLength    000000000002cd0c f   UefiDevicePathLib:DevicePathUtilities.obj
 0001:0001bdb0       SetDevicePathEndNode       000000000002cdb0 f   UefiDevicePathLib:DevicePathUtilities.obj
 0001:0001be08       UefiDevicePathLibGetDevicePathSize 000000000002ce08 f   UefiDevicePathLib:DevicePathUtilities.obj
 0001:0001be90       UefiDevicePathLibDuplicateDevicePath 000000000002ce90 f   UefiDevicePathLib:DevicePathUtilities.obj
 0001:0001bec8       UefiDevicePathLibAppendDevicePath 000000000002cec8 f   UefiDevicePathLib:DevicePathUtilities.obj
 0001:0001bfe8       UefiDevicePathLibAppendDevicePathNode 000000000002cfe8 f   UefiDevicePathLib:DevicePathUtilities.obj
 0001:0001c0b8       UefiDevicePathLibGetNextDevicePathInstance 000000000002d0b8 f   UefiDevicePathLib:DevicePathUtilities.obj
 0001:0001c1fc       UefiDevicePathLibCreateDeviceNode 000000000002d1fc f   UefiDevicePathLib:DevicePathUtilities.obj
 0001:0001c268       FileDevicePath             000000000002d268 f   UefiDevicePathLib:DevicePathUtilities.obj
 0001:0001c350       UefiDevicePathLibStrDuplicate 000000000002d350 f   UefiDevicePathLib:DevicePathFromText.obj
 0001:0001c378       GetParamByNodeName         000000000002d378 f   UefiDevicePathLib:DevicePathFromText.obj
 0001:0001c488       SplitStr                   000000000002d488 f   UefiDevicePathLib:DevicePathFromText.obj
 0001:0001c524       GetNextParamStr            000000000002d524 f   UefiDevicePathLib:DevicePathFromText.obj
 0001:0001c540       GetNextDeviceNodeStr       000000000002d540 f   UefiDevicePathLib:DevicePathFromText.obj
 0001:0001c6b0       IsHexStr                   000000000002d6b0 f   UefiDevicePathLib:DevicePathFromText.obj
 0001:0001c738       Strtoi                     000000000002d738 f   UefiDevicePathLib:DevicePathFromText.obj
 0001:0001c770       Strtoi64                   000000000002d770 f   UefiDevicePathLib:DevicePathFromText.obj
 0001:0001c7bc       StrToAscii                 000000000002d7bc f   UefiDevicePathLib:DevicePathFromText.obj
 0001:0001c828       DevPathFromTextGenericPath 000000000002d828 f   UefiDevicePathLib:DevicePathFromText.obj
 0001:0001c8e0       DevPathFromTextPath        000000000002d8e0 f   UefiDevicePathLib:DevicePathFromText.obj
 0001:0001c914       DevPathFromTextHardwarePath 000000000002d914 f   UefiDevicePathLib:DevicePathFromText.obj
 0001:0001c930       DevPathFromTextPci         000000000002d930 f   UefiDevicePathLib:DevicePathFromText.obj
 0001:0001c998       DevPathFromTextPcCard      000000000002d998 f   UefiDevicePathLib:DevicePathFromText.obj
 0001:0001c9e0       DevPathFromTextMemoryMapped 000000000002d9e0 f   UefiDevicePathLib:DevicePathFromText.obj
 0001:0001ca74       ConvertFromTextVendor      000000000002da74 f   UefiDevicePathLib:DevicePathFromText.obj
 0001:0001cb30       DevPathFromTextVenHw       000000000002db30 f   UefiDevicePathLib:DevicePathFromText.obj
 0001:0001cb50       DevPathFromTextCtrl        000000000002db50 f   UefiDevicePathLib:DevicePathFromText.obj
 0001:0001cb98       DevPathFromTextBmc         000000000002db98 f   UefiDevicePathLib:DevicePathFromText.obj
 0001:0001cc0c       DevPathFromTextAcpiPath    000000000002dc0c f   UefiDevicePathLib:DevicePathFromText.obj
 0001:0001cc28       EisaIdFromText             000000000002dc28 f   UefiDevicePathLib:DevicePathFromText.obj
 0001:0001ccb4       DevPathFromTextAcpi        000000000002dcb4 f   UefiDevicePathLib:DevicePathFromText.obj
 0001:0001cd1c       ConvertFromTextAcpi        000000000002dd1c f   UefiDevicePathLib:DevicePathFromText.obj
 0001:0001cd7c       DevPathFromTextPciRoot     000000000002dd7c f   UefiDevicePathLib:DevicePathFromText.obj
 0001:0001cd9c       DevPathFromTextPcieRoot    000000000002dd9c f   UefiDevicePathLib:DevicePathFromText.obj
 0001:0001cdbc       DevPathFromTextFloppy      000000000002ddbc f   UefiDevicePathLib:DevicePathFromText.obj
 0001:0001cddc       DevPathFromTextKeyboard    000000000002dddc f   UefiDevicePathLib:DevicePathFromText.obj
 0001:0001cdfc       DevPathFromTextSerial      000000000002ddfc f   UefiDevicePathLib:DevicePathFromText.obj
 0001:0001ce1c       DevPathFromTextParallelPort 000000000002de1c f   UefiDevicePathLib:DevicePathFromText.obj
 0001:0001ce3c       DevPathFromTextAcpiEx      000000000002de3c f   UefiDevicePathLib:DevicePathFromText.obj
 0001:0001cfa0       DevPathFromTextAcpiExp     000000000002dfa0 f   UefiDevicePathLib:DevicePathFromText.obj
 0001:0001d098       DevPathFromTextAcpiAdr     000000000002e098 f   UefiDevicePathLib:DevicePathFromText.obj
 0001:0001d1c4       DevPathFromTextMsg         000000000002e1c4 f   UefiDevicePathLib:DevicePathFromText.obj
 0001:0001d1e0       DevPathFromTextAta         000000000002e1e0 f   UefiDevicePathLib:DevicePathFromText.obj
 0001:0001d2f0       DevPathFromTextScsi        000000000002e2f0 f   UefiDevicePathLib:DevicePathFromText.obj
 0001:0001d35c       DevPathFromTextFibre       000000000002e35c f   UefiDevicePathLib:DevicePathFromText.obj
 0001:0001d3d8       DevPathFromTextFibreEx     000000000002e3d8 f   UefiDevicePathLib:DevicePathFromText.obj
 0001:0001d484       DevPathFromText1394        000000000002e484 f   UefiDevicePathLib:DevicePathFromText.obj
 0001:0001d4d8       DevPathFromTextUsb         000000000002e4d8 f   UefiDevicePathLib:DevicePathFromText.obj
 0001:0001d540       DevPathFromTextI2O         000000000002e540 f   UefiDevicePathLib:DevicePathFromText.obj
 0001:0001d588       DevPathFromTextInfiniband  000000000002e588 f   UefiDevicePathLib:DevicePathFromText.obj
 0001:0001d664       DevPathFromTextVenMsg      000000000002e664 f   UefiDevicePathLib:DevicePathFromText.obj
 0001:0001d684       DevPathFromTextVenPcAnsi   000000000002e684 f   UefiDevicePathLib:DevicePathFromText.obj
 0001:0001d6c4       DevPathFromTextVenVt100    000000000002e6c4 f   UefiDevicePathLib:DevicePathFromText.obj
 0001:0001d704       DevPathFromTextVenVt100Plus 000000000002e704 f   UefiDevicePathLib:DevicePathFromText.obj
 0001:0001d744       DevPathFromTextVenUtf8     000000000002e744 f   UefiDevicePathLib:DevicePathFromText.obj
 0001:0001d784       DevPathFromTextUartFlowCtrl 000000000002e784 f   UefiDevicePathLib:DevicePathFromText.obj
 0001:0001d828       DevPathFromTextSAS         000000000002e828 f   UefiDevicePathLib:DevicePathFromText.obj
 0001:0001daec       DevPathFromTextSasEx       000000000002eaec f   UefiDevicePathLib:DevicePathFromText.obj
 0001:0001dda0       DevPathFromTextNVMe        000000000002eda0 f   UefiDevicePathLib:DevicePathFromText.obj
 0001:0001de58       DevPathFromTextUfs         000000000002ee58 f   UefiDevicePathLib:DevicePathFromText.obj
 0001:0001dec0       DevPathFromTextSd          000000000002eec0 f   UefiDevicePathLib:DevicePathFromText.obj
 0001:0001df08       DevPathFromTextEmmc        000000000002ef08 f   UefiDevicePathLib:DevicePathFromText.obj
 0001:0001df50       DevPathFromTextDebugPort   000000000002ef50 f   UefiDevicePathLib:DevicePathFromText.obj
 0001:0001df90       DevPathFromTextMAC         000000000002ef90 f   UefiDevicePathLib:DevicePathFromText.obj
 0001:0001e03c       NetworkProtocolFromText    000000000002f03c f   UefiDevicePathLib:DevicePathFromText.obj
 0001:0001e090       DevPathFromTextIPv4        000000000002f090 f   UefiDevicePathLib:DevicePathFromText.obj
 0001:0001e218       DevPathFromTextIPv6        000000000002f218 f   UefiDevicePathLib:DevicePathFromText.obj
 0001:0001e3a8       DevPathFromTextUart        000000000002f3a8 f   UefiDevicePathLib:DevicePathFromText.obj
 0001:0001e5a4       ConvertFromTextUsbClass    000000000002f5a4 f   UefiDevicePathLib:DevicePathFromText.obj
 0001:0001e730       DevPathFromTextUsbClass    000000000002f730 f   UefiDevicePathLib:DevicePathFromText.obj
 0001:0001e758       DevPathFromTextUsbAudio    000000000002f758 f   UefiDevicePathLib:DevicePathFromText.obj
 0001:0001e784       DevPathFromTextUsbCDCControl 000000000002f784 f   UefiDevicePathLib:DevicePathFromText.obj
 0001:0001e7b0       DevPathFromTextUsbHID      000000000002f7b0 f   UefiDevicePathLib:DevicePathFromText.obj
 0001:0001e7dc       DevPathFromTextUsbImage    000000000002f7dc f   UefiDevicePathLib:DevicePathFromText.obj
 0001:0001e808       DevPathFromTextUsbPrinter  000000000002f808 f   UefiDevicePathLib:DevicePathFromText.obj
 0001:0001e834       DevPathFromTextUsbMassStorage 000000000002f834 f   UefiDevicePathLib:DevicePathFromText.obj
 0001:0001e860       DevPathFromTextUsbHub      000000000002f860 f   UefiDevicePathLib:DevicePathFromText.obj
 0001:0001e88c       DevPathFromTextUsbCDCData  000000000002f88c f   UefiDevicePathLib:DevicePathFromText.obj
 0001:0001e8b8       DevPathFromTextUsbSmartCard 000000000002f8b8 f   UefiDevicePathLib:DevicePathFromText.obj
 0001:0001e8e4       DevPathFromTextUsbVideo    000000000002f8e4 f   UefiDevicePathLib:DevicePathFromText.obj
 0001:0001e910       DevPathFromTextUsbDiagnostic 000000000002f910 f   UefiDevicePathLib:DevicePathFromText.obj
 0001:0001e93c       DevPathFromTextUsbWireless 000000000002f93c f   UefiDevicePathLib:DevicePathFromText.obj
 0001:0001e968       DevPathFromTextUsbDeviceFirmwareUpdate 000000000002f968 f   UefiDevicePathLib:DevicePathFromText.obj
 0001:0001e99c       DevPathFromTextUsbIrdaBridge 000000000002f99c f   UefiDevicePathLib:DevicePathFromText.obj
 0001:0001e9d0       DevPathFromTextUsbTestAndMeasurement 000000000002f9d0 f   UefiDevicePathLib:DevicePathFromText.obj
 0001:0001ea04       DevPathFromTextUsbWwid     000000000002fa04 f   UefiDevicePathLib:DevicePathFromText.obj
 0001:0001eb38       DevPathFromTextUnit        000000000002fb38 f   UefiDevicePathLib:DevicePathFromText.obj
 0001:0001eb80       DevPathFromTextiSCSI       000000000002fb80 f   UefiDevicePathLib:DevicePathFromText.obj
 0001:0001ed74       DevPathFromTextVlan        000000000002fd74 f   UefiDevicePathLib:DevicePathFromText.obj
 0001:0001edbc       DevPathFromTextBluetooth   000000000002fdbc f   UefiDevicePathLib:DevicePathFromText.obj
 0001:0001ee14       DevPathFromTextWiFi        000000000002fe14 f   UefiDevicePathLib:DevicePathFromText.obj
 0001:0001eec0       DevPathFromTextBluetoothLE 000000000002fec0 f   UefiDevicePathLib:DevicePathFromText.obj
 0001:0001ef38       DevPathFromTextDns         000000000002ff38 f   UefiDevicePathLib:DevicePathFromText.obj
 0001:0001f0d8       DevPathFromTextUri         00000000000300d8 f   UefiDevicePathLib:DevicePathFromText.obj
 0001:0001f16c       DevPathFromTextMediaPath   000000000003016c f   UefiDevicePathLib:DevicePathFromText.obj
 0001:0001f188       DevPathFromTextHD          0000000000030188 f   UefiDevicePathLib:DevicePathFromText.obj
 0001:0001f2fc       DevPathFromTextCDROM       00000000000302fc f   UefiDevicePathLib:DevicePathFromText.obj
 0001:0001f390       DevPathFromTextVenMedia    0000000000030390 f   UefiDevicePathLib:DevicePathFromText.obj
 0001:0001f3b0       DevPathFromTextFilePath    00000000000303b0 f   UefiDevicePathLib:DevicePathFromText.obj
 0001:0001f408       DevPathFromTextMedia       0000000000030408 f   UefiDevicePathLib:DevicePathFromText.obj
 0001:0001f454       DevPathFromTextFv          0000000000030454 f   UefiDevicePathLib:DevicePathFromText.obj
 0001:0001f4a0       DevPathFromTextFvFile      00000000000304a0 f   UefiDevicePathLib:DevicePathFromText.obj
 0001:0001f4ec       DevPathFromTextRelativeOffsetRange 00000000000304ec f   UefiDevicePathLib:DevicePathFromText.obj
 0001:0001f55c       DevPathFromTextRamDisk     000000000003055c f   UefiDevicePathLib:DevicePathFromText.obj
 0001:0001f648       DevPathFromTextVirtualDisk 0000000000030648 f   UefiDevicePathLib:DevicePathFromText.obj
 0001:0001f724       DevPathFromTextVirtualCd   0000000000030724 f   UefiDevicePathLib:DevicePathFromText.obj
 0001:0001f800       DevPathFromTextPersistentVirtualDisk 0000000000030800 f   UefiDevicePathLib:DevicePathFromText.obj
 0001:0001f8dc       DevPathFromTextPersistentVirtualCd 00000000000308dc f   UefiDevicePathLib:DevicePathFromText.obj
 0001:0001f9b8       DevPathFromTextBbsPath     00000000000309b8 f   UefiDevicePathLib:DevicePathFromText.obj
 0001:0001f9d4       DevPathFromTextBBS         00000000000309d4 f   UefiDevicePathLib:DevicePathFromText.obj
 0001:0001fb64       DevPathFromTextSata        0000000000030b64 f   UefiDevicePathLib:DevicePathFromText.obj
 0001:0001fc0c       UefiDevicePathLibConvertTextToDeviceNode 0000000000030c0c f   UefiDevicePathLib:DevicePathFromText.obj
 0001:0001fd44       UefiDevicePathLibConvertTextToDevicePath 0000000000030d44 f   UefiDevicePathLib:DevicePathFromText.obj
 0001:0001fedc       UefiDevicePathLibCatPrint  0000000000030edc f   UefiDevicePathLib:DevicePathToText.obj
 0001:0002003c       DevPathToTextPci           000000000003103c f   UefiDevicePathLib:DevicePathToText.obj
 0001:0002008c       DevPathToTextPccard        000000000003108c f   UefiDevicePathLib:DevicePathToText.obj
 0001:000200d0       DevPathToTextMemMap        00000000000310d0 f   UefiDevicePathLib:DevicePathToText.obj
 0001:00020128       DevPathToTextVendor        0000000000031128 f   UefiDevicePathLib:DevicePathToText.obj
 0001:00020648       DevPathToTextController    0000000000031648 f   UefiDevicePathLib:DevicePathToText.obj
 0001:0002068c       DevPathToTextBmc           000000000003168c f   UefiDevicePathLib:DevicePathToText.obj
 0001:000206e4       DevPathToTextAcpi          00000000000316e4 f   UefiDevicePathLib:DevicePathToText.obj
 0001:0002087c       DevPathToTextAcpiEx        000000000003187c f   UefiDevicePathLib:DevicePathToText.obj
 0001:00020c50       DevPathToTextAcpiAdr       0000000000031c50 f   UefiDevicePathLib:DevicePathToText.obj
 0001:00020d14       DevPathToTextAtapi         0000000000031d14 f   UefiDevicePathLib:DevicePathToText.obj
 0001:00020ddc       DevPathToTextScsi          0000000000031ddc f   UefiDevicePathLib:DevicePathToText.obj
 0001:00020e2c       DevPathToTextFibre         0000000000031e2c f   UefiDevicePathLib:DevicePathToText.obj
 0001:00020e78       DevPathToTextFibreEx       0000000000031e78 f   UefiDevicePathLib:DevicePathToText.obj
 0001:00020f68       DevPathToTextSasEx         0000000000031f68 f   UefiDevicePathLib:DevicePathToText.obj
 0001:000211e4       DevPathToTextNVMe          00000000000321e4 f   UefiDevicePathLib:DevicePathToText.obj
 0001:000212fc       DevPathToTextUfs           00000000000322fc f   UefiDevicePathLib:DevicePathToText.obj
 0001:0002134c       DevPathToTextSd            000000000003234c f   UefiDevicePathLib:DevicePathToText.obj
 0001:00021390       DevPathToTextEmmc          0000000000032390 f   UefiDevicePathLib:DevicePathToText.obj
 0001:000213d4       DevPathToText1394          00000000000323d4 f   UefiDevicePathLib:DevicePathToText.obj
 0001:00021418       DevPathToTextUsb           0000000000032418 f   UefiDevicePathLib:DevicePathToText.obj
 0001:00021468       DevPathToTextUsbWWID       0000000000032468 f   UefiDevicePathLib:DevicePathToText.obj
 0001:00021588       DevPathToTextLogicalUnit   0000000000032588 f   UefiDevicePathLib:DevicePathToText.obj
 0001:000215cc       DevPathToTextUsbClass      00000000000325cc f   UefiDevicePathLib:DevicePathToText.obj
 0001:00021934       DevPathToTextSata          0000000000032934 f   UefiDevicePathLib:DevicePathToText.obj
 0001:00021994       DevPathToTextI2O           0000000000032994 f   UefiDevicePathLib:DevicePathToText.obj
 0001:000219d8       DevPathToTextMacAddr       00000000000329d8 f   UefiDevicePathLib:DevicePathToText.obj
 0001:00021aa8       CatNetworkProtocol         0000000000032aa8 f   UefiDevicePathLib:DevicePathToText.obj
 0001:00021b10       CatIPv4Address             0000000000032b10 f   UefiDevicePathLib:DevicePathToText.obj
 0001:00021b8c       CatIPv6Address             0000000000032b8c f   UefiDevicePathLib:DevicePathToText.obj
 0001:00021da4       DevPathToTextIPv4          0000000000032da4 f   UefiDevicePathLib:DevicePathToText.obj
 0001:00021ef8       DevPathToTextIPv6          0000000000032ef8 f   UefiDevicePathLib:DevicePathToText.obj
 0001:00022048       DevPathToTextInfiniBand    0000000000033048 f   UefiDevicePathLib:DevicePathToText.obj
 0001:000220c0       DevPathToTextUart          00000000000330c0 f   UefiDevicePathLib:DevicePathToText.obj
 0001:00022264       DevPathToTextiSCSI         0000000000033264 f   UefiDevicePathLib:DevicePathToText.obj
 0001:00022430       DevPathToTextVlan          0000000000033430 f   UefiDevicePathLib:DevicePathToText.obj
 0001:00022474       DevPathToTextBluetooth     0000000000033474 f   UefiDevicePathLib:DevicePathToText.obj
 0001:0002253c       DevPathToTextWiFi          000000000003353c f   UefiDevicePathLib:DevicePathToText.obj
 0001:000225a4       DevPathToTextBluetoothLE   00000000000335a4 f   UefiDevicePathLib:DevicePathToText.obj
 0001:00022680       DevPathToTextDns           0000000000033680 f   UefiDevicePathLib:DevicePathToText.obj
 0001:00022774       DevPathToTextUri           0000000000033774 f   UefiDevicePathLib:DevicePathToText.obj
 0001:00022844       DevPathToTextHardDrive     0000000000033844 f   UefiDevicePathLib:DevicePathToText.obj
 0001:00022944       DevPathToTextCDROM         0000000000033944 f   UefiDevicePathLib:DevicePathToText.obj
 0001:000229c4       DevPathToTextFilePath      00000000000339c4 f   UefiDevicePathLib:DevicePathToText.obj
 0001:00022a08       DevPathToTextMediaProtocol 0000000000033a08 f   UefiDevicePathLib:DevicePathToText.obj
 0001:00022a4c       DevPathToTextFv            0000000000033a4c f   UefiDevicePathLib:DevicePathToText.obj
 0001:00022a90       DevPathToTextFvFile        0000000000033a90 f   UefiDevicePathLib:DevicePathToText.obj
 0001:00022ad4       DevPathRelativeOffsetRange 0000000000033ad4 f   UefiDevicePathLib:DevicePathToText.obj
 0001:00022b20       DevPathToTextRamDisk       0000000000033b20 f   UefiDevicePathLib:DevicePathToText.obj
 0001:00022f24       DevPathToTextBBS           0000000000033f24 f   UefiDevicePathLib:DevicePathToText.obj
 0001:00023070       DevPathToTextEndInstance   0000000000034070 f   UefiDevicePathLib:DevicePathToText.obj
 0001:000230a0       DevPathToTextNodeGeneric   00000000000340a0 f   UefiDevicePathLib:DevicePathToText.obj
 0001:00023224       UefiDevicePathLibConvertDevicePathToText 0000000000034224 f   UefiDevicePathLib:DevicePathToText.obj
 0001:000233c0       DevicePathFromHandle       00000000000343c0 f   UefiDevicePathLib:DevicePathUtilitiesDxeSmm.obj
 0001:00023408       InternalAllocatePool       0000000000034408 f   UefiMemoryAllocationLib:MemoryAllocationLib.obj
 0001:00023450       AllocatePool               0000000000034450 f   UefiMemoryAllocationLib:MemoryAllocationLib.obj
 0001:00023470       InternalAllocateZeroPool   0000000000034470 f   UefiMemoryAllocationLib:MemoryAllocationLib.obj
 0001:000234b8       AllocateZeroPool           00000000000344b8 f   UefiMemoryAllocationLib:MemoryAllocationLib.obj
 0001:000234d8       InternalAllocateCopyPool   00000000000344d8 f   UefiMemoryAllocationLib:MemoryAllocationLib.obj
 0001:0002359c       AllocateCopyPool           000000000003459c f   UefiMemoryAllocationLib:MemoryAllocationLib.obj
 0001:000235c4       InternalReallocatePool     00000000000345c4 f   UefiMemoryAllocationLib:MemoryAllocationLib.obj
 0001:00023648       ReallocatePool             0000000000034648 f   UefiMemoryAllocationLib:MemoryAllocationLib.obj
 0001:0002367c       FreePool                   000000000003467c f   UefiMemoryAllocationLib:MemoryAllocationLib.obj
 0001:00023710       DebugPrint                 0000000000034710 f   PeiDxeDebugLibReportStatusCode:DebugLib.obj
 0001:00023754       DebugPrintMarker           0000000000034754 f   PeiDxeDebugLibReportStatusCode:DebugLib.obj
 0001:00023ed8       DebugVPrint                0000000000034ed8 f   PeiDxeDebugLibReportStatusCode:DebugLib.obj
 0001:00023f08       DebugAssert                0000000000034f08 f   PeiDxeDebugLibReportStatusCode:DebugLib.obj
 0001:00024284       DebugAssertEnabled         0000000000035284 f   PeiDxeDebugLibReportStatusCode:DebugLib.obj
 0001:000242a8       DebugPrintEnabled          00000000000352a8 f   PeiDxeDebugLibReportStatusCode:DebugLib.obj
 0001:000242cc       DebugCodeEnabled           00000000000352cc f   PeiDxeDebugLibReportStatusCode:DebugLib.obj
 0001:000242f0       DebugPrintLevelEnabled     00000000000352f0 f   PeiDxeDebugLibReportStatusCode:DebugLib.obj
 0001:00024324       InternalSafeStringIsOverlap 0000000000035324 f   BaseLib:SafeString.obj
 0001:00024388       InternalSafeStringNoStrOverlap 0000000000035388 f   BaseLib:SafeString.obj
 0001:000243e8       InternalSafeStringNoAsciiStrOverlap 00000000000353e8 f   BaseLib:SafeString.obj
 0001:0002443c       StrnLenS                   000000000003543c f   BaseLib:SafeString.obj
 0001:000244e0       StrnSizeS                  00000000000354e0 f   BaseLib:SafeString.obj
 0001:00024514       StrCpyS                    0000000000035514 f   BaseLib:SafeString.obj
 0001:00024984       StrnCpyS                   0000000000035984 f   BaseLib:SafeString.obj
 0001:00024ee8       StrCatS                    0000000000035ee8 f   BaseLib:SafeString.obj
 0001:00025438       StrnCatS                   0000000000036438 f   BaseLib:SafeString.obj
 0001:00025a94       StrDecimalToUintnS         0000000000036a94 f   BaseLib:SafeString.obj
 0001:00025de0       StrDecimalToUint64S        0000000000036de0 f   BaseLib:SafeString.obj
 0001:00026138       StrHexToUintnS             0000000000037138 f   BaseLib:SafeString.obj
 0001:000264f8       StrHexToUint64S            00000000000374f8 f   BaseLib:SafeString.obj
 0001:000268c8       StrToIpv6Address           00000000000378c8 f   BaseLib:SafeString.obj
 0001:00026e04       StrToIpv4Address           0000000000037e04 f   BaseLib:SafeString.obj
 0001:00027110       StrToGuid                  0000000000038110 f   BaseLib:SafeString.obj
 0001:0002746c       StrHexToBytes              000000000003846c f   BaseLib:SafeString.obj
 0001:000278f0       AsciiStrnLenS              00000000000388f0 f   BaseLib:SafeString.obj
 0001:0002795c       AsciiStrnCpyS              000000000003895c f   BaseLib:SafeString.obj
 0001:00027e4c       UnicodeStrToAsciiStrS      0000000000038e4c f   BaseLib:SafeString.obj
 0001:0002835c       AsciiStrToUnicodeStrS      000000000003935c f   BaseLib:SafeString.obj
 0001:00028838       StrLen                     0000000000039838 f   BaseLib:String.obj
 0001:0002892c       StrSize                    000000000003992c f   BaseLib:String.obj
 0001:0002894c       StrCmp                     000000000003994c f   BaseLib:String.obj
 0001:00028a24       StrnCmp                    0000000000039a24 f   BaseLib:String.obj
 0001:00028b70       StrStr                     0000000000039b70 f   BaseLib:String.obj
 0001:00028ca8       ShellIsDecimalDigitCharacter 0000000000039ca8 f   UefiShellLib:UefiShellLib.obj
 0001:00028ca8       InternalIsDecimalDigitCharacter 0000000000039ca8 f   BaseLib:String.obj
 0001:00028cd8       CharToUpper                0000000000039cd8 f   BaseLib:String.obj
 0001:00028d04       InternalHexCharToUintn     0000000000039d04 f   BaseLib:String.obj
 0001:00028d04       InternalShellHexCharToUintn 0000000000039d04 f   UefiShellLib:UefiShellLib.obj
 0001:00028d44       InternalIsHexaDecimalDigitCharacter 0000000000039d44 f   BaseLib:String.obj
 0001:00028d9c       StrDecimalToUintn          0000000000039d9c f   BaseLib:String.obj
 0001:00028dd0       StrDecimalToUint64         0000000000039dd0 f   BaseLib:String.obj
 0001:00028e04       StrHexToUintn              0000000000039e04 f   BaseLib:String.obj
 0001:00028e38       StrHexToUint64             0000000000039e38 f   BaseLib:String.obj
 0001:00028e6c       AsciiStrLen                0000000000039e6c f   BaseLib:String.obj
 0001:00028f24       AsciiStrSize               0000000000039f24 f   BaseLib:String.obj
 0001:00028f40       AsciiStrnCmp               0000000000039f40 f   BaseLib:String.obj
 0001:0002908c       InternalBaseLibIsListValid 000000000003a08c f   BaseLib:LinkedList.obj
 0001:000291a8       IsNodeInList               000000000003a1a8 f   BaseLib:LinkedList.obj
 0001:000292a8       InitializeListHead         000000000003a2a8 f   BaseLib:LinkedList.obj
 0001:00029308       InsertHeadList             000000000003a308 f   BaseLib:LinkedList.obj
 0001:000293f0       InsertTailList             000000000003a3f0 f   BaseLib:LinkedList.obj
 0001:000294d8       GetFirstNode               000000000003a4d8 f   BaseLib:LinkedList.obj
 0001:0002952c       GetNextNode                000000000003a52c f   BaseLib:LinkedList.obj
 0001:000295dc       GetPreviousNode            000000000003a5dc f   BaseLib:LinkedList.obj
 0001:0002968c       IsListEmpty                000000000003a68c f   BaseLib:LinkedList.obj
 0001:000296f4       IsNull                     000000000003a6f4 f   BaseLib:LinkedList.obj
 0001:000297b8       IsNodeAtEnd                000000000003a7b8 f   BaseLib:LinkedList.obj
 0001:00029894       SwapListEntries            000000000003a894 f   BaseLib:LinkedList.obj
 0001:000299bc       RemoveEntryList            000000000003a9bc f   BaseLib:LinkedList.obj
 0001:00029a38       PathRemoveLastItem         000000000003aa38 f   BaseLib:FilePaths.obj
 0001:00029aec       PathCleanUpDirectories     000000000003aaec f   BaseLib:FilePaths.obj
 0001:00029ce8       ReadUnaligned16            000000000003ace8 f   BaseLib:Unaligned.obj
 0001:00029d30       WriteUnaligned16           000000000003ad30 f   BaseLib:Unaligned.obj
 0001:00029d88       ReadUnaligned32            000000000003ad88 f   BaseLib:Unaligned.obj
 0001:00029dd0       WriteUnaligned32           000000000003add0 f   BaseLib:Unaligned.obj
 0001:00029e24       ReadUnaligned64            000000000003ae24 f   BaseLib:Unaligned.obj
 0001:00029e6c       WriteUnaligned64           000000000003ae6c f   BaseLib:Unaligned.obj
 0001:00029ec4       DivU64x32Remainder         000000000003aec4 f   BaseLib:DivU64x32Remainder.obj
 0001:00029f20       LShiftU64                  000000000003af20 f   BaseLib:LShiftU64.obj
 0001:00029f74       SwapBytes64                000000000003af74 f   BaseLib:SwapBytes64.obj
 0001:00029f8c       CpuBreakpoint              000000000003af8c f   BaseLib:CpuBreakpoint.obj
 0001:00029f90       CpuDeadLoop                000000000003af90 f   BaseLib:CpuDeadLoop.obj
 0001:00029fb4       DivU64x32                  000000000003afb4 f   BaseLib:DivU64x32.obj
 0001:0002a008       SwapBytes16                000000000003b008 f   BaseLib:SwapBytes16.obj
 0001:0002a020       SwapBytes32                000000000003b020 f   BaseLib:SwapBytes32.obj
 0001:0002a060       MultU64x32                 000000000003b060 f   BaseLib:MultU64x32.obj
 0001:0002a08c       RShiftU64                  000000000003b08c f   BaseLib:RShiftU64.obj
 0001:0002a0e0       InternalMathLShiftU64      000000000003b0e0 f   BaseLib:Math64.obj
 0001:0002a0fc       InternalMathRShiftU64      000000000003b0fc f   BaseLib:Math64.obj
 0001:0002a118       InternalMathSwapBytes64    000000000003b118 f   BaseLib:Math64.obj
 0001:0002a15c       InternalMathMultU64x32     000000000003b15c f   BaseLib:Math64.obj
 0001:0002a178       InternalMathMultU64x64     000000000003b178 f   BaseLib:Math64.obj
 0001:0002a190       InternalMathDivU64x32      000000000003b190 f   BaseLib:Math64.obj
 0001:0002a1b8       InternalMathModU64x32      000000000003b1b8 f   BaseLib:Math64.obj
 0001:0002a1e4       InternalMathDivRemU64x32   000000000003b1e4 f   BaseLib:Math64.obj
 0001:0002a23c       InternalMathDivRemU64x64   000000000003b23c f   BaseLib:Math64.obj
 0001:0002a278       UefiBootServicesTableLibConstructor 000000000003b278 f   UefiBootServicesTableLib:UefiBootServicesTableLib.obj
 0001:0002a354       UefiRuntimeServicesTableLibConstructor 000000000003b354 f   UefiRuntimeServicesTableLib:UefiRuntimeServicesTableLib.obj
 0001:0002a3b0       EfiGetSystemConfigurationTable 000000000003b3b0 f   UefiLib:UefiLib.obj
 0001:0002a4bc       GetVariable2               000000000003b4bc f   UefiLib:UefiLib.obj
 0001:0002a654       GetEfiGlobalVariable2      000000000003b654 f   UefiLib:UefiLib.obj
 0001:0002a688       GetBestLanguage            000000000003b688 f   UefiLib:UefiLib.obj
 0001:0002a930       EfiOpenFileByDevicePath    000000000003b930 f   UefiLib:UefiLib.obj
 0001:0002ac14       UefiHiiServicesLibConstructor 000000000003bc14 f   UefiHiiServicesLib:UefiHiiServicesLib.obj
 0001:0002ae1c       GetHobList                 000000000003be1c f   DxeHobLib:HobLib.obj
 0001:0002aef8       HobLibConstructor          000000000003bef8 f   DxeHobLib:HobLib.obj
 0001:0002af14       PerformQuickSort           000000000003bf14 f   UefiSortLib:UefiSortLib.obj
 0001:0002b004       DevicePathCompare          000000000003c004 f   UefiSortLib:UefiSortLib.obj
 0001:0002b1b0       StringNoCaseCompare        000000000003c1b0 f   UefiSortLib:UefiSortLib.obj
 0001:0002b284       StringCompare              000000000003c284 f   UefiSortLib:UefiSortLib.obj
 0001:0002b2ac       HiiAddPackages             000000000003c2ac f   UefiHiiLib:HiiLib.obj
 0001:0002b49c       HiiRemovePackages          000000000003c49c f   UefiHiiLib:HiiLib.obj
 0001:0002b568       HiiSetString               000000000003c568 f   UefiHiiLib:HiiString.obj
 0001:0002b7a4       HiiGetString               000000000003c7a4 f   UefiHiiLib:HiiString.obj
 0001:0002b7d4       HiiGetStringEx             000000000003c7d4 f   UefiHiiLib:HiiString.obj
 0001:0002bab8       HiiGetSupportedLanguages   000000000003cab8 f   UefiHiiLib:HiiLanguage.obj
 0001:0002bb98       FileHandleGetInfo          000000000003cb98 f   UefiFileHandleLib:UefiFileHandleLib.obj
 0001:0002bc54       FileHandleSetInfo          000000000003cc54 f   UefiFileHandleLib:UefiFileHandleLib.obj
 0001:0002bca4       FileHandleRead             000000000003cca4 f   UefiFileHandleLib:UefiFileHandleLib.obj
 0001:0002bce8       FileHandleWrite            000000000003cce8 f   UefiFileHandleLib:UefiFileHandleLib.obj
 0001:0002bd2c       FileHandleClose            000000000003cd2c f   UefiFileHandleLib:UefiFileHandleLib.obj
 0001:0002bd68       FileHandleDelete           000000000003cd68 f   UefiFileHandleLib:UefiFileHandleLib.obj
 0001:0002bda4       FileHandleSetPosition      000000000003cda4 f   UefiFileHandleLib:UefiFileHandleLib.obj
 0001:0002bde0       FileHandleGetPosition      000000000003cde0 f   UefiFileHandleLib:UefiFileHandleLib.obj
 0001:0002be24       FileHandleFlush            000000000003ce24 f   UefiFileHandleLib:UefiFileHandleLib.obj
 0001:0002be54       FileHandleIsDirectory      000000000003ce54 f   UefiFileHandleLib:UefiFileHandleLib.obj
 0001:0002bed0       FileHandleFindFirstFile    000000000003ced0 f   UefiFileHandleLib:UefiFileHandleLib.obj
 0001:0002c034       FileHandleFindNextFile     000000000003d034 f   UefiFileHandleLib:UefiFileHandleLib.obj
 0001:0002c0fc       FileHandleGetSize          000000000003d0fc f   UefiFileHandleLib:UefiFileHandleLib.obj
 0001:0002c16c       FileHandleSetSize          000000000003d16c f   UefiFileHandleLib:UefiFileHandleLib.obj
 0001:0002c1e8       StrnCatGrowLeft            000000000003d1e8 f   UefiFileHandleLib:UefiFileHandleLib.obj
 0001:0002c3dc       FileHandleGetFileName      000000000003d3dc f   UefiFileHandleLib:UefiFileHandleLib.obj
 0001:0002c7d0       DxeServicesTableLibConstructor 000000000003d7d0 f   DxeServicesTableLib:DxeServicesTableLib.obj
 0001:0002c8a8       FullyQualifyPath           000000000003d8a8 f   UefiShellLib:UefiShellLib.obj
 0001:0002cb38       ShellIsHexaDecimalDigitCharacter 000000000003db38 f   UefiShellLib:UefiShellLib.obj
 0001:0002cb90       ShellFindSE2               000000000003db90 f   UefiShellLib:UefiShellLib.obj
 0001:0002cdac       ShellLibConstructorWorker  000000000003ddac f   UefiShellLib:UefiShellLib.obj
 0001:0002d0f8       ShellLibConstructor        000000000003e0f8 f   UefiShellLib:UefiShellLib.obj
 0001:0002d16c       ShellLibDestructor         000000000003e16c f   UefiShellLib:UefiShellLib.obj
 0001:0002d2bc       ShellInitialize            000000000003e2bc f   UefiShellLib:UefiShellLib.obj
 0001:0002d374       ShellGetFileInfo           000000000003e374 f   UefiShellLib:UefiShellLib.obj
 0001:0002d390       ShellSetFileInfo           000000000003e390 f   UefiShellLib:UefiShellLib.obj
 0001:0002d3b4       ShellOpenFileByDevicePath  000000000003e3b4 f   UefiShellLib:UefiShellLib.obj
 0001:0002d490       ShellOpenFileByName        000000000003e490 f   UefiShellLib:UefiShellLib.obj
 0001:0002d7f4       ShellCreateDirectory       000000000003e7f4 f   UefiShellLib:UefiShellLib.obj
 0001:0002d850       ShellReadFile              000000000003e850 f   UefiShellLib:UefiShellLib.obj
 0001:0002d880       ShellWriteFile             000000000003e880 f   UefiShellLib:UefiShellLib.obj
 0001:0002d8b0       ShellCloseFile             000000000003e8b0 f   UefiShellLib:UefiShellLib.obj
 0001:0002d8cc       ShellDeleteFile            000000000003e8cc f   UefiShellLib:UefiShellLib.obj
 0001:0002d8e8       ShellSetFilePosition       000000000003e8e8 f   UefiShellLib:UefiShellLib.obj
 0001:0002d90c       ShellGetFilePosition       000000000003e90c f   UefiShellLib:UefiShellLib.obj
 0001:0002d930       ShellGetFileSize           000000000003e930 f   UefiShellLib:UefiShellLib.obj
 0001:0002d954       ShellGetExecutionBreakFlag 000000000003e954 f   UefiShellLib:UefiShellLib.obj
 0001:0002d9a8       ShellGetEnvironmentVariable 000000000003e9a8 f   UefiShellLib:UefiShellLib.obj
 0001:0002d9f0       ShellSetEnvironmentVariable 000000000003e9f0 f   UefiShellLib:UefiShellLib.obj
 0001:0002da38       ShellGetCurrentDir         000000000003ea38 f   UefiShellLib:UefiShellLib.obj
 0001:0002da80       ShellSetPageBreakMode      000000000003ea80 f   UefiShellLib:UefiShellLib.obj
 0001:0002db04       InternalShellConvertFileListType 000000000003eb04 f   UefiShellLib:UefiShellLib.obj
 0001:0002deb8       ShellOpenFileMetaArg       000000000003eeb8 f   UefiShellLib:UefiShellLib.obj
 0001:0002e1c0       ShellCloseFileMetaArg      000000000003f1c0 f   UefiShellLib:UefiShellLib.obj
 0001:0002e310       ShellFindFilePath          000000000003f310 f   UefiShellLib:UefiShellLib.obj
 0001:0002e794       ShellFindFilePathEx        000000000003f794 f   UefiShellLib:UefiShellLib.obj
 0001:0002e970       InternalIsOnCheckList      000000000003f970 f   UefiShellLib:UefiShellLib.obj
 0001:0002eb7c       InternalIsFlag             000000000003fb7c f   UefiShellLib:UefiShellLib.obj
 0001:0002ec70       InternalCommandLineParse   000000000003fc70 f   UefiShellLib:UefiShellLib.obj
 0001:0002f42c       ShellCommandLineParseEx    000000000004042c f   UefiShellLib:UefiShellLib.obj
 0001:0002f570       ShellCommandLineFreeVarList 0000000000040570 f   UefiShellLib:UefiShellLib.obj
 0001:0002f610       ShellCommandLineGetFlag    0000000000040610 f   UefiShellLib:UefiShellLib.obj
 0001:0002f758       ShellCommandLineGetValue   0000000000040758 f   UefiShellLib:UefiShellLib.obj
 0001:0002f8d0       ShellCommandLineGetRawValue 00000000000408d0 f   UefiShellLib:UefiShellLib.obj
 0001:0002f94c       ShellCommandLineGetCount   000000000004094c f   UefiShellLib:UefiShellLib.obj
 0001:0002f9cc       ShellCommandLineCheckDuplicate 00000000000409cc f   UefiShellLib:UefiShellLib.obj
 0001:0002fb10       ShellCopySearchAndReplace  0000000000040b10 f   UefiShellLib:UefiShellLib.obj
 0001:0002fd84       InternalPrintTo            0000000000040d84 f   UefiShellLib:UefiShellLib.obj
 0001:0002fe74       InternalShellPrintWorker   0000000000040e74 f   UefiShellLib:UefiShellLib.obj
 0001:00030640       ShellPrintEx               0000000000041640 f   UefiShellLib:UefiShellLib.obj
 0001:000306a4       ShellPrintHiiEx            00000000000416a4 f   UefiShellLib:UefiShellLib.obj
 0001:00030748       ShellIsDirectory           0000000000041748 f   UefiShellLib:UefiShellLib.obj
 0001:000308e8       ShellIsFile                00000000000418e8 f   UefiShellLib:UefiShellLib.obj
 0001:00030990       ShellIsFileInPath          0000000000041990 f   UefiShellLib:UefiShellLib.obj
 0001:000309f4       ShellStrToUintn            00000000000419f4 f   UefiShellLib:UefiShellLib.obj
 0001:00030a54       StrnCatGrow                0000000000041a54 f   UefiShellLib:UefiShellLib.obj
 0001:00030c70       ShellPromptForResponse     0000000000041c70 f   UefiShellLib:UefiShellLib.obj
 0001:00031558       ShellPromptForResponseHii  0000000000042558 f   UefiShellLib:UefiShellLib.obj
 0001:000315b4       InternalShellIsHexOrDecimalNumber 00000000000425b4 f   UefiShellLib:UefiShellLib.obj
 0001:00031720       ShellFileExists            0000000000042720 f   UefiShellLib:UefiShellLib.obj
 0001:000317a0       InternalShellStrHexToUint64 00000000000427a0 f   UefiShellLib:UefiShellLib.obj
 0001:00031948       InternalShellStrDecimalToUint64 0000000000042948 f   UefiShellLib:UefiShellLib.obj
 0001:00031abc       ShellConvertStringToUint64 0000000000042abc f   UefiShellLib:UefiShellLib.obj
 0001:00031c74       ShellIsHexOrDecimalNumber  0000000000042c74 f   UefiShellLib:UefiShellLib.obj
 0001:00031cb8       ShellFileHandleReturnLine  0000000000042cb8 f   UefiShellLib:UefiShellLib.obj
 0001:00031dac       ShellFileHandleReadLine    0000000000042dac f   UefiShellLib:UefiShellLib.obj
 0001:00032120       ShellPrintHelp             0000000000043120 f   UefiShellLib:UefiShellLib.obj
 0001:00032268       ShellDeleteFileByName      0000000000043268 f   UefiShellLib:UefiShellLib.obj
 0001:000322cc       InternalShellStripQuotes   00000000000432cc f   UefiShellLib:UefiShellLib.obj
 0001:000322cc       ShellLevel2StripQuotes     00000000000432cc f   UefiShellLevel2CommandsLib:UefiShellLevel2CommandsLib.obj
 0001:000323a0       FindLoadedImageFileName    00000000000433a0 f   UefiHandleParsingLib:UefiHandleParsingLib.obj
 0001:00032480       ConvertMemoryType          0000000000043480 f   UefiHandleParsingLib:UefiHandleParsingLib.obj
 0001:00032714       ConvertPixelFormat         0000000000043714 f   UefiHandleParsingLib:UefiHandleParsingLib.obj
 0001:00032808       HandleParsingLibConstructor 0000000000043808 f   UefiHandleParsingLib:UefiHandleParsingLib.obj
 0001:0003282c       HandleParsingHiiInit       000000000004382c f   UefiHandleParsingLib:UefiHandleParsingLib.obj
 0001:00032898       HandleParsingLibDestructor 0000000000043898 f   UefiHandleParsingLib:UefiHandleParsingLib.obj
 0001:00032964       LoadedImageProtocolDumpInformation 0000000000043964 f   UefiHandleParsingLib:UefiHandleParsingLib.obj
 0001:00032d24       GraphicsOutputProtocolDumpInformation 0000000000043d24 f   UefiHandleParsingLib:UefiHandleParsingLib.obj
 0001:000332cc       EdidDiscoveredProtocolDumpInformation 00000000000442cc f   UefiHandleParsingLib:UefiHandleParsingLib.obj
 0001:00033474       EdidActiveProtocolDumpInformation 0000000000044474 f   UefiHandleParsingLib:UefiHandleParsingLib.obj
 0001:0003361c       PciRootBridgeIoDumpInformation 000000000004461c f   UefiHandleParsingLib:UefiHandleParsingLib.obj
 0001:00033ae0       TxtOutProtocolDumpInformation 0000000000044ae0 f   UefiHandleParsingLib:UefiHandleParsingLib.obj
 0001:00033e30       DriverEfiVersionProtocolDumpInformation 0000000000044e30 f   UefiHandleParsingLib:UefiHandleParsingLib.obj
 0001:00033f18       ConvertDevicePathToShortText 0000000000044f18 f   UefiHandleParsingLib:UefiHandleParsingLib.obj
 0001:00034150       DevicePathProtocolDumpInformation 0000000000045150 f   UefiHandleParsingLib:UefiHandleParsingLib.obj
 0001:00034178       LoadedImageDevicePathProtocolDumpInformation 0000000000045178 f   UefiHandleParsingLib:UefiHandleParsingLib.obj
 0001:000341a0       BusSpecificDriverOverrideProtocolDumpInformation 00000000000451a0 f   UefiHandleParsingLib:UefiHandleParsingLib.obj
 0001:0003436c       BlockIoProtocolDumpInformation 000000000004536c f   UefiHandleParsingLib:UefiHandleParsingLib.obj
 0001:000345f8       DebugSupportProtocolDumpInformation 00000000000455f8 f   UefiHandleParsingLib:UefiHandleParsingLib.obj
 0001:000347c4       PciIoProtocolDumpInformation 00000000000457c4 f   UefiHandleParsingLib:UefiHandleParsingLib.obj
 0001:00034a88       UsbIoProtocolDumpInformation 0000000000045a88 f   UefiHandleParsingLib:UefiHandleParsingLib.obj
 0001:00034b80       AdapterInformationDumpInformation 0000000000045b80 f   UefiHandleParsingLib:UefiHandleParsingLib.obj
 0001:00035674       FirmwareManagementDumpInformation 0000000000046674 f   UefiHandleParsingLib:UefiHandleParsingLib.obj
 0001:00036b04       PartitionInfoProtocolDumpInformation 0000000000047b04 f   UefiHandleParsingLib:UefiHandleParsingLib.obj
 0001:00036cd0       InternalShellGetNodeFromGuid 0000000000047cd0 f   UefiHandleParsingLib:UefiHandleParsingLib.obj
 0001:00036e34       InsertNewGuidNameMapping   0000000000047e34 f   UefiHandleParsingLib:UefiHandleParsingLib.obj
 0001:00036fa4       AddNewGuidNameMapping      0000000000047fa4 f   UefiHandleParsingLib:UefiHandleParsingLib.obj
 0001:0003703c       GetStringNameFromGuid      000000000004803c f   UefiHandleParsingLib:UefiHandleParsingLib.obj
 0001:00037088       GetProtocolInformationDump 0000000000048088 f   UefiHandleParsingLib:UefiHandleParsingLib.obj
 0001:00037150       GetGuidFromStringName      0000000000048150 f   UefiHandleParsingLib:UefiHandleParsingLib.obj
 0001:0003743c       GetBestLanguageForDriver   000000000004843c f   UefiHandleParsingLib:UefiHandleParsingLib.obj
 0001:00037520       GetStringNameFromHandle    0000000000048520 f   UefiHandleParsingLib:UefiHandleParsingLib.obj
 0001:00037680       InternalShellInitHandleList 0000000000048680 f   UefiHandleParsingLib:UefiHandleParsingLib.obj
 0001:000377ec       ConvertHandleToHandleIndex 00000000000487ec f   UefiHandleParsingLib:UefiHandleParsingLib.obj
 0001:00037960       ConvertHandleIndexToHandle 0000000000048960 f   UefiHandleParsingLib:UefiHandleParsingLib.obj
 0001:00037a44       ParseHandleDatabaseByRelationshipWithType 0000000000048a44 f   UefiHandleParsingLib:UefiHandleParsingLib.obj
 0001:000387c0       ParseHandleDatabaseByRelationship 00000000000497c0 f   UefiHandleParsingLib:UefiHandleParsingLib.obj
 0001:00038b48       ParseHandleDatabaseForChildControllers 0000000000049b48 f   UefiHandleParsingLib:UefiHandleParsingLib.obj
 0001:00038df4       BuffernCatGrow             0000000000049df4 f   UefiHandleParsingLib:UefiHandleParsingLib.obj
 0001:00038f3c       ParseHandleDatabaseForChildDevices 0000000000049f3c f   UefiHandleParsingLib:UefiHandleParsingLib.obj
 0001:000390d4       GetHandleListByProtocol    000000000004a0d4 f   UefiHandleParsingLib:UefiHandleParsingLib.obj
 0001:00039278       GetHandleListByProtocolList 000000000004a278 f   UefiHandleParsingLib:UefiHandleParsingLib.obj
 0001:00039524       GetAllMappingGuids         000000000004a524 f   UefiHandleParsingLib:UefiHandleParsingLib.obj
 0001:000396ec       CommandInit                000000000004a6ec f   UefiShellCommandLib:UefiShellCommandLib.obj
 0001:00039888       ShellCommandLibConstructor 000000000004a888 f   UefiShellCommandLib:UefiShellCommandLib.obj
 0001:00039924       FreeFileHandleList         000000000004a924 f   UefiShellCommandLib:UefiShellCommandLib.obj
 0001:00039a4c       ShellCommandLibDestructor  000000000004aa4c f   UefiShellCommandLib:UefiShellCommandLib.obj
 0001:00039d98       ShellCommandFindDynamicCommand 000000000004ad98 f   UefiShellCommandLib:UefiShellCommandLib.obj
 0001:00039e5c       ShellCommandDynamicCommandExists 000000000004ae5c f   UefiShellCommandLib:UefiShellCommandLib.obj
 0001:00039e8c       ShellCommandIsCommandOnInternalList 000000000004ae8c f   UefiShellCommandLib:UefiShellCommandLib.obj
 0001:00039f78       ShellCommandIsCommandOnList 000000000004af78 f   UefiShellCommandLib:UefiShellCommandLib.obj
 0001:00039fa8       ShellCommandGetDynamicCommandHelp 000000000004afa8 f   UefiShellCommandLib:UefiShellCommandLib.obj
 0001:00039fe8       ShellCommandGetInternalCommandHelp 000000000004afe8 f   UefiShellCommandLib:UefiShellCommandLib.obj
 0001:0003a0ec       ShellCommandGetCommandHelp 000000000004b0ec f   UefiShellCommandLib:UefiShellCommandLib.obj
 0001:0003a128       ShellCommandRegisterCommandName 000000000004b128 f   UefiShellCommandLib:UefiShellCommandLib.obj
 0001:0003a4c8       ShellCommandGetProfileList 000000000004b4c8 f   UefiShellCommandLib:UefiShellCommandLib.obj
 0001:0003a4d0       ShellCommandRunCommandHandler 000000000004b4d0 f   UefiShellCommandLib:UefiShellCommandLib.obj
 0001:0003a68c       ShellCommandGetManFileNameHandler 000000000004b68c f   UefiShellCommandLib:UefiShellCommandLib.obj
 0001:0003a780       ShellCommandGetCommandList 000000000004b780 f   UefiShellCommandLib:UefiShellCommandLib.obj
 0001:0003a78c       ShellCommandRegisterAlias  000000000004b78c f   UefiShellCommandLib:UefiShellCommandLib.obj
 0001:0003a988       ShellCommandGetInitAliasList 000000000004b988 f   UefiShellCommandLib:UefiShellCommandLib.obj
 0001:0003a990       ShellCommandIsOnAliasList  000000000004b990 f   UefiShellCommandLib:UefiShellCommandLib.obj
 0001:0003aadc       ShellCommandGetEchoState   000000000004badc f   UefiShellCommandLib:UefiShellCommandLib.obj
 0001:0003aae4       ShellCommandSetEchoState   000000000004bae4 f   UefiShellCommandLib:UefiShellCommandLib.obj
 0001:0003aaf4       ShellCommandRegisterExit   000000000004baf4 f   UefiShellCommandLib:UefiShellCommandLib.obj
 0001:0003ab50       ShellCommandGetExit        000000000004bb50 f   UefiShellCommandLib:UefiShellCommandLib.obj
 0001:0003ab58       ShellCommandGetExitCode    000000000004bb58 f   UefiShellCommandLib:UefiShellCommandLib.obj
 0001:0003ab60       ShellCommandGetScriptExit  000000000004bb60 f   UefiShellCommandLib:UefiShellCommandLib.obj
 0001:0003ab68       DeleteScriptFileStruct     000000000004bb68 f   UefiShellCommandLib:UefiShellCommandLib.obj
 0001:0003ad9c       ShellCommandGetCurrentScriptFile 000000000004bd9c f   UefiShellCommandLib:UefiShellCommandLib.obj
 0001:0003add8       ShellCommandSetNewScript   000000000004bdd8 f   UefiShellCommandLib:UefiShellCommandLib.obj
 0001:0003ae80       ShellCommandCreateNewMappingName 000000000004be80 f   UefiShellCommandLib:UefiShellCommandLib.obj
 0001:0003af68       ShellCommandAddMapItemAndUpdatePath 000000000004bf68 f   UefiShellCommandLib:UefiShellCommandLib.obj
 0001:0003b270       ShellCommandCreateInitialMappingsAndPaths 000000000004c270 f   UefiShellCommandLib:UefiShellCommandLib.obj
 0001:0003ba94       ShellCommandUpdateMapping  000000000004ca94 f   UefiShellCommandLib:UefiShellCommandLib.obj
 0001:0003bd10       ConvertShellHandleToEfiFileProtocol 000000000004cd10 f   UefiShellCommandLib:UefiShellCommandLib.obj
 0001:0003bd1c       ConvertEfiFileProtocolToShellHandle 000000000004cd1c f   UefiShellCommandLib:UefiShellCommandLib.obj
 0001:0003be44       ShellFileHandleGetPath     000000000004ce44 f   UefiShellCommandLib:UefiShellCommandLib.obj
 0001:0003becc       ShellFileHandleRemove      000000000004cecc f   UefiShellCommandLib:UefiShellCommandLib.obj
 0001:0003bfec       ShellFileHandleEof         000000000004cfec f   UefiShellCommandLib:UefiShellCommandLib.obj
 0001:0003c0a8       FreeBufferList             000000000004d0a8 f   UefiShellCommandLib:UefiShellCommandLib.obj
 0001:0003c130       DumpHex                    000000000004d130 f   UefiShellCommandLib:UefiShellCommandLib.obj
 0001:0003c330       CatSDumpHex                000000000004d330 f   UefiShellCommandLib:UefiShellCommandLib.obj
 0001:0003c5f4       ShellSortFileList          000000000004d5f4 f   UefiShellCommandLib:UefiShellCommandLib.obj
 0001:0003cafc       CatPrint                   000000000004dafc f   UefiShellCommandLib:ConsistMapping.obj
 0001:0003cc54       AppendCSDNum2              000000000004dc54 f   UefiShellCommandLib:ConsistMapping.obj
 0001:0003ccf8       AppendCSDNum               000000000004dcf8 f   UefiShellCommandLib:ConsistMapping.obj
 0001:0003cdbc       AppendCSDStr               000000000004ddbc f   UefiShellCommandLib:ConsistMapping.obj
 0001:0003d138       AppendCSDGuid              000000000004e138 f   UefiShellCommandLib:ConsistMapping.obj
 0001:0003d1c0       DevPathCompareAcpi         000000000004e1c0 f   UefiShellCommandLib:ConsistMapping.obj
 0001:0003d268       DevPathComparePci          000000000004e268 f   UefiShellCommandLib:ConsistMapping.obj
 0001:0003d374       DevPathCompareDefault      000000000004e374 f   UefiShellCommandLib:ConsistMapping.obj
 0001:0003d44c       DevPathSerialHardDrive     000000000004e44c f   UefiShellCommandLib:ConsistMapping.obj
 0001:0003d500       DevPathSerialAtapi         000000000004e500 f   UefiShellCommandLib:ConsistMapping.obj
 0001:0003d5ac       DevPathSerialCdRom         000000000004e5ac f   UefiShellCommandLib:ConsistMapping.obj
 0001:0003d654       DevPathSerialFibre         000000000004e654 f   UefiShellCommandLib:ConsistMapping.obj
 0001:0003d718       DevPathSerialUart          000000000004e718 f   UefiShellCommandLib:ConsistMapping.obj
 0001:0003d824       DevPathSerialUsb           000000000004e824 f   UefiShellCommandLib:ConsistMapping.obj
 0001:0003da5c       DevPathSerialVendor        000000000004ea5c f   UefiShellCommandLib:ConsistMapping.obj
 0001:0003dce0       DevPathSerialLun           000000000004ece0 f   UefiShellCommandLib:ConsistMapping.obj
 0001:0003dd7c       DevPathSerialSata          000000000004ed7c f   UefiShellCommandLib:ConsistMapping.obj
 0001:0003de68       DevPathSerialIScsi         000000000004ee68 f   UefiShellCommandLib:ConsistMapping.obj
 0001:0003e060       DevPathSerialI2O           000000000004f060 f   UefiShellCommandLib:ConsistMapping.obj
 0001:0003e0fc       DevPathSerialMacAddr       000000000004f0fc f   UefiShellCommandLib:ConsistMapping.obj
 0001:0003e238       DevPathSerialInfiniBand    000000000004f238 f   UefiShellCommandLib:ConsistMapping.obj
 0001:0003e3b8       DevPathSerialIPv4          000000000004f3b8 f   UefiShellCommandLib:ConsistMapping.obj
 0001:0003e5b8       DevPathSerialIPv6          000000000004f5b8 f   UefiShellCommandLib:ConsistMapping.obj
 0001:0003e79c       DevPathSerialScsi          000000000004f79c f   UefiShellCommandLib:ConsistMapping.obj
 0001:0003e864       DevPathSerial1394          000000000004f864 f   UefiShellCommandLib:ConsistMapping.obj
 0001:0003e918       DevPathSerialAcpi          000000000004f918 f   UefiShellCommandLib:ConsistMapping.obj
 0001:0003e9e8       IsHIDevicePathNode         000000000004f9e8 f   UefiShellCommandLib:ConsistMapping.obj
 0001:0003ea94       GetHIDevicePath            000000000004fa94 f   UefiShellCommandLib:ConsistMapping.obj
 0001:0003ebf8       GetDeviceConsistMappingInfo 000000000004fbf8 f   UefiShellCommandLib:ConsistMapping.obj
 0001:0003edb0       ShellCommandConsistMappingInitialize 000000000004fdb0 f   UefiShellCommandLib:ConsistMapping.obj
 0001:0003f064       ShellCommandConsistMappingUnInitialize 0000000000050064 f   UefiShellCommandLib:ConsistMapping.obj
 0001:0003f0f0       ShellCommandConsistMappingGenMappingName 00000000000500f0 f   UefiShellCommandLib:ConsistMapping.obj
 0001:0003f388       ShellCommandFindMapItem    0000000000050388 f   UefiShellCommandLib:ConsistMapping.obj
 0001:0003f40c       ShellCommandGetManFileNameLevel2 000000000005040c f   UefiShellLevel2CommandsLib:UefiShellLevel2CommandsLib.obj
 0001:0003f414       ShellLevel2CommandsLibConstructor 0000000000050414 f   UefiShellLevel2CommandsLib:UefiShellLevel2CommandsLib.obj
 0001:0003fa88       ShellLevel2CommandsLibDestructor 0000000000050a88 f   UefiShellLevel2CommandsLib:UefiShellLevel2CommandsLib.obj
 0001:0003fab4       GetFullyQualifiedPath      0000000000050ab4 f   UefiShellLevel2CommandsLib:UefiShellLevel2CommandsLib.obj
 0001:0003fbec       VerifyIntermediateDirectories 0000000000050bec f   UefiShellLevel2CommandsLib:UefiShellLevel2CommandsLib.obj
 0001:0003fd80       StrniCmp                   0000000000050d80 f   UefiShellLevel2CommandsLib:UefiShellLevel2CommandsLib.obj
 0001:0003feec       ShellCommandRunReset       0000000000050eec f   UefiShellLevel2CommandsLib:Reset.obj
 0001:000404a8       ConnectAllEfi              00000000000514a8 f   UefiShellLevel2CommandsLib:Load.obj
 0001:0004054c       LoadDriver                 000000000005154c f   UefiShellLevel2CommandsLib:Load.obj
 0001:000408e0       ShellCommandRunLoad        00000000000518e0 f   UefiShellLevel2CommandsLib:Load.obj
 0001:00040cc0       InternalIsTimeLikeString   0000000000051cc0 f   UefiShellLevel2CommandsLib:TimeDate.obj
 0001:00040da8       CheckAndSetDate            0000000000051da8 f   UefiShellLevel2CommandsLib:TimeDate.obj
 0001:00041080       ShellCommandRunDate        0000000000052080 f   UefiShellLevel2CommandsLib:TimeDate.obj
 0001:000414b4       CheckAndSetTime            00000000000524b4 f   UefiShellLevel2CommandsLib:TimeDate.obj
 0001:000417ec       ShellCommandRunTime        00000000000527ec f   UefiShellLevel2CommandsLib:TimeDate.obj
 0001:00042308       CheckAndSetTimeZone        0000000000053308 f   UefiShellLevel2CommandsLib:TimeDate.obj
 0001:00042658       ShellCommandRunTimeZone    0000000000053658 f   UefiShellLevel2CommandsLib:TimeDate.obj
 0001:00042e8c       IsStdInDataAvailable       0000000000053e8c f   UefiShellLevel2CommandsLib:Parse.obj
 0001:00042f4c       HandleStringWithEscapeCharForParse 0000000000053f4c f   UefiShellLevel2CommandsLib:Parse.obj
 0001:00043030       PerformParsing             0000000000054030 f   UefiShellLevel2CommandsLib:Parse.obj
 0001:0004355c       ShellCommandRunParse       000000000005455c f   UefiShellLevel2CommandsLib:Parse.obj
 0001:000438f8       ReplaceDriveWithCwd        00000000000548f8 f   UefiShellLevel2CommandsLib:Cd.obj
 0001:00043aa8       IsCurrentFileSystem        0000000000054aa8 f   UefiShellLevel2CommandsLib:Cd.obj
 0001:00043b9c       ExtractDriveAndPath        0000000000054b9c f   UefiShellLevel2CommandsLib:Cd.obj
 0001:00043d68       ShellCommandRunCd          0000000000054d68 f   UefiShellLevel2CommandsLib:Cd.obj
 0001:00044578       ShellCommandRunAttrib      0000000000055578 f   UefiShellLevel2CommandsLib:Attrib.obj
 0001:00045098       PrintSfoVolumeInfoTableEntry 0000000000056098 f   UefiShellLevel2CommandsLib:Ls.obj
 0001:0004550c       PrintFileInformation       000000000005650c f   UefiShellLevel2CommandsLib:Ls.obj
 0001:00045c68       PrintNonSfoHeader          0000000000056c68 f   UefiShellLevel2CommandsLib:Ls.obj
 0001:00045ce8       PrintNonSfoFooter          0000000000056ce8 f   UefiShellLevel2CommandsLib:Ls.obj
 0001:00045d44       FileTimeToLocalTime        0000000000056d44 f   UefiShellLevel2CommandsLib:Ls.obj
 0001:000460d4       PrintLsOutput              00000000000570d4 f   UefiShellLevel2CommandsLib:Ls.obj
 0001:00046944       ShellCommandRunLs          0000000000057944 f   UefiShellLevel2CommandsLib:Ls.obj
 0001:00047450       IsNumberLetterOnly         0000000000058450 f   UefiShellLevel2CommandsLib:Map.obj
 0001:00047500       SearchList                 0000000000058500 f   UefiShellLevel2CommandsLib:Map.obj
 0001:000476f4       GetDeviceMediaType         00000000000586f4 f   UefiShellLevel2CommandsLib:Map.obj
 0001:00047800       IsRemoveableDevice         0000000000058800 f   UefiShellLevel2CommandsLib:Map.obj
 0001:00047878       MappingListHasType         0000000000058878 f   UefiShellLevel2CommandsLib:Map.obj
 0001:00047b28       PerformSingleMappingDisplay 0000000000058b28 f   UefiShellLevel2CommandsLib:Map.obj
 0001:000481e4       PerformSingleMappingDelete 00000000000591e4 f   UefiShellLevel2CommandsLib:Map.obj
 0001:00048290       PerformMappingDisplay      0000000000059290 f   UefiShellLevel2CommandsLib:Map.obj
 0001:00048848       PerformMappingDisplay2     0000000000059848 f   UefiShellLevel2CommandsLib:Map.obj
 0001:00048aa4       PerformMappingDelete       0000000000059aa4 f   UefiShellLevel2CommandsLib:Map.obj
 0001:00048db8       AddMappingFromMapping      0000000000059db8 f   UefiShellLevel2CommandsLib:Map.obj
 0001:00048f20       AddMappingFromHandle       0000000000059f20 f   UefiShellLevel2CommandsLib:Map.obj
 0001:000490b4       ProbeForMediaChange        000000000005a0b4 f   UefiShellLevel2CommandsLib:Map.obj
 0001:00049180       ShellCommandRunMap         000000000005a180 f   UefiShellLevel2CommandsLib:Map.obj
 0001:00049c4c       CopySingleFile             000000000005ac4c f   UefiShellLevel2CommandsLib:Cp.obj
 0001:0004a3c4       ValidateAndCopyFiles       000000000005b3c4 f   UefiShellLevel2CommandsLib:Cp.obj
 0001:0004b2c8       ProcessValidateAndCopyFiles 000000000005c2c8 f   UefiShellLevel2CommandsLib:Cp.obj
 0001:0004b568       ShellCommandRunCp          000000000005c568 f   UefiShellLevel2CommandsLib:Cp.obj
 0001:0004bc50       HandleVol                  000000000005cc50 f   UefiShellLevel2CommandsLib:Vol.obj
 0001:0004c3a4       ShellCommandRunVol         000000000005d3a4 f   UefiShellLevel2CommandsLib:Vol.obj
 0001:0004c924       IsDirectoryEmpty           000000000005d924 f   UefiShellLevel2CommandsLib:Rm.obj
 0001:0004c9d8       CascadeDelete              000000000005d9d8 f   UefiShellLevel2CommandsLib:Rm.obj
 0001:0004cf80       IsValidDeleteTarget        000000000005df80 f   UefiShellLevel2CommandsLib:Rm.obj
 0001:0004d154       ShellCommandRunRm          000000000005e154 f   UefiShellLevel2CommandsLib:Rm.obj
 0001:0004d5d0       PrintAllShellEnvVars       000000000005e5d0 f   UefiShellLevel2CommandsLib:Set.obj
 0001:0004d66c       ShellCommandRunSet         000000000005e66c f   UefiShellLevel2CommandsLib:Set.obj
 0001:0004dc28       ShellCommandRunMkDir       000000000005ec28 f   UefiShellLevel2CommandsLib:MkDir.obj
 0001:0004e0cc       IsBetweenFileSystem        000000000005f0cc f   UefiShellLevel2CommandsLib:Mv.obj
 0001:0004e1bc       IsSoucePathValid           000000000005f1bc f   UefiShellLevel2CommandsLib:Mv.obj
 0001:0004e360       IsValidMove                000000000005f360 f   UefiShellLevel2CommandsLib:Mv.obj
 0001:0004e5a8       GetDestinationLocation     000000000005f5a8 f   UefiShellLevel2CommandsLib:Mv.obj
 0001:0004eb10       MoveBetweenFileSystems     000000000005fb10 f   UefiShellLevel2CommandsLib:Mv.obj
 0001:0004ebc4       CreateFullDestPath         000000000005fbc4 f   UefiShellLevel2CommandsLib:Mv.obj
 0001:0004ed10       MoveWithinFileSystems      000000000005fd10 f   UefiShellLevel2CommandsLib:Mv.obj
 0001:0004ef78       ValidateAndMoveFiles       000000000005ff78 f   UefiShellLevel2CommandsLib:Mv.obj
 0001:0004f9a0       ShellCommandRunMv          00000000000609a0 f   UefiShellLevel2CommandsLib:Mv.obj
 0001:0005001c       ShellCommandGetManFileNameLevel1 000000000006101c f   UefiShellLevel1CommandsLib:UefiShellLevel1CommandsLib.obj
 0001:00050024       ShellLevel1CommandsLibConstructor 0000000000061024 f   UefiShellLevel1CommandsLib:UefiShellLevel1CommandsLib.obj
 0001:00050418       ShellLevel1CommandsLibDestructor 0000000000061418 f   UefiShellLevel1CommandsLib:UefiShellLevel1CommandsLib.obj
 0001:00050444       TestNodeForMove            0000000000061444 f   UefiShellLevel1CommandsLib:UefiShellLevel1CommandsLib.obj
 0001:00050680       MoveToTag                  0000000000061680 f   UefiShellLevel1CommandsLib:UefiShellLevel1CommandsLib.obj
 0001:0005088c       IsNextFragment             000000000006188c f   UefiShellLevel1CommandsLib:If.obj
 0001:0005098c       IsValidProfile             000000000006198c f   UefiShellLevel1CommandsLib:If.obj
 0001:00050a28       TestOperation              0000000000061a28 f   UefiShellLevel1CommandsLib:If.obj
 0001:000511f0       ProcessStatement           00000000000621f0 f   UefiShellLevel1CommandsLib:If.obj
 0001:000527a4       BuildNextStatement         00000000000637a4 f   UefiShellLevel1CommandsLib:If.obj
 0001:000528f0       MoveToTagSpecial           00000000000638f0 f   UefiShellLevel1CommandsLib:If.obj
 0001:00052b18       PerformResultOperation     0000000000063b18 f   UefiShellLevel1CommandsLib:If.obj
 0001:00052b50       ShellCommandRunIf          0000000000063b50 f   UefiShellLevel1CommandsLib:If.obj
 0001:00053244       ShellCommandRunElse        0000000000064244 f   UefiShellLevel1CommandsLib:If.obj
 0001:000535b4       ShellCommandRunEndIf       00000000000645b4 f   UefiShellLevel1CommandsLib:If.obj
 0001:000537a0       ShellCommandRunStall       00000000000647a0 f   UefiShellLevel1CommandsLib:Stall.obj
 0001:00053b10       ShellIsValidForNumber      0000000000064b10 f   UefiShellLevel1CommandsLib:For.obj
 0001:00053be0       ShellCommandRunEndFor      0000000000064be0 f   UefiShellLevel1CommandsLib:For.obj
 0001:00053dd8       InternalUpdateAliasOnList  0000000000064dd8 f   UefiShellLevel1CommandsLib:For.obj
 0001:00054038       InternalIsAliasOnList      0000000000065038 f   UefiShellLevel1CommandsLib:For.obj
 0001:00054154       InternalRemoveAliasFromList 0000000000065154 f   UefiShellLevel1CommandsLib:For.obj
 0001:000542a0       ReturnUintn                00000000000652a0 f   UefiShellLevel1CommandsLib:For.obj
 0001:000542d8       ShellCommandRunFor         00000000000652d8 f   UefiShellLevel1CommandsLib:For.obj
 0001:00055b18       ShellCommandRunShift       0000000000066b18 f   UefiShellLevel1CommandsLib:Shift.obj
 0001:00055d60       ShellCommandRunGoto        0000000000066d60 f   UefiShellLevel1CommandsLib:Goto.obj
 0001:000561b0       ShellCommandRunExit        00000000000671b0 f   UefiShellLevel1CommandsLib:Exit.obj
 0001:000564bc       ShellCommandGetManFileNameLevel3 00000000000674bc f   UefiShellLevel3CommandsLib:UefiShellLevel3CommandsLib.obj
 0001:000564c4       ShellLevel3CommandsLibConstructor 00000000000674c4 f   UefiShellLevel3CommandsLib:UefiShellLevel3CommandsLib.obj
 0001:000567ac       ShellLevel3CommandsLibDestructor 00000000000677ac f   UefiShellLevel3CommandsLib:UefiShellLevel3CommandsLib.obj
 0001:000567d8       LexicalInsertIntoList      00000000000677d8 f   UefiShellLevel3CommandsLib:Help.obj
 0001:0005699c       CopyListOfCommandNames     000000000006799c f   UefiShellLevel3CommandsLib:Help.obj
 0001:00056b10       PrintDynamicCommandHelp    0000000000067b10 f   UefiShellLevel3CommandsLib:Help.obj
 0001:00056d38       ShellCommandRunHelp        0000000000067d38 f   UefiShellLevel3CommandsLib:Help.obj
 0001:000575f0       TypeFileByHandle           00000000000685f0 f   UefiShellLevel3CommandsLib:Type.obj
 0001:000579ac       ShellCommandRunType        00000000000689ac f   UefiShellLevel3CommandsLib:Type.obj
 0001:00058074       ShellCommandRunEcho        0000000000069074 f   UefiShellLevel3CommandsLib:Echo.obj
 0001:000583c8       ShellCommandRunPause       00000000000693c8 f   UefiShellLevel3CommandsLib:Pause.obj
 0001:00058740       TouchFileByHandle          0000000000069740 f   UefiShellLevel3CommandsLib:Touch.obj
 0001:00058838       DoTouchByHandle            0000000000069838 f   UefiShellLevel3CommandsLib:Touch.obj
 0001:00058b28       ShellCommandRunTouch       0000000000069b28 f   UefiShellLevel3CommandsLib:Touch.obj
 0001:000590f8       ShellCommandRunGetMtc      000000000006a0f8 f   UefiShellLevel3CommandsLib:GetMtc.obj
 0001:000593a4       ShellCommandRunVer         000000000006a3a4 f   UefiShellLevel3CommandsLib:Ver.obj
 0001:000598a0       PrintSingleShellAlias      000000000006a8a0 f   UefiShellLevel3CommandsLib:Alias.obj
 0001:000599ac       PrintAllShellAlias         000000000006a9ac f   UefiShellLevel3CommandsLib:Alias.obj
 0001:00059aa0       ShellLevel3CommandsLibSetAlias 000000000006aaa0 f   UefiShellLevel3CommandsLib:Alias.obj
 0001:00059be0       ShellCommandRunAlias       000000000006abe0 f   UefiShellLevel3CommandsLib:Alias.obj
 0001:0005a1c8       ShellCommandRunCls         000000000006b1c8 f   UefiShellLevel3CommandsLib:Cls.obj
 0001:0005aa58       ShellCommandGetManFileNameDriver1 000000000006ba58 f   UefiShellDriver1CommandsLib:UefiShellDriver1CommandsLib.obj
 0001:0005aa60       UefiShellDriver1CommandsLibConstructor 000000000006ba60 f   UefiShellDriver1CommandsLib:UefiShellDriver1CommandsLib.obj
 0001:0005ad94       UefiShellDriver1CommandsLibDestructor 000000000006bd94 f   UefiShellDriver1CommandsLib:UefiShellDriver1CommandsLib.obj
 0001:0005adc0       ShellConnectDevicePath     000000000006bdc0 f   UefiShellDriver1CommandsLib:Connect.obj
 0001:0005ae98       ShellConnectPciRootBridge  000000000006be98 f   UefiShellDriver1CommandsLib:Connect.obj
 0001:0005af40       ConnectControllers         000000000006bf40 f   UefiShellDriver1CommandsLib:Connect.obj
 0001:0005b1c8       ShellConnectFromDevPaths   000000000006c1c8 f   UefiShellDriver1CommandsLib:Connect.obj
 0001:0005b570       ConvertAndConnectControllers 000000000006c570 f   UefiShellDriver1CommandsLib:Connect.obj
 0001:0005b694       ShellCommandRunConnect     000000000006c694 f   UefiShellDriver1CommandsLib:Connect.obj
 0001:0005bdb0       GetDeviceHandleInfo        000000000006cdb0 f   UefiShellDriver1CommandsLib:Devices.obj
 0001:0005c0e0       ShellCommandRunDevices     000000000006d0e0 f   UefiShellDriver1CommandsLib:Devices.obj
 0001:0005c890       DumpLoadedImageProtocolInfo 000000000006d890 f   UefiShellDriver1CommandsLib:Unload.obj
 0001:0005c8f8       ShellCommandRunUnload      000000000006d8f8 f   UefiShellDriver1CommandsLib:Unload.obj
 0001:0005cd98       ConnectAllConsoles         000000000006dd98 f   UefiShellDriver1CommandsLib:Reconnect.obj
 0001:0005cdec       ShellCommandRunReconnect   000000000006ddec f   UefiShellDriver1CommandsLib:Reconnect.obj
 0001:0005d024       TraverseHandleDatabase     000000000006e024 f   UefiShellDriver1CommandsLib:OpenInfo.obj
 0001:0005d460       ShellCommandRunOpenInfo    000000000006e460 f   UefiShellDriver1CommandsLib:OpenInfo.obj
 0001:0005d848       GetDevicePathTextForHandle 000000000006e848 f   UefiShellDriver1CommandsLib:Drivers.obj
 0001:0005d99c       ReturnDriverConfig         000000000006e99c f   UefiShellDriver1CommandsLib:Drivers.obj
 0001:0005d9f4       ReturnDriverDiag           000000000006e9f4 f   UefiShellDriver1CommandsLib:Drivers.obj
 0001:0005da8c       ReturnDriverVersion        000000000006ea8c f   UefiShellDriver1CommandsLib:Drivers.obj
 0001:0005db18       GetImageNameFromHandle     000000000006eb18 f   UefiShellDriver1CommandsLib:Drivers.obj
 0001:0005dce4       ShellCommandRunDrivers     000000000006ece4 f   UefiShellDriver1CommandsLib:Drivers.obj
 0001:0005e688       DoDiagnostics              000000000006f688 f   UefiShellDriver1CommandsLib:DrvDiag.obj
 0001:0005f1d0       ShellCommandRunDrvDiag     00000000000701d0 f   UefiShellDriver1CommandsLib:DrvDiag.obj
 0001:0005f894       IsValidGuidString          0000000000070894 f   UefiShellDriver1CommandsLib:Dh.obj
 0001:0005f9d4       HexCharToDecimal           00000000000709d4 f   UefiShellDriver1CommandsLib:Dh.obj
 0001:0005fa28       ConvertStrToGuid           0000000000070a28 f   UefiShellDriver1CommandsLib:Dh.obj
 0001:0005fba0       GetDriverName              0000000000070ba0 f   UefiShellDriver1CommandsLib:Dh.obj
 0001:0005fcc0       GetProtocolInfoString      0000000000070cc0 f   UefiShellDriver1CommandsLib:Dh.obj
 0001:000600cc       GetDriverImageName         00000000000710cc f   UefiShellDriver1CommandsLib:Dh.obj
 0001:0006016c       DisplayDriverModelHandle   000000000007116c f   UefiShellDriver1CommandsLib:Dh.obj
 0001:000611e0       DoDhByHandle               00000000000721e0 f   UefiShellDriver1CommandsLib:Dh.obj
 0001:00061520       DoDhForHandleList          0000000000072520 f   UefiShellDriver1CommandsLib:Dh.obj
 0001:000615b8       DoDhByProtocolGuid         00000000000725b8 f   UefiShellDriver1CommandsLib:Dh.obj
 0001:000616e4       DoDhByProtocol             00000000000726e4 f   UefiShellDriver1CommandsLib:Dh.obj
 0001:000617d4       DoDecodeByProtocol         00000000000727d4 f   UefiShellDriver1CommandsLib:Dh.obj
 0001:00061adc       ShellCommandRunDh          0000000000072adc f   UefiShellDriver1CommandsLib:Dh.obj
 0001:000621a4       DoDevTreeForHandle         00000000000731a4 f   UefiShellDriver1CommandsLib:DevTree.obj
 0001:000624e8       ShellCommandRunDevTree     00000000000734e8 f   UefiShellDriver1CommandsLib:DevTree.obj
 0001:00062ac8       FindHiiHandleViaDevPath    0000000000073ac8 f   UefiShellDriver1CommandsLib:DrvCfg.obj
 0001:00062f28       ConvertHandleToHiiHandle   0000000000073f28 f   UefiShellDriver1CommandsLib:DrvCfg.obj
 0001:00062fec       ConfigToFile               0000000000073fec f   UefiShellDriver1CommandsLib:DrvCfg.obj
 0001:000632d4       ConfigFromFile             00000000000742d4 f   UefiShellDriver1CommandsLib:DrvCfg.obj
 0001:00063968       ShellCmdDriverConfigurationProcessActionRequired 0000000000074968 f   UefiShellDriver1CommandsLib:DrvCfg.obj
 0001:00063c28       PreHiiDrvCfg               0000000000074c28 f   UefiShellDriver1CommandsLib:DrvCfg.obj
 0001:00064b94       PrintConfigInfoOnAll       0000000000075b94 f   UefiShellDriver1CommandsLib:DrvCfg.obj
 0001:00064d1c       ShellCommandRunDrvCfg      0000000000075d1c f   UefiShellDriver1CommandsLib:DrvCfg.obj
 0001:00065b70       DisconnectAll              0000000000076b70 f   UefiShellDriver1CommandsLib:Disconnect.obj
 0001:00065c08       ShellCommandRunDisconnect  0000000000076c08 f   UefiShellDriver1CommandsLib:Disconnect.obj
 0001:00066410       ShellCommandGetManFileNameDebug1 0000000000077410 f   UefiShellDebug1CommandsLib:UefiShellDebug1CommandsLib.obj
 0001:00066418       UefiShellDebug1CommandsLibConstructor 0000000000077418 f   UefiShellDebug1CommandsLib:UefiShellDebug1CommandsLib.obj
 0001:000668fc       UefiShellDebug1CommandsLibDestructor 00000000000778fc f   UefiShellDebug1CommandsLib:UefiShellDebug1CommandsLib.obj
 0001:00066938       GetSystemConfigurationTable 0000000000077938 f   UefiShellDebug1CommandsLib:UefiShellDebug1CommandsLib.obj
 0001:00066a00       EditorClearLine            0000000000077a00 f   UefiShellDebug1CommandsLib:UefiShellDebug1CommandsLib.obj
 0001:00066b10       IsValidFileNameChar        0000000000077b10 f   UefiShellDebug1CommandsLib:UefiShellDebug1CommandsLib.obj
 0001:00066b6c       IsValidFileName            0000000000077b6c f   UefiShellDebug1CommandsLib:UefiShellDebug1CommandsLib.obj
 0001:00066c4c       EditGetDefaultFileName     0000000000077c4c f   UefiShellDebug1CommandsLib:UefiShellDebug1CommandsLib.obj
 0001:00066cdc       ReadFileIntoBuffer         0000000000077cdc f   UefiShellDebug1CommandsLib:UefiShellDebug1CommandsLib.obj
 0001:00066f84       DisplayMmioMemory          0000000000077f84 f   UefiShellDebug1CommandsLib:Dmem.obj
 0001:000670ec       ShellCommandRunDmem        00000000000780ec f   UefiShellDebug1CommandsLib:Dmem.obj
 0001:00067d28       PciGetClassStrings         0000000000078d28 f   UefiShellDebug1CommandsLib:Pci.obj
 0001:00067f04       PciPrintClassCode          0000000000078f04 f   UefiShellDebug1CommandsLib:Pci.obj
 0001:00067fec       ShellCommandRunPci         0000000000078fec f   UefiShellDebug1CommandsLib:Pci.obj
 0001:0006933c       PciFindProtocolInterface   000000000007a33c f   UefiShellDebug1CommandsLib:Pci.obj
 0001:00069470       PciGetProtocolAndResource  000000000007a470 f   UefiShellDebug1CommandsLib:Pci.obj
 0001:00069504       PciGetNextBusRange         000000000007a504 f   UefiShellDebug1CommandsLib:Pci.obj
 0001:000695dc       PciExplainPci              000000000007a5dc f   UefiShellDebug1CommandsLib:Pci.obj
 0001:000699f0       PciExplainStatus           000000000007a9f0 f   UefiShellDebug1CommandsLib:Pci.obj
 0001:00069f80       PciExplainCommand          000000000007af80 f   UefiShellDebug1CommandsLib:Pci.obj
 0001:0006a304       LocatePciCapability        000000000007b304 f   UefiShellDebug1CommandsLib:Pci.obj
 0001:0006a3e0       ExplainPcieCapReg          000000000007b3e0 f   UefiShellDebug1CommandsLib:Pci.obj
 0001:0006a50c       ExplainPcieDeviceCap       000000000007b50c f   UefiShellDebug1CommandsLib:Pci.obj
 0001:0006a834       ExplainPcieDeviceControl   000000000007b834 f   UefiShellDebug1CommandsLib:Pci.obj
 0001:0006ab2c       ExplainPcieDeviceStatus    000000000007bb2c f   UefiShellDebug1CommandsLib:Pci.obj
 0001:0006ac48       ExplainPcieLinkCap         000000000007bc48 f   UefiShellDebug1CommandsLib:Pci.obj
 0001:0006aed8       ExplainPcieLinkControl     000000000007bed8 f   UefiShellDebug1CommandsLib:Pci.obj
 0001:0006b0f0       ExplainPcieLinkStatus      000000000007c0f0 f   UefiShellDebug1CommandsLib:Pci.obj
 0001:0006b2b4       ExplainPcieSlotCap         000000000007c2b4 f   UefiShellDebug1CommandsLib:Pci.obj
 0001:0006b4a4       ExplainPcieSlotControl     000000000007c4a4 f   UefiShellDebug1CommandsLib:Pci.obj
 0001:0006b6e0       ExplainPcieSlotStatus      000000000007c6e0 f   UefiShellDebug1CommandsLib:Pci.obj
 0001:0006b910       ExplainPcieRootControl     000000000007c910 f   UefiShellDebug1CommandsLib:Pci.obj
 0001:0006b9fc       ExplainPcieRootCap         000000000007c9fc f   UefiShellDebug1CommandsLib:Pci.obj
 0001:0006ba38       ExplainPcieRootStatus      000000000007ca38 f   UefiShellDebug1CommandsLib:Pci.obj
 0001:0006babc       PrintInterpretedExtendedCompatibilityLinkControl 000000000007cabc f   UefiShellDebug1CommandsLib:Pci.obj
 0001:0006bb54       PrintInterpretedExtendedCompatibilityPowerBudgeting 000000000007cb54 f   UefiShellDebug1CommandsLib:Pci.obj
 0001:0006bbf4       PrintInterpretedExtendedCompatibilityAcs 000000000007cbf4 f   UefiShellDebug1CommandsLib:Pci.obj
 0001:0006bd44       PrintInterpretedExtendedCompatibilityLatencyToleranceReporting 000000000007cd44 f   UefiShellDebug1CommandsLib:Pci.obj
 0001:0006bdd0       PrintInterpretedExtendedCompatibilitySerialNumber 000000000007cdd0 f   UefiShellDebug1CommandsLib:Pci.obj
 0001:0006be50       PrintInterpretedExtendedCompatibilityRcrb 000000000007ce50 f   UefiShellDebug1CommandsLib:Pci.obj
 0001:0006bef4       PrintInterpretedExtendedCompatibilityVendorSpecific 000000000007cef4 f   UefiShellDebug1CommandsLib:Pci.obj
 0001:0006bf84       PrintInterpretedExtendedCompatibilityECEA 000000000007cf84 f   UefiShellDebug1CommandsLib:Pci.obj
 0001:0006c004       PrintInterpretedExtendedCompatibilityAri 000000000007d004 f   UefiShellDebug1CommandsLib:Pci.obj
 0001:0006c090       PrintInterpretedExtendedCompatibilityDynamicPowerAllocation 000000000007d090 f   UefiShellDebug1CommandsLib:Pci.obj
 0001:0006c1b4       PrintInterpretedExtendedCompatibilityLinkDeclaration 000000000007d1b4 f   UefiShellDebug1CommandsLib:Pci.obj
 0001:0006c2c0       PrintInterpretedExtendedCompatibilityAer 000000000007d2c0 f   UefiShellDebug1CommandsLib:Pci.obj
 0001:0006c4cc       PrintInterpretedExtendedCompatibilityMulticast 000000000007d4cc f   UefiShellDebug1CommandsLib:Pci.obj
 0001:0006c5b0       PrintInterpretedExtendedCompatibilityVirtualChannel 000000000007d5b0 f   UefiShellDebug1CommandsLib:Pci.obj
 0001:0006c76c       PrintInterpretedExtendedCompatibilityResizeableBar 000000000007d76c f   UefiShellDebug1CommandsLib:Pci.obj
 0001:0006c85c       PrintInterpretedExtendedCompatibilityTph 000000000007d85c f   UefiShellDebug1CommandsLib:Pci.obj
 0001:0006c940       PrintInterpretedExtendedCompatibilitySecondary 000000000007d940 f   UefiShellDebug1CommandsLib:Pci.obj
 0001:0006ca24       PrintPciExtendedCapabilityDetails 000000000007da24 f   UefiShellDebug1CommandsLib:Pci.obj
 0001:0006cc9c       PciExplainPciExpress       000000000007dc9c f   UefiShellDebug1CommandsLib:Pci.obj
 0001:0006cfc8       ShellCommandRunHexEdit     000000000007dfc8 f   UefiShellDebug1CommandsLib:HexEdit.obj
 0001:0006daac       AddMemoryLength            000000000007eaac f   UefiShellDebug1CommandsLib:MemMap.obj
 0001:0006dba8       ShellCommandRunMemMap      000000000007eba8 f   UefiShellDebug1CommandsLib:MemMap.obj
 0001:0006fdc0       DisplayTheBlocks           0000000000080dc0 f   UefiShellDebug1CommandsLib:Dblk.obj
 0001:0007006c       ShellCommandRunDblk        000000000008106c f   UefiShellDebug1CommandsLib:Dblk.obj
 0001:00070614       DisplaySettings            0000000000081614 f   UefiShellDebug1CommandsLib:SerMode.obj
 0001:000709fc       ShellCommandRunSerMode     00000000000819fc f   UefiShellDebug1CommandsLib:SerMode.obj
 0001:00071314       ShellCommandRunEfiDecompress 0000000000082314 f   UefiShellDebug1CommandsLib:EfiDecompress.obj
 0001:00071d8c       ShellCommandRunEfiCompress 0000000000082d8c f   UefiShellDebug1CommandsLib:EfiCompress.obj
 0001:00072664       ShellMmDecodePciAddress    0000000000083664 f   UefiShellDebug1CommandsLib:Mm.obj
 0001:00072770       ShellMmAccess              0000000000083770 f   UefiShellDebug1CommandsLib:Mm.obj
 0001:00072f7c       ShellMmLocateIoProtocol    0000000000083f7c f   UefiShellDebug1CommandsLib:Mm.obj
 0001:0007327c       ShellCommandRunMm          000000000008427c f   UefiShellDebug1CommandsLib:Mm.obj
 0001:00073f90       PrintDifferentPoint        0000000000084f90 f   UefiShellDebug1CommandsLib:Comp.obj
 0001:00074294       ShellCommandRunComp        0000000000085294 f   UefiShellDebug1CommandsLib:Comp.obj
 0001:00075438       ShellCommandRunSmbiosView  0000000000086438 f   UefiShellDebug1CommandsLib:SmbiosView.obj
 0001:00075ab0       SMBiosView                 0000000000086ab0 f   UefiShellDebug1CommandsLib:SmbiosView.obj
 0001:00075ea8       SMBios64View               0000000000086ea8 f   UefiShellDebug1CommandsLib:SmbiosView.obj
 0001:000762a0       InitSmbiosTableStatistics  00000000000872a0 f   UefiShellDebug1CommandsLib:SmbiosView.obj
 0001:000764d4       CalculateSmbios64BitStructureCountAndLength 00000000000874d4 f   UefiShellDebug1CommandsLib:SmbiosView.obj
 0001:000765c4       InitSmbios64BitTableStatistics 00000000000875c4 f   UefiShellDebug1CommandsLib:SmbiosView.obj
 0001:00076834       DisplayStatisticsTable     0000000000087834 f   UefiShellDebug1CommandsLib:SmbiosView.obj
 0001:00076aac       DisplaySmbios64BitStatisticsTable 0000000000087aac f   UefiShellDebug1CommandsLib:SmbiosView.obj
 0001:00076d24       GetShowTypeString          0000000000087d24 f   UefiShellDebug1CommandsLib:SmbiosView.obj
 0001:00076d8c       ShellCommandRunLoadPciRom  0000000000087d8c f   UefiShellDebug1CommandsLib:LoadPciRom.obj
 0001:000772bc       LoadEfiDriversFromRomImage 00000000000882bc f   UefiShellDebug1CommandsLib:LoadPciRom.obj
 0001:000778bc       LoadPciRomConnectAllDriversToAllControllers 00000000000888bc f   UefiShellDebug1CommandsLib:LoadPciRom.obj
 0001:0007797c       ShellCommandRunSetSize     000000000008897c f   UefiShellDebug1CommandsLib:SetSize.obj
 0001:00077e88       GetAttrType                0000000000088e88 f   UefiShellDebug1CommandsLib:DmpStore.obj
 0001:00077ff8       BinaryToHexString          0000000000088ff8 f   UefiShellDebug1CommandsLib:DmpStore.obj
 0001:0007811c       LoadVariablesFromFile      000000000008911c f   UefiShellDebug1CommandsLib:DmpStore.obj
 0001:00078824       AppendSingleVariableToFile 0000000000089824 f   UefiShellDebug1CommandsLib:DmpStore.obj
 0001:000789e4       CascadeProcessVariables    00000000000899e4 f   UefiShellDebug1CommandsLib:DmpStore.obj
 0001:0007925c       ProcessVariables           000000000008a25c f   UefiShellDebug1CommandsLib:DmpStore.obj
 0001:000795d4       ShellCommandRunDmpStore    000000000008a5d4 f   UefiShellDebug1CommandsLib:DmpStore.obj
 0001:00079ffc       IsStringOfHexNibbles       000000000008affc f   UefiShellDebug1CommandsLib:SetVar.obj
 0001:0007a04c       TestDataType               000000000008b04c f   UefiShellDebug1CommandsLib:SetVar.obj
 0001:0007a208       ParseParameterData         000000000008b208 f   UefiShellDebug1CommandsLib:SetVar.obj
 0001:0007a780       GetVariableDataFromParameter 000000000008b780 f   UefiShellDebug1CommandsLib:SetVar.obj
 0001:0007aad8       ShellCommandRunSetVar      000000000008bad8 f   UefiShellDebug1CommandsLib:SetVar.obj
 0001:0007b258       ShellCommandRunEdit        000000000008c258 f   UefiShellDebug1CommandsLib:Edit.obj
 0001:0007b7d8       ShellCommandRunMode        000000000008c7d8 f   UefiShellDebug1CommandsLib:Mode.obj
 0001:0007be30       HMainCommandDisplayHelp    000000000008ce30 f   UefiShellDebug1CommandsLib:MainHexEditor.obj
 0001:0007bf88       HMainCommandGoToOffset     000000000008cf88 f   UefiShellDebug1CommandsLib:MainHexEditor.obj
 0001:0007c104       HMainCommandSaveBuffer     000000000008d104 f   UefiShellDebug1CommandsLib:MainHexEditor.obj
 0001:0007c838       HMainCommandSelectStart    000000000008d838 f   UefiShellDebug1CommandsLib:MainHexEditor.obj
 0001:0007c8f8       HMainCommandSelectEnd      000000000008d8f8 f   UefiShellDebug1CommandsLib:MainHexEditor.obj
 0001:0007c9b0       HMainCommandCut            000000000008d9b0 f   UefiShellDebug1CommandsLib:MainHexEditor.obj
 0001:0007caf4       HMainCommandPaste          000000000008daf4 f   UefiShellDebug1CommandsLib:MainHexEditor.obj
 0001:0007cbf0       HMainCommandExit           000000000008dbf0 f   UefiShellDebug1CommandsLib:MainHexEditor.obj
 0001:0007cd9c       HMainCommandOpenFile       000000000008dd9c f   UefiShellDebug1CommandsLib:MainHexEditor.obj
 0001:0007d520       HMainCommandOpenDisk       000000000008e520 f   UefiShellDebug1CommandsLib:MainHexEditor.obj
 0001:0007db88       HMainCommandOpenMemory     000000000008eb88 f   UefiShellDebug1CommandsLib:MainHexEditor.obj
 0001:0007e15c       HMainEditorInit            000000000008f15c f   UefiShellDebug1CommandsLib:MainHexEditor.obj
 0001:0007e5b8       HMainEditorCleanup         000000000008f5b8 f   UefiShellDebug1CommandsLib:MainHexEditor.obj
 0001:0007e6dc       HMainEditorRefresh         000000000008f6dc f   UefiShellDebug1CommandsLib:MainHexEditor.obj
 0001:0007eb28       HMainEditorHandleMouseInput 000000000008fb28 f   UefiShellDebug1CommandsLib:MainHexEditor.obj
 0001:0007ee50       HMainEditorKeyInput        000000000008fe50 f   UefiShellDebug1CommandsLib:MainHexEditor.obj
 0001:0007f408       HMainEditorBackup          0000000000090408 f   UefiShellDebug1CommandsLib:MainHexEditor.obj
 0001:0007f434       StatusBarInit              0000000000090434 f   UefiShellDebug1CommandsLib:EditStatusBar.obj
 0001:0007f464       StatusBarCleanup           0000000000090464 f   UefiShellDebug1CommandsLib:EditStatusBar.obj
 0001:0007f494       StatusBarRefresh           0000000000090494 f   UefiShellDebug1CommandsLib:EditStatusBar.obj
 0001:0007f6b0       StatusBarSetStatusString   00000000000906b0 f   UefiShellDebug1CommandsLib:EditStatusBar.obj
 0001:0007f720       StatusBarGetString         0000000000090720 f   UefiShellDebug1CommandsLib:EditStatusBar.obj
 0001:0007f728       StatusBarSetRefresh        0000000000090728 f   UefiShellDebug1CommandsLib:EditStatusBar.obj
 0001:0007f730       StatusBarGetRefresh        0000000000090730 f   UefiShellDebug1CommandsLib:EditStatusBar.obj
 0001:0007f738       HBufferImageInit           0000000000090738 f   UefiShellDebug1CommandsLib:BufferImage.obj
 0001:0007f884       HBufferImageBackup         0000000000090884 f   UefiShellDebug1CommandsLib:BufferImage.obj
 0001:0007f914       HBufferImageFreeLines      0000000000090914 f   UefiShellDebug1CommandsLib:BufferImage.obj
 0001:0007f954       HBufferImageCleanup        0000000000090954 f   UefiShellDebug1CommandsLib:BufferImage.obj
 0001:0007f9a8       HBufferImagePrintLine      00000000000909a8 f   UefiShellDebug1CommandsLib:BufferImage.obj
 0001:0008014c       HBufferImageIsAtHighBits   000000000009114c f   UefiShellDebug1CommandsLib:BufferImage.obj
 0001:000801f0       HBufferImageIsInSelectedArea 00000000000911f0 f   UefiShellDebug1CommandsLib:BufferImage.obj
 0001:00080360       HBufferImageRestoreMousePosition 0000000000091360 f   UefiShellDebug1CommandsLib:BufferImage.obj
 0001:000807a4       HBufferImageRestorePosition 00000000000917a4 f   UefiShellDebug1CommandsLib:BufferImage.obj
 0001:000807ec       HBufferImageRefresh        00000000000917ec f   UefiShellDebug1CommandsLib:BufferImage.obj
 0001:00080c34       HBufferImageRead           0000000000091c34 f   UefiShellDebug1CommandsLib:BufferImage.obj
 0001:00080d04       HBufferImageSave           0000000000091d04 f   UefiShellDebug1CommandsLib:BufferImage.obj
 0001:00080dc0       HBufferImageCreateLine     0000000000091dc0 f   UefiShellDebug1CommandsLib:BufferImage.obj
 0001:00080ea0       HBufferImageFree           0000000000091ea0 f   UefiShellDebug1CommandsLib:BufferImage.obj
 0001:00080eb0       HBufferImageCharToHex      0000000000091eb0 f   UefiShellDebug1CommandsLib:BufferImage.obj
 0001:00080f20       HBufferImageAddChar        0000000000091f20 f   UefiShellDebug1CommandsLib:BufferImage.obj
 0001:000810f4       HBufferImageDoBackspace    00000000000920f4 f   UefiShellDebug1CommandsLib:BufferImage.obj
 0001:000811cc       HBufferImageDoCharInput    00000000000921cc f   UefiShellDebug1CommandsLib:BufferImage.obj
 0001:0008125c       HAboveCurrentScreen        000000000009225c f   UefiShellDebug1CommandsLib:BufferImage.obj
 0001:00081278       HUnderCurrentScreen        0000000000092278 f   UefiShellDebug1CommandsLib:BufferImage.obj
 0001:000812a0       HBufferImageMovePosition   00000000000922a0 f   UefiShellDebug1CommandsLib:BufferImage.obj
 0001:00081444       HBufferImageScrollRight    0000000000092444 f   UefiShellDebug1CommandsLib:BufferImage.obj
 0001:000814ec       HBufferImageScrollLeft     00000000000924ec f   UefiShellDebug1CommandsLib:BufferImage.obj
 0001:000815f0       HBufferImageScrollDown     00000000000925f0 f   UefiShellDebug1CommandsLib:BufferImage.obj
 0001:000816f0       HBufferImageScrollUp       00000000000926f0 f   UefiShellDebug1CommandsLib:BufferImage.obj
 0001:0008175c       HBufferImagePageDown       000000000009275c f   UefiShellDebug1CommandsLib:BufferImage.obj
 0001:00081840       HBufferImagePageUp         0000000000092840 f   UefiShellDebug1CommandsLib:BufferImage.obj
 0001:000818d8       HBufferImageHome           00000000000928d8 f   UefiShellDebug1CommandsLib:BufferImage.obj
 0001:00081914       HBufferImageEnd            0000000000092914 f   UefiShellDebug1CommandsLib:BufferImage.obj
 0001:0008198c       HBufferImageGetTotalSize   000000000009298c f   UefiShellDebug1CommandsLib:BufferImage.obj
 0001:00081a30       HBufferImageDeleteCharacterFromBuffer 0000000000092a30 f   UefiShellDebug1CommandsLib:BufferImage.obj
 0001:00081de0       HBufferImageAddCharacterToBuffer 0000000000092de0 f   UefiShellDebug1CommandsLib:BufferImage.obj
 0001:00082114       HBufferImageDoDelete       0000000000093114 f   UefiShellDebug1CommandsLib:BufferImage.obj
 0001:000821d4       HBufferImageBufferToList   00000000000931d4 f   UefiShellDebug1CommandsLib:BufferImage.obj
 0001:00082308       HBufferImageListToBuffer   0000000000093308 f   UefiShellDebug1CommandsLib:BufferImage.obj
 0001:00082470       HBufferImageAdjustMousePosition 0000000000093470 f   UefiShellDebug1CommandsLib:BufferImage.obj
 0001:00082608       HBufferImageHandleInput    0000000000093608 f   UefiShellDebug1CommandsLib:BufferImage.obj
 0001:00082724       MakeCrcTable               0000000000093724 f   UefiShellDebug1CommandsLib:Compress.obj
 0001:000827a8       PutDword                   00000000000937a8 f   UefiShellDebug1CommandsLib:Compress.obj
 0001:0008288c       AllocateMemory             000000000009388c f   UefiShellDebug1CommandsLib:Compress.obj
 0001:00082990       FreeMemory                 0000000000093990 f   UefiShellDebug1CommandsLib:Compress.obj
 0001:00082ad4       InitSlide                  0000000000093ad4 f   UefiShellDebug1CommandsLib:Compress.obj
 0001:00082bb8       Child                      0000000000093bb8 f   UefiShellDebug1CommandsLib:Compress.obj
 0001:00082c3c       MakeChild                  0000000000093c3c f   UefiShellDebug1CommandsLib:Compress.obj
 0001:00082d10       Split                      0000000000093d10 f   UefiShellDebug1CommandsLib:Compress.obj
 0001:00082e7c       InsertNode                 0000000000093e7c f   UefiShellDebug1CommandsLib:Compress.obj
 0001:000832a0       DeleteNode                 00000000000942a0 f   UefiShellDebug1CommandsLib:Compress.obj
 0001:00083678       FreadCrc                   0000000000094678 f   UefiShellDebug1CommandsLib:Compress.obj
 0001:00083774       GetNextMatch               0000000000094774 f   UefiShellDebug1CommandsLib:Compress.obj
 0001:00083884       DownHeap                   0000000000094884 f   UefiShellDebug1CommandsLib:Compress.obj
 0001:0008398c       CountLen                   000000000009498c f   UefiShellDebug1CommandsLib:Compress.obj
 0001:00083a34       MakeLen                    0000000000094a34 f   UefiShellDebug1CommandsLib:Compress.obj
 0001:00083c08       MakeCode                   0000000000094c08 f   UefiShellDebug1CommandsLib:Compress.obj
 0001:00083cd4       MakeTree                   0000000000094cd4 f   UefiShellDebug1CommandsLib:Compress.obj
 0001:00083fb8       PutBits                    0000000000094fb8 f   UefiShellDebug1CommandsLib:Compress.obj
 0001:00084110       EncodeC                    0000000000095110 f   UefiShellDebug1CommandsLib:Compress.obj
 0001:00084144       EncodeP                    0000000000095144 f   UefiShellDebug1CommandsLib:Compress.obj
 0001:000841dc       CountTFreq                 00000000000951dc f   UefiShellDebug1CommandsLib:Compress.obj
 0001:00084424       WritePTLen                 0000000000095424 f   UefiShellDebug1CommandsLib:Compress.obj
 0001:00084534       WriteCLen                  0000000000095534 f   UefiShellDebug1CommandsLib:Compress.obj
 0001:000847c8       SendBlock                  00000000000957c8 f   UefiShellDebug1CommandsLib:Compress.obj
 0001:00084a5c       HufEncodeStart             0000000000095a5c f   UefiShellDebug1CommandsLib:Compress.obj
 0001:00084ab8       CompressOutput             0000000000095ab8 f   UefiShellDebug1CommandsLib:Compress.obj
 0001:00084c3c       HufEncodeEnd               0000000000095c3c f   UefiShellDebug1CommandsLib:Compress.obj
 0001:00084c58       Encode                     0000000000095c58 f   UefiShellDebug1CommandsLib:Compress.obj
 0001:00084e08       Compress                   0000000000095e08 f   UefiShellDebug1CommandsLib:Compress.obj
 0001:00084fc4       MemToString                0000000000095fc4 f   UefiShellDebug1CommandsLib:PrintInfo.obj
 0001:0008503c       SmbiosPrintEPSInfo         000000000009603c f   UefiShellDebug1CommandsLib:PrintInfo.obj
 0001:000853a4       Smbios64BitPrintEPSInfo    00000000000963a4 f   UefiShellDebug1CommandsLib:PrintInfo.obj
 0001:000855e8       SmbiosPrintStructure       00000000000965e8 f   UefiShellDebug1CommandsLib:PrintInfo.obj
 0001:0008d1bc       DisplayBiosCharacteristics 000000000009e1bc f   UefiShellDebug1CommandsLib:PrintInfo.obj
 0001:0008d8e8       DisplayBiosCharacteristicsExt1 000000000009e8e8 f   UefiShellDebug1CommandsLib:PrintInfo.obj
 0001:0008dae8       DisplayBiosCharacteristicsExt2 000000000009eae8 f   UefiShellDebug1CommandsLib:PrintInfo.obj
 0001:0008dd94       DisplayProcessorFamily     000000000009ed94 f   UefiShellDebug1CommandsLib:PrintInfo.obj
 0001:0008fb50       DisplayProcessorFamily2    00000000000a0b50 f   UefiShellDebug1CommandsLib:PrintInfo.obj
 0001:0008fd98       DisplayProcessorVoltage    00000000000a0d98 f   UefiShellDebug1CommandsLib:PrintInfo.obj
 0001:0008ffa8       DisplayProcessorStatus     00000000000a0fa8 f   UefiShellDebug1CommandsLib:PrintInfo.obj
 0001:00090298       DisplayMaxMemoryModuleSize 00000000000a1298 f   UefiShellDebug1CommandsLib:PrintInfo.obj
 0001:0009039c       DisplayMemoryModuleConfigHandles 00000000000a139c f   UefiShellDebug1CommandsLib:PrintInfo.obj
 0001:00090484       DisplayMmBankConnections   00000000000a1484 f   UefiShellDebug1CommandsLib:PrintInfo.obj
 0001:0009060c       DisplayMmMemorySize        00000000000a160c f   UefiShellDebug1CommandsLib:PrintInfo.obj
 0001:000907b0       DisplayCacheConfiguration  00000000000a17b0 f   UefiShellDebug1CommandsLib:PrintInfo.obj
 0001:00090c10       DisplaySystemSlotId        00000000000a1c10 f   UefiShellDebug1CommandsLib:PrintInfo.obj
 0001:00090ef4       DisplaySystemBootStatus    00000000000a1ef4 f   UefiShellDebug1CommandsLib:PrintInfo.obj
 0001:000911fc       DisplaySBDSManufactureDate 00000000000a21fc f   UefiShellDebug1CommandsLib:PrintInfo.obj
 0001:000912e8       DisplaySystemResetCapabilities 00000000000a22e8 f   UefiShellDebug1CommandsLib:PrintInfo.obj
 0001:000915f8       DisplayHardwareSecuritySettings 00000000000a25f8 f   UefiShellDebug1CommandsLib:PrintInfo.obj
 0001:00091a50       DisplayOBRAConnections     00000000000a2a50 f   UefiShellDebug1CommandsLib:PrintInfo.obj
 0001:00091ba0       DisplaySPSCharacteristics  00000000000a2ba0 f   UefiShellDebug1CommandsLib:PrintInfo.obj
 0001:0009223c       DisplayTpmDeviceCharacteristics 00000000000a323c f   UefiShellDebug1CommandsLib:PrintInfo.obj
 0001:000923f8       LibSmbiosInit              00000000000a33f8 f   UefiShellDebug1CommandsLib:LibSmbiosView.obj
 0001:0009249c       LibSmbios64BitInit         00000000000a349c f   UefiShellDebug1CommandsLib:LibSmbiosView.obj
 0001:00092544       LibSmbiosCleanup           00000000000a3544 f   UefiShellDebug1CommandsLib:LibSmbiosView.obj
 0001:00092564       LibSmbios64BitCleanup      00000000000a3564 f   UefiShellDebug1CommandsLib:LibSmbiosView.obj
 0001:00092584       LibSmbiosGetEPS            00000000000a3584 f   UefiShellDebug1CommandsLib:LibSmbiosView.obj
 0001:0009259c       LibSmbios64BitGetEPS       00000000000a359c f   UefiShellDebug1CommandsLib:LibSmbiosView.obj
 0001:000925b4       LibGetSmbiosString         00000000000a35b4 f   UefiShellDebug1CommandsLib:LibSmbiosView.obj
 0001:000926ac       LibGetSmbiosStructure      00000000000a36ac f   UefiShellDebug1CommandsLib:LibSmbiosView.obj
 0001:0009281c       LibGetSmbios64BitStructure 00000000000a381c f   UefiShellDebug1CommandsLib:LibSmbiosView.obj
 0001:00092988       MainCommandOpenFile        00000000000a3988 f   UefiShellDebug1CommandsLib:MainTextEditor.obj
 0001:00092c54       MainCommandSwitchFileType  00000000000a3c54 f   UefiShellDebug1CommandsLib:MainTextEditor.obj
 0001:00092cb4       MainCommandCutLine         00000000000a3cb4 f   UefiShellDebug1CommandsLib:MainTextEditor.obj
 0001:00092d08       MainCommandPasteLine       00000000000a3d08 f   UefiShellDebug1CommandsLib:MainTextEditor.obj
 0001:00092d3c       MainCommandSearch          00000000000a3d3c f   UefiShellDebug1CommandsLib:MainTextEditor.obj
 0001:00092f6c       MainCommandSearchReplace   00000000000a3f6c f   UefiShellDebug1CommandsLib:MainTextEditor.obj
 0001:000934fc       MainCommandExit            00000000000a44fc f   UefiShellDebug1CommandsLib:MainTextEditor.obj
 0001:00093628       MainCommandGotoLine        00000000000a4628 f   UefiShellDebug1CommandsLib:MainTextEditor.obj
 0001:0009370c       MainCommandSaveFile        00000000000a470c f   UefiShellDebug1CommandsLib:MainTextEditor.obj
 0001:00093b90       MainCommandDisplayHelp     00000000000a4b90 f   UefiShellDebug1CommandsLib:MainTextEditor.obj
 0001:00093cec       MainEditorInit             00000000000a4cec f   UefiShellDebug1CommandsLib:MainTextEditor.obj
 0001:000940c8       MainEditorCleanup          00000000000a50c8 f   UefiShellDebug1CommandsLib:MainTextEditor.obj
 0001:000941b4       MainEditorRefresh          00000000000a51b4 f   UefiShellDebug1CommandsLib:MainTextEditor.obj
 0001:00094330       GetTextX                   00000000000a5330 f   UefiShellDebug1CommandsLib:MainTextEditor.obj
 0001:000943b0       GetTextY                   00000000000a53b0 f   UefiShellDebug1CommandsLib:MainTextEditor.obj
 0001:00094430       MainEditorHandleMouseInput 00000000000a5430 f   UefiShellDebug1CommandsLib:MainTextEditor.obj
 0001:00094610       MainEditorKeyInput         00000000000a5610 f   UefiShellDebug1CommandsLib:MainTextEditor.obj
 0001:00094844       MainEditorBackup           00000000000a5844 f   UefiShellDebug1CommandsLib:MainTextEditor.obj
 0001:00094854       FileBufferInit             00000000000a5854 f   UefiShellDebug1CommandsLib:FileBuffer.obj
 0001:00094930       FileBufferBackup           00000000000a5930 f   UefiShellDebug1CommandsLib:FileBuffer.obj
 0001:000949ec       InternalEditorMiscLineAdvance 00000000000a59ec f   UefiShellDebug1CommandsLib:FileBuffer.obj
 0001:00094acc       InternalEditorMiscLineRetreat 00000000000a5acc f   UefiShellDebug1CommandsLib:FileBuffer.obj
 0001:00094bac       MoveLine                   00000000000a5bac f   UefiShellDebug1CommandsLib:FileBuffer.obj
 0001:00094c40       FileBufferRestoreMousePosition 00000000000a5c40 f   UefiShellDebug1CommandsLib:FileBuffer.obj
 0001:00094f68       FileBufferFreeLines        00000000000a5f68 f   UefiShellDebug1CommandsLib:FileBuffer.obj
 0001:0009505c       FileBufferCleanup          00000000000a605c f   UefiShellDebug1CommandsLib:FileBuffer.obj
 0001:000950f4       FileBufferPrintLine        00000000000a60f4 f   UefiShellDebug1CommandsLib:FileBuffer.obj
 0001:000952b4       FileBufferRestorePosition  00000000000a62b4 f   UefiShellDebug1CommandsLib:FileBuffer.obj
 0001:000952fc       FileBufferRefresh          00000000000a62fc f   UefiShellDebug1CommandsLib:FileBuffer.obj
 0001:00095580       FileBufferCreateLine       00000000000a6580 f   UefiShellDebug1CommandsLib:FileBuffer.obj
 0001:000956d4       FileBufferSetFileName      00000000000a66d4 f   UefiShellDebug1CommandsLib:FileBuffer.obj
 0001:00095758       FileBufferFree             00000000000a6758 f   UefiShellDebug1CommandsLib:FileBuffer.obj
 0001:00095770       FileBufferRead             00000000000a6770 f   UefiShellDebug1CommandsLib:FileBuffer.obj
 0001:00096174       GetNewLine                 00000000000a7174 f   UefiShellDebug1CommandsLib:FileBuffer.obj
 0001:000963b4       UnicodeToAscii             00000000000a73b4 f   UefiShellDebug1CommandsLib:FileBuffer.obj
 0001:0009641c       FileBufferSave             00000000000a741c f   UefiShellDebug1CommandsLib:FileBuffer.obj
 0001:00096a80       FileBufferScrollLeft       00000000000a7a80 f   UefiShellDebug1CommandsLib:FileBuffer.obj
 0001:00096b78       LineDeleteAt               00000000000a7b78 f   UefiShellDebug1CommandsLib:FileBuffer.obj
 0001:00096bf0       LineCat                    00000000000a7bf0 f   UefiShellDebug1CommandsLib:FileBuffer.obj
 0001:00096cbc       FileBufferDoBackspace      00000000000a7cbc f   UefiShellDebug1CommandsLib:FileBuffer.obj
 0001:00096e08       FileBufferDoReturn         00000000000a7e08 f   UefiShellDebug1CommandsLib:FileBuffer.obj
 0001:00097080       FileBufferDoDelete         00000000000a8080 f   UefiShellDebug1CommandsLib:FileBuffer.obj
 0001:000971c4       FileBufferScrollRight      00000000000a81c4 f   UefiShellDebug1CommandsLib:FileBuffer.obj
 0001:00097260       LineStrInsert              00000000000a8260 f   UefiShellDebug1CommandsLib:FileBuffer.obj
 0001:00097380       FileBufferAddChar          00000000000a8380 f   UefiShellDebug1CommandsLib:FileBuffer.obj
 0001:00097424       FileBufferDoCharInput      00000000000a8424 f   UefiShellDebug1CommandsLib:FileBuffer.obj
 0001:000974c0       FileBufferScrollDown       00000000000a84c0 f   UefiShellDebug1CommandsLib:FileBuffer.obj
 0001:000975c0       FileBufferScrollUp         00000000000a85c0 f   UefiShellDebug1CommandsLib:FileBuffer.obj
 0001:000976ac       FileBufferPageDown         00000000000a86ac f   UefiShellDebug1CommandsLib:FileBuffer.obj
 0001:0009777c       FileBufferPageUp           00000000000a877c f   UefiShellDebug1CommandsLib:FileBuffer.obj
 0001:00097850       FileBufferEnd              00000000000a8850 f   UefiShellDebug1CommandsLib:FileBuffer.obj
 0001:00097894       FileBufferHandleInput      00000000000a8894 f   UefiShellDebug1CommandsLib:FileBuffer.obj
 0001:00097a64       AboveCurrentScreen         00000000000a8a64 f   UefiShellDebug1CommandsLib:FileBuffer.obj
 0001:00097a80       UnderCurrentScreen         00000000000a8a80 f   UefiShellDebug1CommandsLib:FileBuffer.obj
 0001:00097aa8       LeftCurrentScreen          00000000000a8aa8 f   UefiShellDebug1CommandsLib:FileBuffer.obj
 0001:00097ac4       RightCurrentScreen         00000000000a8ac4 f   UefiShellDebug1CommandsLib:FileBuffer.obj
 0001:00097aec       MoveCurrentLine            00000000000a8aec f   UefiShellDebug1CommandsLib:FileBuffer.obj
 0001:00097b9c       FileBufferMovePosition     00000000000a8b9c f   UefiShellDebug1CommandsLib:FileBuffer.obj
 0001:00097dd8       FileBufferCutLine          00000000000a8dd8 f   UefiShellDebug1CommandsLib:FileBuffer.obj
 0001:00097fd4       FileBufferPasteLine        00000000000a8fd4 f   UefiShellDebug1CommandsLib:FileBuffer.obj
 0001:0009814c       FileBufferSearch           00000000000a914c f   UefiShellDebug1CommandsLib:FileBuffer.obj
 0001:000983a0       FileBufferReplace          00000000000a93a0 f   UefiShellDebug1CommandsLib:FileBuffer.obj
 0001:00098794       FileBufferAdjustMousePosition 00000000000a9794 f   UefiShellDebug1CommandsLib:FileBuffer.obj
 0001:0009894c       FileBufferReplaceAll       00000000000a994c f   UefiShellDebug1CommandsLib:FileBuffer.obj
 0001:00098d80       FileBufferSetModified      00000000000a9d80 f   UefiShellDebug1CommandsLib:FileBuffer.obj
 0001:00098d88       MenuBarCleanup             00000000000a9d88 f   UefiShellDebug1CommandsLib:EditMenuBar.obj
 0001:00098db8       MenuBarInit                00000000000a9db8 f   UefiShellDebug1CommandsLib:EditMenuBar.obj
 0001:00098e6c       ControlHotKeyInit          00000000000a9e6c f   UefiShellDebug1CommandsLib:EditMenuBar.obj
 0001:00098e80       MenuBarDispatchFunctionKey 00000000000a9e80 f   UefiShellDebug1CommandsLib:EditMenuBar.obj
 0001:00098ed4       MenuBarDispatchControlHotKey 00000000000a9ed4 f   UefiShellDebug1CommandsLib:EditMenuBar.obj
 0001:00098fe8       HLineFree                  00000000000a9fe8 f   UefiShellDebug1CommandsLib:Misc.obj
 0001:00099024       HLineAdvance               00000000000aa024 f   UefiShellDebug1CommandsLib:Misc.obj
 0001:00099100       HLineRetreat               00000000000aa100 f   UefiShellDebug1CommandsLib:Misc.obj
 0001:000991dc       HMoveLine                  00000000000aa1dc f   UefiShellDebug1CommandsLib:Misc.obj
 0001:00099244       HMoveCurrentLine           00000000000aa244 f   UefiShellDebug1CommandsLib:Misc.obj
 0001:000992c8       HFreeLines                 00000000000aa2c8 f   UefiShellDebug1CommandsLib:Misc.obj
 0001:00099398       HGetTextX                  00000000000aa398 f   UefiShellDebug1CommandsLib:Misc.obj
 0001:00099418       HGetTextY                  00000000000aa418 f   UefiShellDebug1CommandsLib:Misc.obj
 0001:00099498       HClipBoardInit             00000000000aa498 f   UefiShellDebug1CommandsLib:Clipboard.obj
 0001:000994bc       HClipBoardCleanup          00000000000aa4bc f   UefiShellDebug1CommandsLib:Clipboard.obj
 0001:000994f0       HClipBoardSet              00000000000aa4f0 f   UefiShellDebug1CommandsLib:Clipboard.obj
 0001:00099544       HClipBoardGet              00000000000aa544 f   UefiShellDebug1CommandsLib:Clipboard.obj
 0001:00099560       InputBarInit               00000000000aa560 f   UefiShellDebug1CommandsLib:EditInputBar.obj
 0001:00099594       InputBarCleanup            00000000000aa594 f   UefiShellDebug1CommandsLib:EditInputBar.obj
 0001:00099604       InputBarPrintInput         00000000000aa604 f   UefiShellDebug1CommandsLib:EditInputBar.obj
 0001:0009977c       InputBarRefresh            00000000000aa77c f   UefiShellDebug1CommandsLib:EditInputBar.obj
 0001:00099b40       InputBarSetPrompt          00000000000aab40 f   UefiShellDebug1CommandsLib:EditInputBar.obj
 0001:00099ba8       InputBarSetStringSize      00000000000aaba8 f   UefiShellDebug1CommandsLib:EditInputBar.obj
 0001:00099c1c       InputBarGetString          00000000000aac1c f   UefiShellDebug1CommandsLib:EditInputBar.obj
 0001:00099c24       MainTitleBarInit           00000000000aac24 f   UefiShellDebug1CommandsLib:EditTitleBar.obj
 0001:00099cac       MainTitleBarCleanup        00000000000aacac f   UefiShellDebug1CommandsLib:EditTitleBar.obj
 0001:00099ce8       MainTitleBarRefresh        00000000000aace8 f   UefiShellDebug1CommandsLib:EditTitleBar.obj
 0001:0009a02c       HMemImageInit              00000000000ab02c f   UefiShellDebug1CommandsLib:MemImage.obj
 0001:0009a088       HMemImageBackup            00000000000ab088 f   UefiShellDebug1CommandsLib:MemImage.obj
 0001:0009a0a8       HMemImageSetMemOffsetSize  00000000000ab0a8 f   UefiShellDebug1CommandsLib:MemImage.obj
 0001:0009a0d0       HMemImageRead              00000000000ab0d0 f   UefiShellDebug1CommandsLib:MemImage.obj
 0001:0009a378       HMemImageSave              00000000000ab378 f   UefiShellDebug1CommandsLib:MemImage.obj
 0001:0009a450       HDiskImageInit             00000000000ab450 f   UefiShellDebug1CommandsLib:DiskImage.obj
 0001:0009a490       HDiskImageBackup           00000000000ab490 f   UefiShellDebug1CommandsLib:DiskImage.obj
 0001:0009a510       HDiskImageCleanup          00000000000ab510 f   UefiShellDebug1CommandsLib:DiskImage.obj
 0001:0009a56c       HDiskImageSetDiskNameOffsetSize 00000000000ab56c f   UefiShellDebug1CommandsLib:DiskImage.obj
 0001:0009a60c       HDiskImageRead             00000000000ab60c f   UefiShellDebug1CommandsLib:DiskImage.obj
 0001:0009aa7c       HDiskImageSave             00000000000aba7c f   UefiShellDebug1CommandsLib:DiskImage.obj
 0001:0009ac4c       HFileImageInit             00000000000abc4c f   UefiShellDebug1CommandsLib:FileImage.obj
 0001:0009ac8c       HFileImageBackup           00000000000abc8c f   UefiShellDebug1CommandsLib:FileImage.obj
 0001:0009acf0       HFileImageCleanup          00000000000abcf0 f   UefiShellDebug1CommandsLib:FileImage.obj
 0001:0009ad4c       HFileImageSetFileName      00000000000abd4c f   UefiShellDebug1CommandsLib:FileImage.obj
 0001:0009adcc       HFileImageRead             00000000000abdcc f   UefiShellDebug1CommandsLib:FileImage.obj
 0001:0009b0c4       HFileImageSave             00000000000ac0c4 f   UefiShellDebug1CommandsLib:FileImage.obj
 0001:0009b4f0       QueryTable                 00000000000ac4f0 f   UefiShellDebug1CommandsLib:QueryTable.obj
 0001:0009b630       PrintBitsInfo              00000000000ac630 f   UefiShellDebug1CommandsLib:QueryTable.obj
 0001:0009b780       DisplaySystemWakeupType    00000000000ac780 f   UefiShellDebug1CommandsLib:QueryTable.obj
 0001:0009b844       DisplayBaseBoardFeatureFlags 00000000000ac844 f   UefiShellDebug1CommandsLib:QueryTable.obj
 0001:0009b8d4       DisplayBaseBoardBoardType  00000000000ac8d4 f   UefiShellDebug1CommandsLib:QueryTable.obj
 0001:0009b998       DisplaySystemEnclosureType 00000000000ac998 f   UefiShellDebug1CommandsLib:QueryTable.obj
 0001:0009ba98       DisplaySystemEnclosureStatus 00000000000aca98 f   UefiShellDebug1CommandsLib:QueryTable.obj
 0001:0009bb5c       DisplaySESecurityStatus    00000000000acb5c f   UefiShellDebug1CommandsLib:QueryTable.obj
 0001:0009bc20       DisplayProcessorType       00000000000acc20 f   UefiShellDebug1CommandsLib:QueryTable.obj
 0001:0009bce4       DisplayProcessorUpgrade    00000000000acce4 f   UefiShellDebug1CommandsLib:QueryTable.obj
 0001:0009bda8       DisplayProcessorCharacteristics 00000000000acda8 f   UefiShellDebug1CommandsLib:QueryTable.obj
 0001:0009be38       DisplayMcErrorDetectMethod 00000000000ace38 f   UefiShellDebug1CommandsLib:QueryTable.obj
 0001:0009befc       DisplayMcErrorCorrectCapability 00000000000acefc f   UefiShellDebug1CommandsLib:QueryTable.obj
 0001:0009bf8c       DisplayMcInterleaveSupport 00000000000acf8c f   UefiShellDebug1CommandsLib:QueryTable.obj
 0001:0009c050       DisplayMcMemorySpeeds      00000000000ad050 f   UefiShellDebug1CommandsLib:QueryTable.obj
 0001:0009c0e0       DisplayMemoryModuleVoltage 00000000000ad0e0 f   UefiShellDebug1CommandsLib:QueryTable.obj
 0001:0009c170       DisplayMmMemoryType        00000000000ad170 f   UefiShellDebug1CommandsLib:QueryTable.obj
 0001:0009c200       DisplayMmErrorStatus       00000000000ad200 f   UefiShellDebug1CommandsLib:QueryTable.obj
 0001:0009c290       DisplayCacheSRAMType       00000000000ad290 f   UefiShellDebug1CommandsLib:QueryTable.obj
 0001:0009c320       DisplayCacheErrCorrectingType 00000000000ad320 f   UefiShellDebug1CommandsLib:QueryTable.obj
 0001:0009c3e4       DisplayCacheSystemCacheType 00000000000ad3e4 f   UefiShellDebug1CommandsLib:QueryTable.obj
 0001:0009c4a8       DisplayCacheAssociativity  00000000000ad4a8 f   UefiShellDebug1CommandsLib:QueryTable.obj
 0001:0009c56c       DisplayPortConnectorType   00000000000ad56c f   UefiShellDebug1CommandsLib:QueryTable.obj
 0001:0009c630       DisplayPortType            00000000000ad630 f   UefiShellDebug1CommandsLib:QueryTable.obj
 0001:0009c6f4       DisplaySystemSlotType      00000000000ad6f4 f   UefiShellDebug1CommandsLib:QueryTable.obj
 0001:0009c7b8       DisplaySystemSlotDataBusWidth 00000000000ad7b8 f   UefiShellDebug1CommandsLib:QueryTable.obj
 0001:0009c87c       DisplaySystemSlotCurrentUsage 00000000000ad87c f   UefiShellDebug1CommandsLib:QueryTable.obj
 0001:0009c940       DisplaySystemSlotLength    00000000000ad940 f   UefiShellDebug1CommandsLib:QueryTable.obj
 0001:0009ca04       DisplaySlotCharacteristics1 00000000000ada04 f   UefiShellDebug1CommandsLib:QueryTable.obj
 0001:0009ca94       DisplaySlotCharacteristics2 00000000000ada94 f   UefiShellDebug1CommandsLib:QueryTable.obj
 0001:0009cb24       DisplaySystemSlotInformation 00000000000adb24 f   UefiShellDebug1CommandsLib:QueryTable.obj
 0001:0009cbe8       DisplaySystemSlotPhysicalWidth 00000000000adbe8 f   UefiShellDebug1CommandsLib:QueryTable.obj
 0001:0009ccac       DisplaySystemSlotHeight    00000000000adcac f   UefiShellDebug1CommandsLib:QueryTable.obj
 0001:0009cd70       DisplayOnboardDeviceTypes  00000000000add70 f   UefiShellDebug1CommandsLib:QueryTable.obj
 0001:0009ce34       DisplaySELTypes            00000000000ade34 f   UefiShellDebug1CommandsLib:QueryTable.obj
 0001:0009cef8       DisplaySELVarDataFormatType 00000000000adef8 f   UefiShellDebug1CommandsLib:QueryTable.obj
 0001:0009cfbc       DisplayPostResultsBitmapDw1 00000000000adfbc f   UefiShellDebug1CommandsLib:QueryTable.obj
 0001:0009d044       DisplayPostResultsBitmapDw2 00000000000ae044 f   UefiShellDebug1CommandsLib:QueryTable.obj
 0001:0009d0cc       DisplaySELSysManagementTypes 00000000000ae0cc f   UefiShellDebug1CommandsLib:QueryTable.obj
 0001:0009d270       DisplayPMALocation         00000000000ae270 f   UefiShellDebug1CommandsLib:QueryTable.obj
 0001:0009d334       DisplayPMAUse              00000000000ae334 f   UefiShellDebug1CommandsLib:QueryTable.obj
 0001:0009d3f8       DisplayPMAErrorCorrectionTypes 00000000000ae3f8 f   UefiShellDebug1CommandsLib:QueryTable.obj
 0001:0009d4bc       DisplayMemoryDeviceFormFactor 00000000000ae4bc f   UefiShellDebug1CommandsLib:QueryTable.obj
 0001:0009d580       DisplayMemoryDeviceType    00000000000ae580 f   UefiShellDebug1CommandsLib:QueryTable.obj
 0001:0009d644       DisplayMemoryDeviceTypeDetail 00000000000ae644 f   UefiShellDebug1CommandsLib:QueryTable.obj
 0001:0009d6d4       DisplayMemoryDeviceMemoryTechnology 00000000000ae6d4 f   UefiShellDebug1CommandsLib:QueryTable.obj
 0001:0009d798       DisplayMemoryDeviceMemoryOperatingModeCapability 00000000000ae798 f   UefiShellDebug1CommandsLib:QueryTable.obj
 0001:0009d828       DisplayMemoryErrorType     00000000000ae828 f   UefiShellDebug1CommandsLib:QueryTable.obj
 0001:0009d8ec       DisplayMemoryErrorGranularity 00000000000ae8ec f   UefiShellDebug1CommandsLib:QueryTable.obj
 0001:0009d9b0       DisplayMemoryErrorOperation 00000000000ae9b0 f   UefiShellDebug1CommandsLib:QueryTable.obj
 0001:0009da74       DisplayPointingDeviceType  00000000000aea74 f   UefiShellDebug1CommandsLib:QueryTable.obj
 0001:0009db38       DisplayPointingDeviceInterface 00000000000aeb38 f   UefiShellDebug1CommandsLib:QueryTable.obj
 0001:0009dbfc       DisplayPBDeviceChemistry   00000000000aebfc f   UefiShellDebug1CommandsLib:QueryTable.obj
 0001:0009dcc0       DisplayVPLocation          00000000000aecc0 f   UefiShellDebug1CommandsLib:QueryTable.obj
 0001:0009dd94       DisplayVPStatus            00000000000aed94 f   UefiShellDebug1CommandsLib:QueryTable.obj
 0001:0009de60       DisplayCoolingDeviceStatus 00000000000aee60 f   UefiShellDebug1CommandsLib:QueryTable.obj
 0001:0009df34       DisplayCoolingDeviceType   00000000000aef34 f   UefiShellDebug1CommandsLib:QueryTable.obj
 0001:0009e000       DisplayTemperatureProbeStatus 00000000000af000 f   UefiShellDebug1CommandsLib:QueryTable.obj
 0001:0009e0d4       DisplayTemperatureProbeLoc 00000000000af0d4 f   UefiShellDebug1CommandsLib:QueryTable.obj
 0001:0009e1a0       DisplayECPStatus           00000000000af1a0 f   UefiShellDebug1CommandsLib:QueryTable.obj
 0001:0009e274       DisplayECPLoc              00000000000af274 f   UefiShellDebug1CommandsLib:QueryTable.obj
 0001:0009e340       DisplayMDType              00000000000af340 f   UefiShellDebug1CommandsLib:QueryTable.obj
 0001:0009e404       DisplayMDAddressType       00000000000af404 f   UefiShellDebug1CommandsLib:QueryTable.obj
 0001:0009e4c8       DisplayMemoryChannelType   00000000000af4c8 f   UefiShellDebug1CommandsLib:QueryTable.obj
 0001:0009e58c       DisplayIPMIDIBMCInterfaceType 00000000000af58c f   UefiShellDebug1CommandsLib:QueryTable.obj
 0001:0009e650       DisplayMCHostInterfaceType 00000000000af650 f   UefiShellDebug1CommandsLib:QueryTable.obj
 0001:0009e714       DisplayProcessorArchitectureType 00000000000af714 f   UefiShellDebug1CommandsLib:QueryTable.obj
 0001:0009e7d8       DisplayFirmwareCharacteristics 00000000000af7d8 f   UefiShellDebug1CommandsLib:QueryTable.obj
 0001:0009e868       DisplayFirmwareState       00000000000af868 f   UefiShellDebug1CommandsLib:QueryTable.obj
 0001:0009e92c       DisplayStructureTypeInfo   00000000000af92c f   UefiShellDebug1CommandsLib:QueryTable.obj
 0001:0009e9f0       DisplaySELAccessMethod     00000000000af9f0 f   UefiShellDebug1CommandsLib:EventLogInfo.obj
 0001:0009ebb0       DisplaySELLogStatus        00000000000afbb0 f   UefiShellDebug1CommandsLib:EventLogInfo.obj
 0001:0009ed08       DisplaySysEventLogHeaderFormat 00000000000afd08 f   UefiShellDebug1CommandsLib:EventLogInfo.obj
 0001:0009ee2c       DisplaySELLogHeaderLen     00000000000afe2c f   UefiShellDebug1CommandsLib:EventLogInfo.obj
 0001:0009ef20       DisplaySysEventLogHeaderType1 00000000000aff20 f   UefiShellDebug1CommandsLib:EventLogInfo.obj
 0001:0009f1b4       DisplaySysEventLogHeader   00000000000b01b4 f   UefiShellDebug1CommandsLib:EventLogInfo.obj
 0001:0009f2ac       DisplayElVdfInfo           00000000000b02ac f   UefiShellDebug1CommandsLib:EventLogInfo.obj
 0001:0009f598       DisplaySysEventLogData     00000000000b0598 f   UefiShellDebug1CommandsLib:EventLogInfo.obj
 0001:0009f808       LineDup                    00000000000b0808 f   UefiShellDebug1CommandsLib:Misc.obj
 0001:0009f8c8       LineFree                   00000000000b08c8 f   UefiShellDebug1CommandsLib:Misc.obj
 0001:0009f930       ShellInstall1CommandsLibConstructor 00000000000b0930 f   UefiShellInstall1CommandsLib:UefiShellInstall1CommandsLib.obj
 0001:0009f96c       ShellInstall1CommandsLibDestructor 00000000000b096c f   UefiShellInstall1CommandsLib:UefiShellInstall1CommandsLib.obj
 0001:0009f990       ShellCommandGetManFileNameNetwork1 00000000000b0990 f   UefiShellNetwork1CommandsLib:UefiShellNetwork1CommandsLib.obj
 0001:0009f998       ShellNetwork1CommandsLibConstructor 00000000000b0998 f   UefiShellNetwork1CommandsLib:UefiShellNetwork1CommandsLib.obj
 0001:0009fa8c       ShellNetwork1CommandsLibDestructor 00000000000b0a8c f   UefiShellNetwork1CommandsLib:UefiShellNetwork1CommandsLib.obj
 0001:0009fab8       NetChecksum                00000000000b0ab8 f   UefiShellNetwork1CommandsLib:Ping.obj
 0001:0009fb78       RttTimerTickRoutine        00000000000b0b78 f   UefiShellNetwork1CommandsLib:Ping.obj
 0001:0009fba4       GetTimerPeriod             00000000000b0ba4 f   UefiShellNetwork1CommandsLib:Ping.obj
 0001:0009fccc       PingInitRttTimer           00000000000b0ccc f   UefiShellNetwork1CommandsLib:Ping.obj
 0001:0009fda0       PingFreeRttTimer           00000000000b0da0 f   UefiShellNetwork1CommandsLib:Ping.obj
 0001:0009fde8       ReadTime                   00000000000b0de8 f   UefiShellNetwork1CommandsLib:Ping.obj
 0001:0009fdf8       CalculateTick              00000000000b0df8 f   UefiShellNetwork1CommandsLib:Ping.obj
 0001:0009fe2c       PingDestroyTxInfo          00000000000b0e2c f   UefiShellNetwork1CommandsLib:Ping.obj
 0001:0009ffcc       Ping6MatchEchoReply        00000000000b0fcc f   UefiShellNetwork1CommandsLib:Ping.obj
 0001:000a009c       Ping6OnEchoRequestSent     00000000000b109c f   UefiShellNetwork1CommandsLib:Ping.obj
 0001:000a00a8       Ping6OnEchoReplyReceived   00000000000b10a8 f   UefiShellNetwork1CommandsLib:Ping.obj
 0001:000a0518       PingGenerateToken          00000000000b1518 f   UefiShellNetwork1CommandsLib:Ping.obj
 0001:000a08d4       PingSendEchoRequest        00000000000b18d4 f   UefiShellNetwork1CommandsLib:Ping.obj
 0001:000a0a34       Ping6ReceiveEchoReply      00000000000b1a34 f   UefiShellNetwork1CommandsLib:Ping.obj
 0001:000a0b1c       Ping6OnTimerRoutine        00000000000b1b1c f   UefiShellNetwork1CommandsLib:Ping.obj
 0001:000a0d44       PingNetIp4IsLinkLocalAddr  00000000000b1d44 f   UefiShellNetwork1CommandsLib:Ping.obj
 0001:000a0dc4       PingNetIp4IsUnspecifiedAddr 00000000000b1dc4 f   UefiShellNetwork1CommandsLib:Ping.obj
 0001:000a0e04       PingCreateIpInstance       00000000000b1e04 f   UefiShellNetwork1CommandsLib:Ping.obj
 0001:000a1968       Ping6DestroyIp6Instance    00000000000b2968 f   UefiShellNetwork1CommandsLib:Ping.obj
 0001:000a1a30       ShellPing                  00000000000b2a30 f   UefiShellNetwork1CommandsLib:Ping.obj
 0001:000a20fc       ShellCommandRunPing        00000000000b30fc f   UefiShellNetwork1CommandsLib:Ping.obj
 0001:000a25bc       FreeArgList                00000000000b35bc f   UefiShellNetwork1CommandsLib:Ifconfig.obj
 0001:000a2604       SplitStrToList             00000000000b3604 f   UefiShellNetwork1CommandsLib:Ifconfig.obj
 0001:000a2748       IfConfigRetriveCheckListByName 00000000000b3748 f   UefiShellNetwork1CommandsLib:Ifconfig.obj
 0001:000a2880       IfConfigManualAddressNotify 00000000000b3880 f   UefiShellNetwork1CommandsLib:Ifconfig.obj
 0001:000a2894       IfConfigPrintMacAddr       00000000000b3894 f   UefiShellNetwork1CommandsLib:Ifconfig.obj
 0001:000a2994       IfConfigGetInterfaceInfo   00000000000b3994 f   UefiShellNetwork1CommandsLib:Ifconfig.obj
 0001:000a2d58       IfConfigShowInterfaceInfo  00000000000b3d58 f   UefiShellNetwork1CommandsLib:Ifconfig.obj
 0001:000a3700       IfConfigClearInterfaceInfo 00000000000b4700 f   UefiShellNetwork1CommandsLib:Ifconfig.obj
 0001:000a38c0       IfConfigSetInterfaceInfo   00000000000b48c0 f   UefiShellNetwork1CommandsLib:Ifconfig.obj
 0001:000a4408       IfConfig                   00000000000b5408 f   UefiShellNetwork1CommandsLib:Ifconfig.obj
 0001:000a44c8       IfConfigCleanup            00000000000b54c8 f   UefiShellNetwork1CommandsLib:Ifconfig.obj
 0001:000a45cc       ShellCommandRunIfconfig    00000000000b55cc f   UefiShellNetwork1CommandsLib:Ifconfig.obj
 0001:000a4b70       GetDebugPrintErrorLevel    00000000000b5b70 f   BaseDebugPrintErrorLevelLib:BaseDebugPrintErrorLevelLib.obj
 0001:000a4b78       InternalGetReportStatusCode 00000000000b5b78 f   DxeReportStatusCodeLib:ReportStatusCodeLib.obj
 0001:000a4be0       InternalReportStatusCode   00000000000b5be0 f   DxeReportStatusCodeLib:ReportStatusCodeLib.obj
 0001:000a4c98       ReportStatusCodeEx         00000000000b5c98 f   DxeReportStatusCodeLib:ReportStatusCodeLib.obj
 0001:000a4ef4       ReportProgressCodeEnabled  00000000000b5ef4 f   DxeReportStatusCodeLib:ReportStatusCodeLib.obj
 0001:000a4f18       ReportErrorCodeEnabled     00000000000b5f18 f   DxeReportStatusCodeLib:ReportStatusCodeLib.obj
 0001:000a4f3c       ReportDebugCodeEnabled     00000000000b5f3c f   DxeReportStatusCodeLib:ReportStatusCodeLib.obj
 0001:000a4f60       CompareMem                 00000000000b5f60 f   BaseMemoryLib:CompareMemWrapper.obj
 0001:000a5094       QuickSort                  00000000000b6094 f   BaseLib:QuickSort.obj
 0001:000a53a4       MultU64x64                 00000000000b63a4 f   BaseLib:MultU64x64.obj
 0001:000a53d0       ModU64x32                  00000000000b63d0 f   BaseLib:ModU64x32.obj
 0001:000a5424       DivU64x64Remainder         00000000000b6424 f   BaseLib:DivU64x64Remainder.obj
 0001:000a5484       InternalPrint              00000000000b6484 f   UefiLib:UefiLibPrint.obj
 0001:000a55f0       Print                      00000000000b65f0 f   UefiLib:UefiLibPrint.obj
 0001:000a5644       CatVSPrint                 00000000000b6644 f   UefiLib:UefiLibPrint.obj
 0001:000a5790       CatSPrint                  00000000000b6790 f   UefiLib:UefiLibPrint.obj
 0001:000a57e0       EfiGetNameGuidFromFwVolDevicePathNode 00000000000b67e0 f   UefiLib:UefiNotTiano.obj
 0001:000a5858       PeCoffLoaderGetPdbPointer  00000000000b6858 f   BasePeCoffGetEntryPointLib:PeCoffGetEntryPoint.obj
 0001:000a5b88       OrderedCollectionUserStruct 00000000000b6b88 f   BaseOrderedCollectionRedBlackTreeLib:BaseOrderedCollectionRedBlackTreeLib.obj
 0001:000a5b98       OrderedCollectionInit      00000000000b6b98 f   BaseOrderedCollectionRedBlackTreeLib:BaseOrderedCollectionRedBlackTreeLib.obj
 0001:000a5c08       OrderedCollectionIsEmpty   00000000000b6c08 f   BaseOrderedCollectionRedBlackTreeLib:BaseOrderedCollectionRedBlackTreeLib.obj
 0001:000a5c30       OrderedCollectionUninit    00000000000b6c30 f   BaseOrderedCollectionRedBlackTreeLib:BaseOrderedCollectionRedBlackTreeLib.obj
 0001:000a5c84       OrderedCollectionFind      00000000000b6c84 f   BaseOrderedCollectionRedBlackTreeLib:BaseOrderedCollectionRedBlackTreeLib.obj
 0001:000a5d08       OrderedCollectionMin       00000000000b6d08 f   BaseOrderedCollectionRedBlackTreeLib:BaseOrderedCollectionRedBlackTreeLib.obj
 0001:000a5d4c       OrderedCollectionMax       00000000000b6d4c f   BaseOrderedCollectionRedBlackTreeLib:BaseOrderedCollectionRedBlackTreeLib.obj
 0001:000a5d90       OrderedCollectionNext      00000000000b6d90 f   BaseOrderedCollectionRedBlackTreeLib:BaseOrderedCollectionRedBlackTreeLib.obj
 0001:000a5e28       OrderedCollectionPrev      00000000000b6e28 f   BaseOrderedCollectionRedBlackTreeLib:BaseOrderedCollectionRedBlackTreeLib.obj
 0001:000a5ec0       RedBlackTreeRotateRight    00000000000b6ec0 f   BaseOrderedCollectionRedBlackTreeLib:BaseOrderedCollectionRedBlackTreeLib.obj
 0001:000a5f88       RedBlackTreeRotateLeft     00000000000b6f88 f   BaseOrderedCollectionRedBlackTreeLib:BaseOrderedCollectionRedBlackTreeLib.obj
 0001:000a6050       OrderedCollectionInsert    00000000000b7050 f   BaseOrderedCollectionRedBlackTreeLib:BaseOrderedCollectionRedBlackTreeLib.obj
 0001:000a6484       NodeIsNullOrBlack          00000000000b7484 f   BaseOrderedCollectionRedBlackTreeLib:BaseOrderedCollectionRedBlackTreeLib.obj
 0001:000a64b4       OrderedCollectionDelete    00000000000b74b4 f   BaseOrderedCollectionRedBlackTreeLib:BaseOrderedCollectionRedBlackTreeLib.obj
 0001:000a6d18       RedBlackTreeRecursiveCheck 00000000000b7d18 f   BaseOrderedCollectionRedBlackTreeLib:BaseOrderedCollectionRedBlackTreeLib.obj
 0001:000a6e84       RedBlackTreeValidate       00000000000b7e84 f   BaseOrderedCollectionRedBlackTreeLib:BaseOrderedCollectionRedBlackTreeLib.obj
 0001:000a7124       IoRead8                    00000000000b8124 f   BaseIoLibIntrinsic:IoLibMsc.obj
 0001:000a7190       IoWrite8                   00000000000b8190 f   BaseIoLibIntrinsic:IoLibMsc.obj
 0001:000a7200       IoRead16                   00000000000b8200 f   BaseIoLibIntrinsic:IoLibMsc.obj
 0001:000a72ac       IoWrite16                  00000000000b82ac f   BaseIoLibIntrinsic:IoLibMsc.obj
 0001:000a735c       IoRead32                   00000000000b835c f   BaseIoLibIntrinsic:IoLibMsc.obj
 0001:000a7404       IoWrite32                  00000000000b8404 f   BaseIoLibIntrinsic:IoLibMsc.obj
 0001:000a74b0       IoRead64                   00000000000b84b0 f   BaseIoLibIntrinsic:IoLib.obj
 0001:000a74f4       IoWrite64                  00000000000b84f4 f   BaseIoLibIntrinsic:IoLib.obj
 0001:000a753c       MmioRead8                  00000000000b853c f   BaseIoLibIntrinsic:IoLib.obj
 0001:000a75b0       MmioWrite8                 00000000000b85b0 f   BaseIoLibIntrinsic:IoLib.obj
 0001:000a7628       MmioRead16                 00000000000b8628 f   BaseIoLibIntrinsic:IoLib.obj
 0001:000a76dc       MmioWrite16                00000000000b86dc f   BaseIoLibIntrinsic:IoLib.obj
 0001:000a7798       MmioRead32                 00000000000b8798 f   BaseIoLibIntrinsic:IoLib.obj
 0001:000a7848       MmioWrite32                00000000000b8848 f   BaseIoLibIntrinsic:IoLib.obj
 0001:000a78fc       MmioRead64                 00000000000b88fc f   BaseIoLibIntrinsic:IoLib.obj
 0001:000a79b0       MmioWrite64                00000000000b89b0 f   BaseIoLibIntrinsic:IoLib.obj
 0001:000a7a6c       IsTdxGuest                 00000000000b8a6c f   BaseIoLibIntrinsic:IoLibInternalTdxNull.obj
 0001:000a7a70       TdIoRead8                  00000000000b8a70 f   BaseIoLibIntrinsic:IoLibInternalTdxNull.obj
 0001:000a7ab4       TdIoRead16                 00000000000b8ab4 f   BaseIoLibIntrinsic:IoLibInternalTdxNull.obj
 0001:000a7af8       TdIoRead32                 00000000000b8af8 f   BaseIoLibIntrinsic:IoLibInternalTdxNull.obj
 0001:000a7b3c       TdIoWrite8                 00000000000b8b3c f   BaseIoLibIntrinsic:IoLibInternalTdxNull.obj
 0001:000a7b84       TdIoWrite16                00000000000b8b84 f   BaseIoLibIntrinsic:IoLibInternalTdxNull.obj
 0001:000a7bcc       TdIoWrite32                00000000000b8bcc f   BaseIoLibIntrinsic:IoLibInternalTdxNull.obj
 0001:000a7c14       TdMmioRead8                00000000000b8c14 f   BaseIoLibIntrinsic:IoLibInternalTdxNull.obj
 0001:000a7c58       TdMmioWrite8               00000000000b8c58 f   BaseIoLibIntrinsic:IoLibInternalTdxNull.obj
 0001:000a7ca0       TdMmioRead16               00000000000b8ca0 f   BaseIoLibIntrinsic:IoLibInternalTdxNull.obj
 0001:000a7ce4       TdMmioWrite16              00000000000b8ce4 f   BaseIoLibIntrinsic:IoLibInternalTdxNull.obj
 0001:000a7d2c       TdMmioRead32               00000000000b8d2c f   BaseIoLibIntrinsic:IoLibInternalTdxNull.obj
 0001:000a7d70       TdMmioWrite32              00000000000b8d70 f   BaseIoLibIntrinsic:IoLibInternalTdxNull.obj
 0001:000a7db8       TdMmioRead64               00000000000b8db8 f   BaseIoLibIntrinsic:IoLibInternalTdxNull.obj
 0001:000a7dfc       TdMmioWrite64              00000000000b8dfc f   BaseIoLibIntrinsic:IoLibInternalTdxNull.obj
 0001:000a7e44       UpdateOptionalData         00000000000b8e44 f   UefiShellBcfgCommandLib:UefiShellBcfgCommandLib.obj
 0001:000a8100       GetBootOptionCrc           00000000000b9100 f   UefiShellBcfgCommandLib:UefiShellBcfgCommandLib.obj
 0001:000a8208       GetDevicePathForDriverHandle 00000000000b9208 f   UefiShellBcfgCommandLib:UefiShellBcfgCommandLib.obj
 0001:000a8314       GetDevicePathByHandle      00000000000b9314 f   UefiShellBcfgCommandLib:UefiShellBcfgCommandLib.obj
 0001:000a8530       BcfgMod                    00000000000b9530 f   UefiShellBcfgCommandLib:UefiShellBcfgCommandLib.obj
 0001:000a8af0       BcfgAdd                    00000000000b9af0 f   UefiShellBcfgCommandLib:UefiShellBcfgCommandLib.obj
 0001:000a9600       BcfgRemove                 00000000000ba600 f   UefiShellBcfgCommandLib:UefiShellBcfgCommandLib.obj
 0001:000a988c       BcfgMove                   00000000000ba88c f   UefiShellBcfgCommandLib:UefiShellBcfgCommandLib.obj
 0001:000a9ad0       BcfgAddOpt                 00000000000baad0 f   UefiShellBcfgCommandLib:UefiShellBcfgCommandLib.obj
 0001:000aa84c       BcfgDisplayDump            00000000000bb84c f   UefiShellBcfgCommandLib:UefiShellBcfgCommandLib.obj
 0001:000aac28       InitBcfgStruct             00000000000bbc28 f   UefiShellBcfgCommandLib:UefiShellBcfgCommandLib.obj
 0001:000aacd8       ShellCommandRunBcfg        00000000000bbcd8 f   UefiShellBcfgCommandLib:UefiShellBcfgCommandLib.obj
 0001:000ac9f0       ShellCommandGetManFileNameBcfg 00000000000bd9f0 f   UefiShellBcfgCommandLib:UefiShellBcfgCommandLib.obj
 0001:000ac9f8       BcfgLibraryRegisterBcfgCommand 00000000000bd9f8 f   UefiShellBcfgCommandLib:UefiShellBcfgCommandLib.obj
 0001:000aca9c       BcfgLibraryUnregisterBcfgCommand 00000000000bda9c f   UefiShellBcfgCommandLib:UefiShellBcfgCommandLib.obj
 0001:000acad4       NetGetMaskLength           00000000000bdad4 f   DxeNetLib:DxeNetLib.obj
 0001:000acb1c       NetIp4IsUnicast            00000000000bdb1c f   DxeNetLib:DxeNetLib.obj
 0001:000acbf4       NetIp6IsUnspecifiedAddr    00000000000bdbf4 f   DxeNetLib:DxeNetLib.obj
 0001:000acc6c       NetIp6IsLinkLocalAddr      00000000000bdc6c f   DxeNetLib:DxeNetLib.obj
 0001:000acd1c       NetLibGetSnpHandle         00000000000bdd1c f   DxeNetLib:DxeNetLib.obj
 0001:000ace24       NetLibDetectMedia          00000000000bde24 f   DxeNetLib:DxeNetLib.obj
 0001:000ad18c       NetLibDetectMediaWaitTimeout 00000000000be18c f   DxeNetLib:DxeNetLib.obj
 0001:000ad558       NetLibStrToIp4             00000000000be558 f   DxeNetLib:DxeNetLib.obj
 0001:000ad5ac       NetLibStrToIp6             00000000000be5ac f   DxeNetLib:DxeNetLib.obj
 0001:000ad600       NetAddChecksum             00000000000be600 f   DxeNetLib:NetBuffer.obj
 0001:000ad640       FilterBeforeMmIoWrite      00000000000be640 f   FilterLibNull:RegisterFilterLibNull.obj
 0001:000ad640       FilterBeforeIoRead         00000000000be640 f   FilterLibNull:RegisterFilterLibNull.obj
 0001:000ad640       FilterBeforeMmIoRead       00000000000be640 f   FilterLibNull:RegisterFilterLibNull.obj
 0001:000ad640       FilterBeforeIoWrite        00000000000be640 f   FilterLibNull:RegisterFilterLibNull.obj
 0001:000ad654       FilterAfterIoWrite         00000000000be654 f   FilterLibNull:RegisterFilterLibNull.obj
 0001:000ad654       FilterAfterMmIoRead        00000000000be654 f   FilterLibNull:RegisterFilterLibNull.obj
 0001:000ad654       FilterAfterMmIoWrite       00000000000be654 f   FilterLibNull:RegisterFilterLibNull.obj
 0001:000ad654       FilterAfterIoRead          00000000000be654 f   FilterLibNull:RegisterFilterLibNull.obj
 0001:000ad664       MemoryFence                00000000000be664 f   BaseLib:X86MemoryFence.obj
 0001:000ad668       EfiBootManagerLoadOptionToVariable 00000000000be668 f   UefiBootManagerLib:BmLoadOption.obj
 0001:000ad9e4       EfiBootManagerInitializeLoadOption 00000000000be9e4 f   UefiBootManagerLib:BmLoadOption.obj
 0001:000adb04       BmGetDevicePathSizeEx      00000000000beb04 f   UefiBootManagerLib:BmLoadOption.obj
 0001:000adbc0       BmStrSizeEx                00000000000bebc0 f   UefiBootManagerLib:BmLoadOption.obj
 0001:000adcac       BmValidateOption           00000000000becac f   UefiBootManagerLib:BmLoadOption.obj
 0001:000add88       EfiBootManagerIsValidLoadOptionVariableName 00000000000bed88 f   UefiBootManagerLib:BmLoadOption.obj
 0001:000adf00       EfiBootManagerVariableToLoadOptionEx 00000000000bef00 f   UefiBootManagerLib:BmLoadOption.obj
 0001:000ae188       EfiBootManagerVariableToLoadOption 00000000000bf188 f   UefiBootManagerLib:BmLoadOption.obj
 0001:000ae1b4       EfiBootManagerFreeLoadOption 00000000000bf1b4 f   UefiBootManagerLib:BmLoadOption.obj
 0001:000ae228       BmCharToUint               00000000000bf228 f   UefiBootManagerLib:BmMisc.obj
 0001:000ae30c       CreateBasicVariablePolicy  00000000000bf30c f   VariablePolicyHelperLib:VariablePolicyHelperLib.obj
 0001:000ae4e8       RegisterBasicVariablePolicy 00000000000bf4e8 f   VariablePolicyHelperLib:VariablePolicyHelperLib.obj
 0002:00000000       _gUefiDriverRevision       00000000000c0000     Shell:AutoGen.obj
 0002:00000000       _gPcd_FixedAtBuild_PcdShellVendorExtendedDecode 00000000000c0000     Shell:AutoGen.obj
 0002:00000000       _gPcd_FixedAtBuild_PcdMaximumDevicePathNodeCount 00000000000c0000     Shell:AutoGen.obj
 0002:00000004       ??_C@_05OJBIAJFH@Shell@    00000000000c0004     Shell:AutoGen.obj
 0002:00000010       ??_C@_0CB@DMEJJJHA@?6ASSERT_EFI_ERROR?5?$CIStatus?5?$DN?5?$CFr?$CJ@ 00000000000c0010     Shell:AutoGen.obj
 0002:00000038       ??_C@_0CH@BBNBJKHK@?$CB?$CI?$CI?$CIINTN?$CJ?$CIRETURN_STATUS?$CJ?$CIStatus@ 00000000000c0038     Shell:AutoGen.obj
 0002:00000060       ??_C@_0GF@HCHHIKBA@f?3?2uefiworkspace?2Build?2Emulator@ 00000000000c0060     Shell:AutoGen.obj
 0002:000000c8       _gPcd_FixedAtBuild_PcdMaximumAsciiStringLength 00000000000c00c8     Shell:AutoGen.obj
 0002:000000c8       _gPcd_FixedAtBuild_PcdMaximumUnicodeStringLength 00000000000c00c8     Shell:AutoGen.obj
 0002:000000c8       _gPcd_FixedAtBuild_PcdMaximumLinkedListLength 00000000000c00c8     Shell:AutoGen.obj
 0002:000000cc       _gPcd_FixedAtBuild_PcdReportStatusCodePropertyMask 00000000000c00cc     Shell:AutoGen.obj
 0002:000000d0       _gPcd_FixedAtBuild_PcdShellMaxHistoryCommandCount 00000000000c00d0     Shell:AutoGen.obj
 0002:000000d2       _gPcd_FixedAtBuild_PcdShellDecodeIScsiMapNames 00000000000c00d2     Shell:AutoGen.obj
 0002:000000d2       _gPcd_FixedAtBuild_PcdShellSupportFrameworkHii 00000000000c00d2     Shell:AutoGen.obj
 0002:000000d2       _gPcd_FixedAtBuild_PcdShellSupportOldProtocols 00000000000c00d2     Shell:AutoGen.obj
 0002:000000d2       _gPcd_FixedAtBuild_PcdValidateOrderedCollection 00000000000c00d2     Shell:AutoGen.obj
 0002:000000d2       _gPcd_FixedAtBuild_PcdShellLibAutoInitialize 00000000000c00d2     Shell:AutoGen.obj
 0002:000000d2       _gPcd_FixedAtBuild_PcdShellPageBreakDefault 00000000000c00d2     Shell:AutoGen.obj
 0002:000000d2       _gPcd_FixedAtBuild_PcdShellForceConsole 00000000000c00d2     Shell:AutoGen.obj
 0002:000000d2       _gPcd_FixedAtBuild_PcdVerifyNodeInList 00000000000c00d2     Shell:AutoGen.obj
 0002:000000d8       _gPcd_FixedAtBuild_PcdShellSupplier 00000000000c00d8     Shell:AutoGen.obj
 0002:000000e8       _gPcd_FixedAtBuild_PcdShellFileOperationSize 00000000000c00e8     Shell:AutoGen.obj
 0002:000000ec       _gPcd_FixedAtBuild_PcdShellSupportLevel 00000000000c00ec     Shell:AutoGen.obj
 0002:000000ec       _gPcd_FixedAtBuild_PcdShellScreenLogCount 00000000000c00ec     Shell:AutoGen.obj
 0002:000000f0       _gPcd_FixedAtBuild_PcdDebugPrintErrorLevel 00000000000c00f0     Shell:AutoGen.obj
 0002:000000f4       _gPcd_FixedAtBuild_PcdShellMapNameLength 00000000000c00f4     Shell:AutoGen.obj
 0002:000000f8       _gPcd_FixedAtBuild_PcdUefiLibMaxPrintBufferSize 00000000000c00f8     Shell:AutoGen.obj
 0002:000000fc       _gPcd_FixedAtBuild_PcdFixedDebugPrintErrorLevel 00000000000c00fc     Shell:AutoGen.obj
 0002:00000100       _gPcd_FixedAtBuild_PcdShellDefaultDelay 00000000000c0100     Shell:AutoGen.obj
 0002:00000104       _gPcd_FixedAtBuild_PcdShellInsertModeDefault 00000000000c0104     Shell:AutoGen.obj
 0002:00000104       _gPcd_FixedAtBuild_PcdShellRequireHiiPlatform 00000000000c0104     Shell:AutoGen.obj
 0002:00000104       _gPcd_FixedAtBuild_PcdShellIncludeNtGuids 00000000000c0104     Shell:AutoGen.obj
 0002:00000104       _gPcd_FixedAtBuild_PcdUsbExtendedDecode 00000000000c0104     Shell:AutoGen.obj
 0002:00000105       _gPcd_FixedAtBuild_PcdDebugPropertyMask 00000000000c0105     Shell:AutoGen.obj
 0002:00000105       _gPcd_FixedAtBuild_PcdShellProfileMask 00000000000c0105     Shell:AutoGen.obj
 0002:00000108       _gPcd_FixedAtBuild_PcdShellPrintBufferSize 00000000000c0108     Shell:AutoGen.obj
 0002:00000110       ??_C@_0BH@MAAHKCPC@String?5?$CB?$DN?5?$CI?$CIvoid?5?$CK?$CJ?50?$CJ@ 00000000000c0110     Shell:Shell.obj
 0002:00000128       ??_C@_0DJ@JNIJHBLN@f?3?2uefiworkspace?2edk2?2ShellPkg?2@ 00000000000c0128     Shell:Shell.obj
 0002:00000168       ??_C@_0BI@OEIGECFN@?$CKString?5?$CB?$DN?5?$CI?$CIvoid?5?$CK?$CJ?50?$CJ@ 00000000000c0168     Shell:Shell.obj
 0002:00000180       ??_C@_0BN@CKKOOFHH@BeginPercent?5?$CB?$DN?5?$CI?$CIvoid?5?$CK?$CJ?50?$CJ@ 00000000000c0180     Shell:Shell.obj
 0002:000001a0       ??_C@_0BL@NCMDLNBA@EndPercent?5?$CB?$DN?5?$CI?$CIvoid?5?$CK?$CJ?50?$CJ@ 00000000000c01a0     Shell:Shell.obj
 0002:000001c0       ??_C@_0BK@LACMFILE@BeginPercent?5?$DM?5EndPercent@ 00000000000c01c0     Shell:Shell.obj
 0002:000001dc       ??_C@_13NEIAEHFG@?$AA?$CC@ 00000000000c01dc     Shell:Shell.obj
 0002:000001e0       ??_C@_13PPFCDPMH@?$AA?$HM@ 00000000000c01e0     Shell:Shell.obj
 0002:000001e8       ??_C@_0CE@PEJIEDGL@ShellInfoObject?4LogScreenCount?5@ 00000000000c01e8     Shell:Shell.obj
 0002:00000210       ??_C@_0DL@HPCOOOPC@ShellInfoObject?4NewShellParamet@ 00000000000c0210     Shell:Shell.obj
 0002:00000250       ??_C@_0DE@NALNPBBL@ShellInfoObject?4NewEfiShellProt@ 00000000000c0250     Shell:Shell.obj
 0002:00000288       ??_C@_1M@GDFLIJGE@?$AAF?$AAa?$AAl?$AAs?$AAe@ 00000000000c0288     Shell:Shell.obj
 0002:00000298       ??_C@_17HJKEOJJP@?$AAm?$AAa?$AAp@ 00000000000c0298     Shell:Shell.obj
 0002:000002a0       ??_C@_1BC@JPGJMLGC@?$AAp?$AAr?$AAo?$AAf?$AAi?$AAl?$AAe?$AAs@ 00000000000c02a0     Shell:Shell.obj
 0002:000002b4       ??_C@_15KNBIKKIN@?$AA?$CF?$AAd@ 00000000000c02b4     Shell:Shell.obj
 0002:000002c0       ??_C@_1CC@OOEJBCHO@?$AAu?$AAe?$AAf?$AAi?$AAs?$AAh?$AAe?$AAl?$AAl?$AAs?$AAu?$AAp?$AAp?$AAo?$AAr@ 00000000000c02c0     Shell:Shell.obj
 0002:000002e8       ??_C@_1M@NDGNLFMH@?$AA?$CF?$AAd?$AA?4?$AA?$CF?$AAd@ 00000000000c02e8     Shell:Shell.obj
 0002:000002f8       ??_C@_1CC@LDCNHJKB@?$AAu?$AAe?$AAf?$AAi?$AAs?$AAh?$AAe?$AAl?$AAl?$AAv?$AAe?$AAr?$AAs?$AAi?$AAo@ 00000000000c02f8     Shell:Shell.obj
 0002:00000320       ??_C@_1BI@BCLCNCIC@?$AAu?$AAe?$AAf?$AAi?$AAv?$AAe?$AAr?$AAs?$AAi?$AAo?$AAn@ 00000000000c0320     Shell:Shell.obj
 0002:00000338       ??_C@_0CM@IAGDMIGD@ShellInfoObject?4ConsoleInfo?5?$CB?$DN?5@ 00000000000c0338     Shell:Shell.obj
 0002:00000368       ??_C@_17GGNKNKOD@?$AAc?$AAw?$AAd@ 00000000000c0368     Shell:Shell.obj
 0002:00000370       ??_C@_0BC@FEDIJHFF@?$CI?$CIBOOLEAN?$CJ?$CI0?$DN?$DN1?$CJ?$CJ@ 00000000000c0370     Shell:Shell.obj
 0002:00000388       ??_C@_17LEMNFMDC@?$AAf?$AAo?$AAr@ 00000000000c0388     Shell:Shell.obj
 0002:00000390       ??_C@_1O@BBEFAAME@?$AAe?$AAn?$AAd?$AAf?$AAo?$AAr@ 00000000000c0390     Shell:Shell.obj
 0002:000003a0       ??_C@_15HPILKIBB@?$AAi?$AAf@ 00000000000c03a0     Shell:Shell.obj
 0002:000003a8       ??_C@_19CNLBJFBH@?$AAe?$AAl?$AAs?$AAe@ 00000000000c03a8     Shell:Shell.obj
 0002:000003b8       ??_C@_1M@JOOCEOEH@?$AAe?$AAn?$AAd?$AAi?$AAf@ 00000000000c03b8     Shell:Shell.obj
 0002:000003c8       ??_C@_19NFHDJCBF@?$AAg?$AAo?$AAt?$AAo@ 00000000000c03c8     Shell:Shell.obj
 0002:000003d8       ??_C@_0BI@OIEOGPFD@DevPath?5?$CB?$DN?5?$CI?$CIvoid?5?$CK?$CJ?50?$CJ@ 00000000000c03d8     Shell:Shell.obj
 0002:000003f0       ??_C@_0BJ@LNALCLOM@FilePath?5?$CB?$DN?5?$CI?$CIvoid?5?$CK?$CJ?50?$CJ@ 00000000000c03f0     Shell:Shell.obj
 0002:00000410       ??_C@_1BC@GKOFKKJK@?$AA?9?$AAs?$AAt?$AAa?$AAr?$AAt?$AAu?$AAp@ 00000000000c0410     Shell:Shell.obj
 0002:00000428       ??_C@_1BG@FGCHDHKN@?$AA?9?$AAn?$AAo?$AAs?$AAt?$AAa?$AAr?$AAt?$AAu?$AAp@ 00000000000c0428     Shell:Shell.obj
 0002:00000440       ??_C@_1BM@PMGGPCI@?$AA?9?$AAn?$AAo?$AAc?$AAo?$AAn?$AAs?$AAo?$AAl?$AAe?$AAo?$AAu?$AAt@ 00000000000c0440     Shell:Shell.obj
 0002:00000460       ??_C@_1BK@IANHHEEL@?$AA?9?$AAn?$AAo?$AAc?$AAo?$AAn?$AAs?$AAo?$AAl?$AAe?$AAi?$AAn@ 00000000000c0460     Shell:Shell.obj
 0002:00000480       ??_C@_1BK@HIGCBJDG@?$AA?9?$AAn?$AAo?$AAi?$AAn?$AAt?$AAe?$AAr?$AAr?$AAu?$AAp?$AAt@ 00000000000c0480     Shell:Shell.obj
 0002:000004a0       ??_C@_1O@FGCMKHFJ@?$AA?9?$AAn?$AAo?$AAm?$AAa?$AAp@ 00000000000c04a0     Shell:Shell.obj
 0002:000004b0       ??_C@_1BG@LGLCEGDI@?$AA?9?$AAn?$AAo?$AAv?$AAe?$AAr?$AAs?$AAi?$AAo?$AAn@ 00000000000c04b0     Shell:Shell.obj
 0002:000004c8       ??_C@_1BA@COHPHGOG@?$AA?9?$AAn?$AAo?$AAn?$AAe?$AAs?$AAt@ 00000000000c04c8     Shell:Shell.obj
 0002:000004d8       ??_C@_1O@BKJLJAOF@?$AA?9?$AAd?$AAe?$AAl?$AAa?$AAy@ 00000000000c04d8     Shell:Shell.obj
 0002:000004e8       ??_C@_1M@IBGJMPMO@?$AA?9?$AAe?$AAx?$AAi?$AAt@ 00000000000c04e8     Shell:Shell.obj
 0002:000004f4       ??_C@_13IMODFHAA@?$AA?9@   00000000000c04f4     Shell:Shell.obj
 0002:000004f8       ??_C@_13HOIJIPNN@?$AA?5@   00000000000c04f8     Shell:Shell.obj
 0002:00000500       ??_C@_0JA@FNLKFKGO@?$CIShellInfoObject?4ShellInitSetti@ 00000000000c0500     Shell:Shell.obj
 0002:00000590       ??_C@_13PJJBFPED@?$AA?$DL@ 00000000000c0590     Shell:Shell.obj
 0002:00000598       ??_C@_1BO@FLDKLBBG@?$AAh?$AAo?$AAm?$AAe?$AAf?$AAi?$AAl?$AAe?$AAs?$AAy?$AAs?$AAt?$AAe?$AAm@ 00000000000c0598     Shell:Shell.obj
 0002:000005b8       ??_C@_13EJFHHPOP@?$AA?$CF@ 00000000000c05b8     Shell:Shell.obj
 0002:000005c0       ??_C@_0CE@LJCHIGCM@OriginalCommandLine?5?$CB?$DN?5?$CI?$CIvoid?5?$CK@ 00000000000c05c0     Shell:Shell.obj
 0002:000005e4       ??_C@_15OPFFGINH@?$AA?$FO?$AA?$CF@ 00000000000c05e4     Shell:Shell.obj
 0002:000005f0       ??_C@_0BH@NPJELEAM@StdOut?5?$DN?$DN?5?$CI?$CIvoid?5?$CK?$CJ?50?$CJ@ 00000000000c05f0     Shell:Shell.obj
 0002:00000608       ??_C@_0CH@EMNPLADO@StrStr?5?$CICmdLine?0?5L?$CC?$HM?$CC?$CJ?5?$CB?$DN?5?$CI?$CIvoi@ 00000000000c0608     Shell:Shell.obj
 0002:00000630       ??_C@_0CD@IEFOICLO@Split?9?$DOSplitStdOut?5?$CB?$DN?5?$CI?$CIvoid?5?$CK?$CJ@ 00000000000c0630     Shell:Shell.obj
 0002:00000660       ??_C@_0EG@BGEHLAMA@?$CISPLIT_LIST?5?$CK?$CJGetFirstNode?5?$CI?$CGSh@ 00000000000c0660     Shell:Shell.obj
 0002:000006a8       ??_C@_0BI@CCIALOMF@CmdLine?5?$CB?$DN?5?$CI?$CIvoid?5?$CK?$CJ?50?$CJ@ 00000000000c06a8     Shell:Shell.obj
 0002:000006c0       ??_C@_0BJ@GEMNIBFM@?$CKCmdLine?5?$CB?$DN?5?$CI?$CIvoid?5?$CK?$CJ?50?$CJ@ 00000000000c06c0     Shell:Shell.obj
 0002:000006dc       ??_C@_13EBCNDICG@?$AA?3@   00000000000c06dc     Shell:Shell.obj
 0002:000006e0       ??_C@_0FA@ICMJJMLF@CmdLine?$FL?$CIStrLen?5?$CICmdLine?$CJ?91?$CJ?$FN?5?$DN@ 00000000000c06e0     Shell:Shell.obj
 0002:00000730       ??_C@_15FNEHKAED@?$AA?9?$AA?$DP@ 00000000000c0730     Shell:Shell.obj
 0002:00000738       ??_C@_1M@LBOOPLFJ@?$AAh?$AAe?$AAl?$AAp?$AA?5@ 00000000000c0738     Shell:Shell.obj
 0002:00000748       ??_C@_1M@BCBKOEKO@?$AA0?$AAx?$AA?$CF?$AAL?$AAx@ 00000000000c0748     Shell:Shell.obj
 0002:00000758       ??_C@_19PCNJIDGC@?$AA0?$AAx?$AA?$CF?$AAx@ 00000000000c0758     Shell:Shell.obj
 0002:00000768       ??_C@_1BO@PIKGDIKH@?$AAd?$AAe?$AAb?$AAu?$AAg?$AAl?$AAa?$AAs?$AAt?$AAe?$AAr?$AAr?$AAo?$AAr@ 00000000000c0768     Shell:Shell.obj
 0002:00000788       ??_C@_1BE@JFEAOBEI@?$AAl?$AAa?$AAs?$AAt?$AAe?$AAr?$AAr?$AAo?$AAr@ 00000000000c0788     Shell:Shell.obj
 0002:0000079c       ??_C@_13HGPDMIBE@?$AA?$DP@ 00000000000c079c     Shell:Shell.obj
 0002:000007a0       ??_C@_0CA@IECHPILJ@CommandWithPath?5?$DN?$DN?5?$CI?$CIvoid?5?$CK?$CJ?50?$CJ@ 00000000000c07a0     Shell:Shell.obj
 0002:000007c0       ??_C@_0CA@MFCCBFOP@CommandWithPath?5?$CB?$DN?5?$CI?$CIvoid?5?$CK?$CJ?50?$CJ@ 00000000000c07c0     Shell:Shell.obj
 0002:000007e0       ??_C@_0BO@FIAKEDAD@?$CBShellCommandGetScriptExit?5?$CI?$CJ@ 00000000000c07e0     Shell:Shell.obj
 0002:00000800       ??_C@_0CK@GPOFFFON@NewScriptFile?9?$DOScriptName?5?$DN?$DN?5?$CI?$CI@ 00000000000c0800     Shell:Shell.obj
 0002:00000830       ??_C@_0CN@MDCLIFIC@NewScriptFile?9?$DOArgv?$FLLoopVar?$FN?5?$DN?$DN@ 00000000000c0830     Shell:Shell.obj
 0002:00000860       ??_C@_0BN@OPFOFCIN@CommandLine2?5?$CB?$DN?5?$CI?$CIvoid?5?$CK?$CJ?50?$CJ@ 00000000000c0860     Shell:Shell.obj
 0002:00000880       ??_C@_15JEHPHNPC@?$AA?$CF?$AA9@ 00000000000c0880     Shell:Shell.obj
 0002:00000888       ??_C@_15CMMDBKJH@?$AA?$CF?$AA8@ 00000000000c0888     Shell:Shell.obj
 0002:00000890       ??_C@_15HEKAAKMB@?$AA?$CF?$AA7@ 00000000000c0890     Shell:Shell.obj
 0002:00000898       ??_C@_15MMBMGNKE@?$AA?$CF?$AA6@ 00000000000c0898     Shell:Shell.obj
 0002:000008a0       ??_C@_15NOKJMCEK@?$AA?$CF?$AA5@ 00000000000c08a0     Shell:Shell.obj
 0002:000008a8       ??_C@_15GGBFKFCP@?$AA?$CF?$AA4@ 00000000000c08a8     Shell:Shell.obj
 0002:000008b0       ??_C@_15PLMCJNJG@?$AA?$CF?$AA3@ 00000000000c08b0     Shell:Shell.obj
 0002:000008b8       ??_C@_15EDHOPKPD@?$AA?$CF?$AA2@ 00000000000c08b8     Shell:Shell.obj
 0002:000008c0       ??_C@_15FBMLFFBN@?$AA?$CF?$AA1@ 00000000000c08c0     Shell:Shell.obj
 0002:000008c8       ??_C@_15OJHHDCHI@?$AA?$CF?$AA0@ 00000000000c08c8     Shell:Shell.obj
 0002:000008d0       ??_C@_15OGCJNNE@?$AA?$CC?$AA?$CC@ 00000000000c08d0     Shell:Shell.obj
 0002:000008d8       ??_C@_1BG@GPPJNEOI@?$AA?$EA?$AAe?$AAc?$AAh?$AAo?$AA?5?$AA?9?$AAo?$AAf?$AAf@ 00000000000c08d8     Shell:Shell.obj
 0002:000008f0       ??_C@_1BE@DMFNHPCI@?$AA?$EA?$AAe?$AAc?$AAh?$AAo?$AA?5?$AA?9?$AAo?$AAn@ 00000000000c08f0     Shell:Shell.obj
 0002:00000908       ??_C@_19EEPNDKNE@?$AA?$CF?$AAs?$AA?$AN?$AA?6@ 00000000000c0908     Shell:Shell.obj
 0002:00000918       mNoNestingEnvVarName       00000000000c0918     Shell:Shell.obj
 0002:00000958       mNoNestingTrue             00000000000c0958     Shell:Shell.obj
 0002:00000980       ??_C@_0FE@BCKIOHKK@?$CIPathForReturn?5?$DN?$DN?5?$CI?$CIvoid?5?$CK?$CJ?50?$CJ?5@ 00000000000c0980     Shell:ShellProtocol.obj
 0002:000009e0       ??_C@_0EB@DNDCEGDF@f?3?2uefiworkspace?2edk2?2ShellPkg?2@ 00000000000c09e0     Shell:ShellProtocol.obj
 0002:00000a28       ??_C@_0BP@OFJBBFCN@DevicePathCopy?5?$CB?$DN?5?$CI?$CIvoid?5?$CK?$CJ?50?$CJ@ 00000000000c0a28     Shell:ShellProtocol.obj
 0002:00000a48       ??_C@_0BM@DBMGMBPA@MapPathCopy?5?$CB?$DN?5?$CI?$CIvoid?5?$CK?$CJ?50?$CJ@ 00000000000c0a48     Shell:ShellProtocol.obj
 0002:00000a64       ??_C@_13FPGAJAPJ@?$AA?2@   00000000000c0a64     Shell:ShellProtocol.obj
 0002:00000a70       ??_C@_0EE@BCOIFDNA@?$CIMapName?5?$DN?$DN?5?$CI?$CIvoid?5?$CK?$CJ?50?$CJ?5?$CG?$CG?5Siz@ 00000000000c0a70     Shell:ShellProtocol.obj
 0002:00000ab8       ??_C@_0BP@KDOFGGLG@BestDeviceName?5?$CB?$DN?5?$CI?$CIvoid?5?$CK?$CJ?50?$CJ@ 00000000000c0ab8     Shell:ShellProtocol.obj
 0002:00000ad8       ??_C@_15DOBJMHMB@?$AA?$DO?$AAv@ 00000000000c0ad8     Shell:ShellProtocol.obj
 0002:00000ae0       ??_C@_15DGGDIAAI@?$AA?$DO?$AAi@ 00000000000c0ae0     Shell:ShellProtocol.obj
 0002:00000ae8       ??_C@_0BM@CPHPCMLA@?$CKFileHandle?5?$CB?$DN?5?$CI?$CIvoid?5?$CK?$CJ?50?$CJ@ 00000000000c0ae8     Shell:ShellProtocol.obj
 0002:00000b04       ??_C@_15BDAINPNE@?$AA?$DO?$AAo@ 00000000000c0b04     Shell:ShellProtocol.obj
 0002:00000b10       ??_C@_17CLELIOII@?$AAN?$AAU?$AAL@ 00000000000c0b10     Shell:ShellProtocol.obj
 0002:00000b18       ??_C@_19CIJIHAKK@?$AAN?$AAU?$AAL?$AAL@ 00000000000c0b18     Shell:ShellProtocol.obj
 0002:00000b24       ??_C@_15HMLFDPLA@?$AA?$DO?$AAe@ 00000000000c0b24     Shell:ShellProtocol.obj
 0002:00000b30       ??_C@_0CC@JOLAKDKP@LoadedImage?9?$DOLoadOptionsSize?5?$DN?$DN@ 00000000000c0b30     Shell:ShellProtocol.obj
 0002:00000b58       ??_C@_0CO@KPPFNCFM@?$CB?$CI?$CI?$CIINTN?$CJ?$CIRETURN_STATUS?$CJ?$CICleanu@ 00000000000c0b58     Shell:ShellProtocol.obj
 0002:00000b88       ??_C@_0DO@OOPGJCPI@?$CITemp?5?$DN?$DN?5?$CI?$CIvoid?5?$CK?$CJ?50?$CJ?5?$CG?$CG?5Size?5?$DN@ 00000000000c0b88     Shell:ShellProtocol.obj
 0002:00000bc8       ??_C@_1CC@HKOPKFLN@?$AAS?$AAh?$AAe?$AAl?$AAl?$AA?4?$AAe?$AAf?$AAi?$AA?5?$AA?9?$AAe?$AAx?$AAi?$AAt@ 00000000000c0bc8     Shell:ShellProtocol.obj
 0002:00000bf0       ??_C@_0EG@PEBCEDEH@sizeof?5?$CIEFI_SHELL_FILE_INFO_NO_@ 00000000000c0bf0     Shell:ShellProtocol.obj
 0002:00000c38       ??_C@_0BL@CMJHFCBI@TempString?5?$DN?$DN?5?$CI?$CIvoid?5?$CK?$CJ?50?$CJ@ 00000000000c0c38     Shell:ShellProtocol.obj
 0002:00000c60       ??_C@_0EK@KCBJNLOB@?$CITempString?5?$DN?$DN?5?$CI?$CIvoid?5?$CK?$CJ?50?$CJ?5?$CG?$CG?5@ 00000000000c0c60     Shell:ShellProtocol.obj
 0002:00000cac       ??_C@_13JOFGPIOO@?$AA?4@   00000000000c0cac     Shell:ShellProtocol.obj
 0002:00000cb0       ??_C@_15DDHGOCBH@?$AA?4?$AA?4@ 00000000000c0cb0     Shell:ShellProtocol.obj
 0002:00000cb8       ??_C@_0BO@OAECAICK@Count?5?$DM?$DN?5StrLen?5?$CIPatternCopy?$CJ@ 00000000000c0cb8     Shell:ShellProtocol.obj
 0002:00000cd8       ??_C@_0BI@COEPFHOP@MapName?5?$DN?$DN?5?$CI?$CIvoid?5?$CK?$CJ?50?$CJ@ 00000000000c0cd8     Shell:ShellProtocol.obj
 0002:00000cf0       ??_C@_0EF@BMFMOKDK@?$CIPath2?5?$DN?$DN?5?$CI?$CIvoid?5?$CK?$CJ?50?$CJ?5?$CG?$CG?5Path2@ 00000000000c0cf0     Shell:ShellProtocol.obj
 0002:00000d38       ??_C@_0BG@HGINAGIJ@Path2?5?$DN?$DN?5?$CI?$CIvoid?5?$CK?$CJ?50?$CJ@ 00000000000c0d38     Shell:ShellProtocol.obj
 0002:00000d50       ??_C@_0BK@EGBMOPOO@Node?9?$DOKey?5?$CB?$DN?5?$CI?$CIvoid?5?$CK?$CJ?50?$CJ@ 00000000000c0d50     Shell:ShellProtocol.obj
 0002:00000d70       ??_C@_0BN@BDINJONM@Status?5?$DN?$DN?5?$CIRETURN_STATUS?$CJ?$CI0?$CJ@ 00000000000c0d70     Shell:ShellProtocol.obj
 0002:00000d90       ??_C@_0EO@JEAAOEHO@?$CIPathToReturn?5?$DN?$DN?5?$CI?$CIvoid?5?$CK?$CJ?50?$CJ?5?$CG@ 00000000000c0d90     Shell:ShellProtocol.obj
 0002:00000de0       ??_C@_0BO@PFNEAFPA@DirectoryName?5?$CB?$DN?5?$CI?$CIvoid?5?$CK?$CJ?50?$CJ@ 00000000000c0de0     Shell:ShellProtocol.obj
 0002:00000e00       ??_C@_0HI@CAPEDHNF@?$CIMapListItem?9?$DOCurrentDirectoryP@ 00000000000c0e00     Shell:ShellProtocol.obj
 0002:00000e78       ??_C@_0BJ@CNCJBBAK@HelpText?5?$CB?$DN?5?$CI?$CIvoid?5?$CK?$CJ?50?$CJ@ 00000000000c0e78     Shell:ShellProtocol.obj
 0002:00000ea0       ??_C@_0EF@GIBEAODI@?$CIRetVal?5?$DN?$DN?5?$CI?$CIvoid?5?$CK?$CJ?50?$CJ?5?$CG?$CG?5RetS@ 00000000000c0ea0     Shell:ShellProtocol.obj
 0002:00000ee8       ??_C@_0BG@PMINLNNJ@Alias?5?$CB?$DN?5?$CI?$CIvoid?5?$CK?$CJ?50?$CJ@ 00000000000c0ee8     Shell:ShellProtocol.obj
 0002:00000f00       ??_C@_0DB@GPEBFHNA@IsListEmpty?5?$CI?$CGShellInfoObject?4O@ 00000000000c0f00     Shell:ShellProtocol.obj
 0002:00000f38       ??_C@_0BJ@PICCNDGH@Volatile?5?$CB?$DN?5?$CI?$CIvoid?5?$CK?$CJ?50?$CJ@ 00000000000c0f38     Shell:ShellEnvVar.obj
 0002:00000f58       ??_C@_0DP@OEHHKPB@f?3?2uefiworkspace?2edk2?2ShellPkg?2@ 00000000000c0f58     Shell:ShellEnvVar.obj
 0002:00000f98       ??_C@_0BF@NJNGJMPC@List?5?$CB?$DN?5?$CI?$CIvoid?5?$CK?$CJ?50?$CJ@ 00000000000c0f98     Shell:ShellEnvVar.obj
 0002:00000fb0       ??_C@_0BF@CBLMFKOC@Node?5?$CB?$DN?5?$CI?$CIvoid?5?$CK?$CJ?50?$CJ@ 00000000000c0fb0     Shell:ShellEnvVar.obj
 0002:00000fc8       ??_C@_13NMPKAAJP@?$AA?$DN@ 00000000000c0fc8     Shell:ShellEnvVar.obj
 0002:00000fd0       ??_C@_0CN@DGOJNAKA@StrStr?5?$CICurrentString?0?5L?$CC?$DN?$CC?$CJ?5?$CB?$DN@ 00000000000c0fd0     Shell:ShellEnvVar.obj
 0002:00001000       ??_C@_15EDKKDMNP@?$AA?5?$AA?$CC@ 00000000000c1000     Shell:ShellParametersProtocol.obj
 0002:00001008       ??_C@_15CPILICPA@?$AA?$CC?$AA?$FO@ 00000000000c1008     Shell:ShellParametersProtocol.obj
 0002:00001010       ??_C@_0BF@JGBEECGI@Argc?5?$CB?$DN?5?$CI?$CIvoid?5?$CK?$CJ?50?$CJ@ 00000000000c1010     Shell:ShellParametersProtocol.obj
 0002:00001030       ??_C@_0EL@GENJGMCN@f?3?2uefiworkspace?2edk2?2ShellPkg?2@ 00000000000c1030     Shell:ShellParametersProtocol.obj
 0002:00001080       ??_C@_0BF@FMENHPJH@Argv?5?$CB?$DN?5?$CI?$CIvoid?5?$CK?$CJ?50?$CJ@ 00000000000c1080     Shell:ShellParametersProtocol.obj
 0002:00001098       ??_C@_0BB@FEAIBCKF@Count?5?$DO?$DN?5?$CI?$CKArgc?$CJ@ 00000000000c1098     Shell:ShellParametersProtocol.obj
 0002:000010b0       ??_C@_0CD@FIFEEFHJ@NewShellParameters?5?$CB?$DN?5?$CI?$CIvoid?5?$CK?$CJ@ 00000000000c10b0     Shell:ShellParametersProtocol.obj
 0002:000010d8       ??_C@_0CC@LCFPHEN@RootShellInstance?5?$CB?$DN?5?$CI?$CIvoid?5?$CK?$CJ?5@ 00000000000c10d8     Shell:ShellParametersProtocol.obj
 0002:00001100       ??_C@_1BC@FNCBBNBI@?$AAS?$AAh?$AAe?$AAl?$AAl?$AAO?$AAp?$AAt@ 00000000000c1100     Shell:ShellParametersProtocol.obj
 0002:00001118       ??_C@_0CA@MFNMGLLM@FullCommandLine?5?$DN?$DN?5?$CI?$CIvoid?5?$CK?$CJ?50?$CJ@ 00000000000c1118     Shell:ShellParametersProtocol.obj
 0002:00001140       ??_C@_0EA@BJKCAJCJ@?$CI?$CI?$CIINTN?$CJ?$CIRETURN_STATUS?$CJ?$CIStatus?$CJ@ 00000000000c1140     Shell:ShellParametersProtocol.obj
 0002:00001180       ??_C@_1O@IAAGOEFN@?$AA?5?$AA2?$AA?$DO?$AA?$DO?$AAv?$AA?5@ 00000000000c1180     Shell:ShellParametersProtocol.obj
 0002:00001190       ??_C@_1O@PHJIDGKN@?$AA?5?$AA1?$AA?$DO?$AA?$DO?$AAv?$AA?5@ 00000000000c1190     Shell:ShellParametersProtocol.obj
 0002:000011a0       ??_C@_1M@HCPFAEO@?$AA?5?$AA?$DO?$AA?$DO?$AAv?$AA?5@ 00000000000c11a0     Shell:ShellParametersProtocol.obj
 0002:000011b0       ??_C@_19LOCGJEPE@?$AA?5?$AA?$DO?$AAv?$AA?5@ 00000000000c11b0     Shell:ShellParametersProtocol.obj
 0002:000011c0       ??_C@_1O@OJELAEIO@?$AA?5?$AA1?$AA?$DO?$AA?$DO?$AAa?$AA?5@ 00000000000c11c0     Shell:ShellParametersProtocol.obj
 0002:000011d0       ??_C@_1M@BFCPIDMC@?$AA?5?$AA1?$AA?$DO?$AA?$DO?$AA?5@ 00000000000c11d0     Shell:ShellParametersProtocol.obj
 0002:000011e0       ??_C@_19FNCNBMPF@?$AA?5?$AA?$DO?$AA?$DO?$AA?5@ 00000000000c11e0     Shell:ShellParametersProtocol.obj
 0002:000011f0       ??_C@_1M@BJPMGCGN@?$AA?5?$AA?$DO?$AA?$DO?$AAa?$AA?5@ 00000000000c11f0     Shell:ShellParametersProtocol.obj
 0002:00001200       ??_C@_1M@OIPHDJOA@?$AA?5?$AA1?$AA?$DO?$AAa?$AA?5@ 00000000000c1200     Shell:ShellParametersProtocol.obj
 0002:00001210       ??_C@_19KAPFKGNH@?$AA?5?$AA?$DO?$AAa?$AA?5@ 00000000000c1210     Shell:ShellParametersProtocol.obj
 0002:00001220       ??_C@_1M@POBIDIMB@?$AA?5?$AA2?$AA?$DO?$AA?$DO?$AA?5@ 00000000000c1220     Shell:ShellParametersProtocol.obj
 0002:00001230       ??_C@_1M@BNBDLAMA@?$AA?5?$AA2?$AA?$DO?$AAv?$AA?5@ 00000000000c1230     Shell:ShellParametersProtocol.obj
 0002:00001240       ??_C@_1M@PGCEALMD@?$AA?5?$AA1?$AA?$DO?$AAv?$AA?5@ 00000000000c1240     Shell:ShellParametersProtocol.obj
 0002:00001250       ??_C@_1M@DMAICOD@?$AA?5?$AA2?$AA?$DO?$AAa?$AA?5@ 00000000000c1250     Shell:ShellParametersProtocol.obj
 0002:00001260       ??_C@_19KICAJLK@?$AA?5?$AA2?$AA?$DO?$AA?5@ 00000000000c1260     Shell:ShellParametersProtocol.obj
 0002:00001270       ??_C@_19IEANAOFJ@?$AA?5?$AA1?$AA?$DO?$AA?5@ 00000000000c1270     Shell:ShellParametersProtocol.obj
 0002:00001280       ??_C@_17PNOJILCD@?$AA?5?$AA?$DO?$AA?5@ 00000000000c1280     Shell:ShellParametersProtocol.obj
 0002:00001288       ??_C@_17LACBCKCI@?$AA?5?$AA?$DM?$AA?5@ 00000000000c1288     Shell:ShellParametersProtocol.obj
 0002:00001290       ??_C@_19OCNAKBKK@?$AA?5?$AA?$DM?$AAa?$AA?5@ 00000000000c1290     Shell:ShellParametersProtocol.obj
 0002:000012a0       ??_C@_19PMADJDIJ@?$AA?5?$AA?$DM?$AAv?$AA?5@ 00000000000c12a0     Shell:ShellParametersProtocol.obj
 0002:000012b0       ??_C@_1BG@LDKDBFGF@?$AAc?$AAo?$AAn?$AAn?$AAe?$AAc?$AAt?$AA?5?$AA?9?$AAr@ 00000000000c12b0     Shell:ShellParametersProtocol.obj
 0002:000012c8       ??_C@_0BL@EDBMIKGG@TempHandle?5?$CB?$DN?5?$CI?$CIvoid?5?$CK?$CJ?50?$CJ@ 00000000000c12c8     Shell:ShellParametersProtocol.obj
 0002:000012e4       ??_C@_11LOCGONAA@@         00000000000c12e4     Shell:ShellParametersProtocol.obj
 0002:000012e8       ??_C@_0CA@CBKMDJNI@ShellParameters?5?$CB?$DN?5?$CI?$CIvoid?5?$CK?$CJ?50?$CJ@ 00000000000c12e8     Shell:ShellParametersProtocol.obj
 0002:00001308       ??_C@_0BI@GCPLFEFJ@OldArgv?5?$CB?$DN?5?$CI?$CIvoid?5?$CK?$CJ?50?$CJ@ 00000000000c1308     Shell:ShellParametersProtocol.obj
 0002:00001320       ??_C@_0BI@KIKCGJKG@OldArgc?5?$CB?$DN?5?$CI?$CIvoid?5?$CK?$CJ?50?$CJ@ 00000000000c1320     Shell:ShellParametersProtocol.obj
 0002:00001338       ??_C@_0BM@JJEJGGGM@ConsoleInfo?5?$CB?$DN?5?$CI?$CIvoid?5?$CK?$CJ?50?$CJ@ 00000000000c1338     Shell:ConsoleLogger.obj
 0002:00001360       ??_C@_0EB@MEGCAJGO@f?3?2uefiworkspace?2edk2?2ShellPkg?2@ 00000000000c1360     Shell:ConsoleLogger.obj
 0002:000013a8       ??_C@_0CH@CKEDIBJ@ConsoleInfo?9?$DOOldConOut?5?$CB?$DN?5?$CI?$CIvoi@ 00000000000c13a8     Shell:ConsoleLogger.obj
 0002:000013d0       ??_C@_0BF@NDBIKIKC@CR?5has?5Bad?5Signature@ 00000000000c13d0     Shell:ConsoleLogger.obj
 0002:000013f0       ??_C@_0GJ@MDFBOPCM@ConsoleInfo?9?$DOHistoryMode?4Cursor@ 00000000000c13f0     Shell:ConsoleLogger.obj
 0002:00001460       ??_C@_0CD@DPJJJNIG@CopySize?5?$DM?5ConsoleInfo?9?$DOAttribS@ 00000000000c1460     Shell:ConsoleLogger.obj
 0002:00001488       ??_C@_0CD@PHAIKNHA@CopySize?5?$DM?5ConsoleInfo?9?$DOBufferS@ 00000000000c1488     Shell:ConsoleLogger.obj
 0002:000014b0       ??_C@_0DO@NPBKMNEP@ConsoleInfo?9?$DOOriginalStartRow?5?$DN@ 00000000000c14b0     Shell:ConsoleLogger.obj
 0002:000014f0       ??_C@_0EK@BCAFEPBD@PrintIndex?5?$CL?5ConsoleInfo?9?$DOHisto@ 00000000000c14f0     Shell:ConsoleLogger.obj
 0002:00001540       ??_C@_0CF@EFFGCKGM@PrintIndex?5?$DM?5ConsoleInfo?9?$DOAttri@ 00000000000c1540     Shell:ConsoleLogger.obj
 0002:00001568       ??_C@_15JNBOKNOG@?$AA?$AN?$AA?6@ 00000000000c1568     Shell:ConsoleLogger.obj
 0002:00001570       ??_C@_0CB@IPIIKOIN@ShellInfoObject?4PageBreakEnable@ 00000000000c1570     Shell:ConsoleLogger.obj
 0002:00001598       ??_C@_0BF@JJGDGIED@Resp?5?$CB?$DN?5?$CI?$CIvoid?5?$CK?$CJ?50?$CJ@ 00000000000c1598     Shell:ConsoleLogger.obj
 0002:000015b0       ??_C@_0CL@KGMELDIO@ShellInfoObject?4ConsoleInfo?5?$DN?$DN?5@ 00000000000c15b0     Shell:ConsoleLogger.obj
 0002:000015dc       ??_C@_13BBDEGPLJ@?$AA?$CK@ 00000000000c15dc     Shell:FileHandleWrappers.obj
 0002:000015e0       ??_C@_17HBKEMHNM@?$AA?$CF?$AAN?$AA?6@ 00000000000c15e0     Shell:FileHandleWrappers.obj
 0002:000015e8       ??_C@_0CA@EPIHLNMK@TabCompleteList?5?$CB?$DN?5?$CI?$CIvoid?5?$CK?$CJ?50?$CJ@ 00000000000c15e8     Shell:FileHandleWrappers.obj
 0002:00001610       ??_C@_0EG@CEIKPALD@f?3?2uefiworkspace?2edk2?2ShellPkg?2@ 00000000000c1610     Shell:FileHandleWrappers.obj
 0002:00001658       ??_C@_1O@KOGCFCFL@?$AA?$CF?$AAs?$AA?$CF?$AA?4?$AA?$CK?$AAs@ 00000000000c1658     Shell:FileHandleWrappers.obj
 0002:00001668       ??_C@_0CA@OICFAJM@TabCompleteList?5?$DN?$DN?5?$CI?$CIvoid?5?$CK?$CJ?50?$CJ@ 00000000000c1668     Shell:FileHandleWrappers.obj
 0002:00001688       ??_C@_13LBAGMAIH@?$AA?6@   00000000000c1688     Shell:FileHandleWrappers.obj
 0002:00001690       ??_C@_1BC@CPFBHBNI@?$AA?$CF?$AA2?$AAd?$AA?4?$AA?5?$AA?$CF?$AAs?$AA?6@ 00000000000c1690     Shell:FileHandleWrappers.obj
 0002:000016a4       ??_C@_02KPKOKMHB@?$CFS@    00000000000c16a4     Shell:FileHandleWrappers.obj
 0002:000016a8       ??_C@_0CG@LGHBJIPJ@FileInterface?9?$DOBuffer?5?$DN?$DN?5?$CI?$CIvoid@ 00000000000c16a8     Shell:FileHandleWrappers.obj
 0002:000016d0       ??_C@_0BP@HJLEIBOC@FileInterface?9?$DOBufferSize?5?$DN?$DN?50@ 00000000000c16d0     Shell:FileHandleWrappers.obj
 0002:000016f0       ??_C@_0BN@IGDFKHEM@FileInterface?9?$DOPosition?5?$DN?$DN?50@ 00000000000c16f0     Shell:FileHandleWrappers.obj
 0002:00001710       ??_C@_19ENGJFOPL@?$AA?4?$AAe?$AAf?$AAi@ 00000000000c1710     Shell:ShellManParser.obj
 0002:00001720       ??_C@_19BOFOENEP@?$AA?4?$AAm?$AAa?$AAn@ 00000000000c1720     Shell:ShellManParser.obj
 0002:00001730       ??_C@_17LPJOGKMB@?$AA?4?$AAT?$AAH@ 00000000000c1730     Shell:ShellManParser.obj
 0002:00001738       ??_C@_17KCJLFKHJ@?$AA?4?$AAS?$AAH@ 00000000000c1738     Shell:ShellManParser.obj
 0002:00001740       ??_C@_0EN@MKJGMOL@?$CI?$CKHelpText?5?$DN?$DN?5?$CI?$CIvoid?5?$CK?$CJ?50?$CJ?5?$CG?$CG?5?$CK@ 00000000000c1740     Shell:ShellManParser.obj
 0002:00001790       ??_C@_0EC@NJJMLDBI@f?3?2uefiworkspace?2edk2?2ShellPkg?2@ 00000000000c1790     Shell:ShellManParser.obj
 0002:000017d8       ??_C@_19NPLEHOOJ@?$AA?4?$AAT?$AAH?$AA?5@ 00000000000c17d8     Shell:ShellManParser.obj
 0002:000017e8       ??_C@_19CIOJOFN@?$AA?4?$AAT?$AAH?$AA?7@ 00000000000c17e8     Shell:ShellManParser.obj
 0002:000017f8       ??_C@_0CI@BGLNHBLM@?$CI?$CI?$CIUINTN?$CJ?5?$CIStartOfBuffer?$CJ?$CJ?5?$CG?50x@ 00000000000c17f8     BasePrintLib:PrintLib.obj
 0002:00001820       ??_C@_0DN@IKICKOBE@f?3?2uefiworkspace?2edk2?2MdePkg?2Li@ 00000000000c1820     BasePrintLib:PrintLib.obj
 0002:00001860       ??_C@_0CH@KJLBGOBB@?$CI?$CI?$CIUINTN?$CJ?5?$CIFormatString?$CJ?$CJ?5?$CG?50x0@ 00000000000c1860     BasePrintLib:PrintLib.obj
 0002:00001888       ??_C@_0CB@LDBAOPMG@?$CI?$CI?$CIUINTN?$CJ?5?$CIBuffer?$CJ?$CJ?5?$CG?50x01?$CJ?5?$DN?$DN?5@ 00000000000c1888     BasePrintLib:PrintLib.obj
 0002:000018b0       ??_C@_0BH@IACGKAP@Buffer?5?$CB?$DN?5?$CI?$CIvoid?5?$CK?$CJ?50?$CJ@ 00000000000c18b0     BasePrintLib:PrintLibInternal.obj
 0002:000018d0       ??_C@_0EF@BOLGFEOP@f?3?2uefiworkspace?2edk2?2MdePkg?2Li@ 00000000000c18d0     BasePrintLib:PrintLibInternal.obj
 0002:00001918       ??_C@_0BJ@CNKJJNE@?$CIBuffer?5?$CB?$DN?5?$CI?$CIvoid?5?$CK?$CJ?50?$CJ?$CJ@ 00000000000c1918     BasePrintLib:PrintLibInternal.obj
 0002:00001940       ??_C@_0EB@HDGIDCIO@?$CIBufferSize?5?$DM?$DN?5?$CI_gPcd_FixedAtBu@ 00000000000c1940     BasePrintLib:PrintLibInternal.obj
 0002:00001990       ??_C@_0FJ@HAEMOBLP@?$CIBufferSize?5?$DM?$DN?5?$CI_gPcd_FixedAtBu@ 00000000000c1990     BasePrintLib:PrintLibInternal.obj
 0002:000019f0       ??_C@_0CO@OJNGHNJG@?$CI?$CIFlags?5?$CG?5?$HO?$CI0x01?5?$HM?50x08?5?$HM?50x20?5@ 00000000000c19f0     BasePrintLib:PrintLibInternal.obj
 0002:00001a20       ??_C@_0DB@HIDPIAGP@?$CI?$CI?$CIFlags?5?$CG?50x08?$CJ?5?$DN?$DN?50?$CJ?5?$HM?$HM?5?$CI?$CIFla@ 00000000000c1a20     BasePrintLib:PrintLibInternal.obj
 0002:00001a58       ??_C@_0N@PNKFBKME@?$CIWidth?5?$DM?538?$CJ@ 00000000000c1a58     BasePrintLib:PrintLibInternal.obj
 0002:00001a68       ??_C@_0CI@HPJOGFNE@?$CIBufferSize?5?$DO?$DN?5?$CIWidth?5?$CL?51?$CJ?5?$CK?5In@ 00000000000c1a68     BasePrintLib:PrintLibInternal.obj
 0002:00001a90       ??_C@_0BJ@PPAKKDJG@?$CIFormat?5?$CB?$DN?5?$CI?$CIvoid?5?$CK?$CJ?50?$CJ?$CJ@ 00000000000c1a90     BasePrintLib:PrintLibInternal.obj
 0002:00001ab0       ??_C@_0ED@LPDDCECB@?$CIBufferSize?5?$DM?$DN?5?$CI_gPcd_FixedAtBu@ 00000000000c1ab0     BasePrintLib:PrintLibInternal.obj
 0002:00001b00       ??_C@_0IM@BFJJFLGB@?$CIStrnLenS?5?$CI?$CICHAR16?5?$CK?$CJFormat?0?5?$CI_@ 00000000000c1b00     BasePrintLib:PrintLibInternal.obj
 0002:00001b90       ??_C@_0ID@PLGJGION@?$CIAsciiStrnLenS?5?$CIFormat?0?5?$CI_gPcd_@ 00000000000c1b90     BasePrintLib:PrintLibInternal.obj
 0002:00001c18       ??_C@_0O@MLOLIMFM@?$DMnull?5string?$DO@ 00000000000c1c18     BasePrintLib:PrintLibInternal.obj
 0002:00001c28       ??_C@_0M@BJJDNPHK@?$DMnull?5guid?$DO@ 00000000000c1c28     BasePrintLib:PrintLibInternal.obj
 0002:00001c38       ??_C@_0DB@PMLHLBMO@?$CF08x?9?$CF04x?9?$CF04x?9?$CF02x?$CF02x?9?$CF02x?$CF02@ 00000000000c1c38     BasePrintLib:PrintLibInternal.obj
 0002:00001c70       ??_C@_0M@LHGBCIKM@?$DMnull?5time?$DO@ 00000000000c1c70     BasePrintLib:PrintLibInternal.obj
 0002:00001c80       ??_C@_0BK@FCPKCIDD@?$CF02d?1?$CF02d?1?$CF04d?5?5?$CF02d?3?$CF02d@ 00000000000c1c80     BasePrintLib:PrintLibInternal.obj
 0002:00001c9c       ??_C@_04JIMNDDED@?$CF08X@  00000000000c1c9c     BasePrintLib:PrintLibInternal.obj
 0002:00001ca4       ??_C@_02PCIJFNDE@?$AN?6@   00000000000c1ca4     BasePrintLib:PrintLibInternal.obj
 0002:00001ca8       ??_C@_01LIIJDEN@?$AN@      00000000000c1ca8     BasePrintLib:PrintLibInternal.obj
 0002:00001cb0       mWarningString             00000000000c1cb0     BasePrintLib:PrintLibInternal.obj
 0002:00001d80       mErrorString               00000000000c1d80     BasePrintLib:PrintLibInternal.obj
 0002:00002060       mHexStr                    00000000000c2060     BasePrintLib:PrintLibInternal.obj
 0002:00002070       ??_C@_0ED@MKGCMJG@?$CILength?5?9?51?$CJ?5?$DM?$DN?5?$CI0xFFFFFFFFFFFF@ 00000000000c2070     BaseMemoryLib:CopyMemWrapper.obj
 0002:000020c0       ??_C@_0EE@GOMGOBAA@f?3?2uefiworkspace?2edk2?2MdePkg?2Li@ 00000000000c20c0     BaseMemoryLib:CopyMemWrapper.obj
 0002:00002108       ??_C@_0DO@MAOBOFEG@?$CILength?5?9?51?$CJ?5?$DM?$DN?5?$CI0xFFFFFFFFFFFF@ 00000000000c2108     BaseMemoryLib:CopyMemWrapper.obj
 0002:00002148       ??_C@_0DG@EEENIGGL@Length?5?$DM?$DN?5?$CI0xFFFFFFFFFFFFFFFFUL@ 00000000000c2148     BaseMemoryLib:MemLibGuid.obj
 0002:00002180       ??_C@_0EE@NKGEIAMH@f?3?2uefiworkspace?2edk2?2MdePkg?2Li@ 00000000000c2180     BaseMemoryLib:ZeroMemWrapper.obj
 0002:000021d0       ??_C@_0EF@DIKEOPKB@f?3?2uefiworkspace?2edk2?2MdePkg?2Li@ 00000000000c21d0     BaseMemoryLib:SetMem16Wrapper.obj
 0002:00002218       ??_C@_0DI@DAGDPLPG@?$CILength?5?9?51?$CJ?5?$DM?$DN?5?$CI0xFFFFFFFFFFFF@ 00000000000c2218     BaseMemoryLib:SetMem16Wrapper.obj
 0002:00002250       ??_C@_0CO@LECKNDNC@?$CI?$CI?$CIUINTN?$CJBuffer?$CJ?5?$CG?5?$CIsizeof?5?$CIVal@ 00000000000c2250     BaseMemoryLib:SetMem16Wrapper.obj
 0002:00002280       ??_C@_0CF@LEICOABD@?$CILength?5?$CG?5?$CIsizeof?5?$CIValue?$CJ?5?9?51?$CJ?$CJ@ 00000000000c2280     BaseMemoryLib:SetMem16Wrapper.obj
 0002:000022b0       ??_C@_0ED@EDHDDFPL@f?3?2uefiworkspace?2edk2?2MdePkg?2Li@ 00000000000c22b0     BaseMemoryLib:SetMemWrapper.obj
 0002:00002300       ??_C@_0EN@MFEGGAD@f?3?2uefiworkspace?2edk2?2MdePkg?2Li@ 00000000000c2300     UefiDevicePathLib:DevicePathUtilities.obj
 0002:00002350       ??_C@_0EH@ENCEEKKL@?$CILength?5?$DO?$DN?5sizeof?5?$CIEFI_DEVICE_P@ 00000000000c2350     UefiDevicePathLib:DevicePathUtilities.obj
 0002:00002398       ??_C@_0BF@MBJFHGBE@Size?5?$CB?$DN?5?$CI?$CIvoid?5?$CK?$CJ?50?$CJ@ 00000000000c2398     UefiDevicePathLib:DevicePathUtilities.obj
 0002:000023b0       mUefiDevicePathLibEndDevicePath 00000000000c23b0     UefiDevicePathLib:DevicePathUtilities.obj
 0002:000023b8       ??_C@_0BI@MMMKPDJL@AcpiAdr?5?$CB?$DN?5?$CI?$CIvoid?5?$CK?$CJ?50?$CJ@ 00000000000c23b8     UefiDevicePathLib:DevicePathFromText.obj
 0002:000023d0       ??_C@_0EM@CGNELHHP@f?3?2uefiworkspace?2edk2?2MdePkg?2Li@ 00000000000c23d0     UefiDevicePathLib:DevicePathFromText.obj
 0002:00002420       ??_C@_1BA@NGCDBIG@?$AAP?$AAr?$AAi?$AAm?$AAa?$AAr?$AAy@ 00000000000c2420     UefiDevicePathLib:DevicePathFromText.obj
 0002:00002430       ??_C@_1BE@BGLPHBHD@?$AAS?$AAe?$AAc?$AAo?$AAn?$AAd?$AAa?$AAr?$AAy@ 00000000000c2430     UefiDevicePathLib:DevicePathFromText.obj
 0002:00002448       ??_C@_1O@MHJLHGPK@?$AAM?$AAa?$AAs?$AAt?$AAe?$AAr@ 00000000000c2448     UefiDevicePathLib:DevicePathFromText.obj
 0002:00002458       ??_C@_1M@MJNGBMFK@?$AAS?$AAl?$AAa?$AAv?$AAe@ 00000000000c2458     UefiDevicePathLib:DevicePathFromText.obj
 0002:00002468       ??_C@_1BA@NAMMFHHL@?$AAX?$AAo?$AAn?$AAX?$AAo?$AAf?$AAf@ 00000000000c2468     UefiDevicePathLib:DevicePathFromText.obj
 0002:00002478       ??_C@_1BC@MAICEHGI@?$AAH?$AAa?$AAr?$AAd?$AAw?$AAa?$AAr?$AAe@ 00000000000c2478     UefiDevicePathLib:DevicePathFromText.obj
 0002:00002490       ??_C@_1BG@FMODEGIG@?$AAN?$AAo?$AAT?$AAo?$AAp?$AAo?$AAl?$AAo?$AAg?$AAy@ 00000000000c2490     UefiDevicePathLib:DevicePathFromText.obj
 0002:000024a8       ??_C@_19BPNGBNAI@?$AAS?$AAA?$AAT?$AAA@ 00000000000c24a8     UefiDevicePathLib:DevicePathFromText.obj
 0002:000024b8       ??_C@_17FMMIKNDG@?$AAS?$AAA?$AAS@ 00000000000c24b8     UefiDevicePathLib:DevicePathFromText.obj
 0002:000024c0       ??_C@_1BC@KMFBFJEN@?$AAE?$AAx?$AAt?$AAe?$AAr?$AAn?$AAa?$AAl@ 00000000000c24c0     UefiDevicePathLib:DevicePathFromText.obj
 0002:000024d8       ??_C@_1BC@FBOHHDN@?$AAI?$AAn?$AAt?$AAe?$AAr?$AAn?$AAa?$AAl@ 00000000000c24d8     UefiDevicePathLib:DevicePathFromText.obj
 0002:000024f0       ??_C@_1BC@EEIMPKHO@?$AAE?$AAx?$AAp?$AAa?$AAn?$AAd?$AAe?$AAd@ 00000000000c24f0     UefiDevicePathLib:DevicePathFromText.obj
 0002:00002508       ??_C@_1O@MDCABJAO@?$AAD?$AAi?$AAr?$AAe?$AAc?$AAt@ 00000000000c2508     UefiDevicePathLib:DevicePathFromText.obj
 0002:00002518       ??_C@_17NINPJKOM@?$AAU?$AAD?$AAP@ 00000000000c2518     UefiDevicePathLib:DevicePathFromText.obj
 0002:00002520       ??_C@_17JHAKKMK@?$AAT?$AAC?$AAP@ 00000000000c2520     UefiDevicePathLib:DevicePathFromText.obj
 0002:00002528       ??_C@_1O@ECDFCEKO@?$AAS?$AAt?$AAa?$AAt?$AAi?$AAc@ 00000000000c2528     UefiDevicePathLib:DevicePathFromText.obj
 0002:00002538       ??_C@_1CO@IJAKNKHD@?$AAS?$AAt?$AAa?$AAt?$AAe?$AAl?$AAe?$AAs?$AAs?$AAA?$AAu?$AAt?$AAo?$AAC?$AAo@ 00000000000c2538     UefiDevicePathLib:DevicePathFromText.obj
 0002:00002568       ??_C@_1BA@KDAEEGIF@?$AAD?$AAE?$AAF?$AAA?$AAU?$AAL?$AAT@ 00000000000c2568     UefiDevicePathLib:DevicePathFromText.obj
 0002:00002578       ??_C@_13MKMNOPIJ@?$AAD@    00000000000c2578     UefiDevicePathLib:DevicePathFromText.obj
 0002:0000257c       ??_C@_13JGCMLPCH@?$AA1@    00000000000c257c     UefiDevicePathLib:DevicePathFromText.obj
 0002:00002580       ??_C@_17CJOJBPKA@?$AA1?$AA?4?$AA5@ 00000000000c2580     UefiDevicePathLib:DevicePathFromText.obj
 0002:00002588       ??_C@_13IEJJBAMJ@?$AA2@    00000000000c2588     UefiDevicePathLib:DevicePathFromText.obj
 0002:00002590       ??_C@_1O@HNAACJMJ@?$AAC?$AAR?$AAC?$AA3?$AA2?$AAC@ 00000000000c2590     UefiDevicePathLib:DevicePathFromText.obj
 0002:000025a0       ??_C@_19KLMLHLJG@?$AAN?$AAo?$AAn?$AAe@ 00000000000c25a0     UefiDevicePathLib:DevicePathFromText.obj
 0002:000025b0       ??_C@_1BC@PDNIOEEC@?$AAC?$AAH?$AAA?$AAP?$AA_?$AAU?$AAN?$AAI@ 00000000000c25b0     UefiDevicePathLib:DevicePathFromText.obj
 0002:000025c8       ??_C@_17LNBJLOE@?$AAM?$AAB?$AAR@ 00000000000c25c8     UefiDevicePathLib:DevicePathFromText.obj
 0002:000025d0       ??_C@_17PBGEHLGA@?$AAG?$AAP?$AAT@ 00000000000c25d0     UefiDevicePathLib:DevicePathFromText.obj
 0002:000025d8       ??_C@_1O@CLMODHEM@?$AAF?$AAl?$AAo?$AAp?$AAp?$AAy@ 00000000000c25d8     UefiDevicePathLib:DevicePathFromText.obj
 0002:000025e8       ??_C@_15LJEABJDH@?$AAH?$AAD@ 00000000000c25e8     UefiDevicePathLib:DevicePathFromText.obj
 0002:000025f0       ??_C@_1M@NEPFDHKI@?$AAC?$AAD?$AAR?$AAO?$AAM@ 00000000000c25f0     UefiDevicePathLib:DevicePathFromText.obj
 0002:00002600       ??_C@_1O@IJBLAFEH@?$AAP?$AAC?$AAM?$AAC?$AAI?$AAA@ 00000000000c2600     UefiDevicePathLib:DevicePathFromText.obj
 0002:00002610       ??_C@_17DMBMDHNL@?$AAU?$AAS?$AAB@ 00000000000c2610     UefiDevicePathLib:DevicePathFromText.obj
 0002:00002618       ??_C@_1BA@IFBJBPAK@?$AAN?$AAe?$AAt?$AAw?$AAo?$AAr?$AAk@ 00000000000c2618     UefiDevicePathLib:DevicePathFromText.obj
 0002:00002628       ??_C@_19NHABCBNP@?$AAP?$AAa?$AAt?$AAh@ 00000000000c2628     UefiDevicePathLib:DevicePathFromText.obj
 0002:00002638       ??_C@_1BK@PDLLBLKH@?$AAH?$AAa?$AAr?$AAd?$AAw?$AAa?$AAr?$AAe?$AAP?$AAa?$AAt?$AAh@ 00000000000c2638     UefiDevicePathLib:DevicePathFromText.obj
 0002:00002658       ??_C@_17HLFBGCN@?$AAP?$AAc?$AAi@ 00000000000c2658     UefiDevicePathLib:DevicePathFromText.obj
 0002:00002660       ??_C@_1O@MNOBCDEF@?$AAP?$AAc?$AAC?$AAa?$AAr?$AAd@ 00000000000c2660     UefiDevicePathLib:DevicePathFromText.obj
 0002:00002670       ??_C@_1BK@OCLBCLCA@?$AAM?$AAe?$AAm?$AAo?$AAr?$AAy?$AAM?$AAa?$AAp?$AAp?$AAe?$AAd@ 00000000000c2670     UefiDevicePathLib:DevicePathFromText.obj
 0002:00002690       ??_C@_1M@LACAKLOF@?$AAV?$AAe?$AAn?$AAH?$AAw@ 00000000000c2690     UefiDevicePathLib:DevicePathFromText.obj
 0002:000026a0       ??_C@_19HGPIFADB@?$AAC?$AAt?$AAr?$AAl@ 00000000000c26a0     UefiDevicePathLib:DevicePathFromText.obj
 0002:000026b0       ??_C@_17MLACALGH@?$AAB?$AAM?$AAC@ 00000000000c26b0     UefiDevicePathLib:DevicePathFromText.obj
 0002:000026b8       ??_C@_1BC@EJFCJMMM@?$AAA?$AAc?$AAp?$AAi?$AAP?$AAa?$AAt?$AAh@ 00000000000c26b8     UefiDevicePathLib:DevicePathFromText.obj
 0002:000026d0       ??_C@_19HOGFOJAH@?$AAA?$AAc?$AAp?$AAi@ 00000000000c26d0     UefiDevicePathLib:DevicePathFromText.obj
 0002:000026e0       ??_C@_1BA@DHIPOOID@?$AAP?$AAc?$AAi?$AAR?$AAo?$AAo?$AAt@ 00000000000c26e0     UefiDevicePathLib:DevicePathFromText.obj
 0002:000026f0       ??_C@_1BC@CHOMCAOI@?$AAP?$AAc?$AAi?$AAe?$AAR?$AAo?$AAo?$AAt@ 00000000000c26f0     UefiDevicePathLib:DevicePathFromText.obj
 0002:00002708       ??_C@_1BC@NCPFOOPJ@?$AAK?$AAe?$AAy?$AAb?$AAo?$AAa?$AAr?$AAd@ 00000000000c2708     UefiDevicePathLib:DevicePathFromText.obj
 0002:00002720       ??_C@_1O@EKJPAJBH@?$AAS?$AAe?$AAr?$AAi?$AAa?$AAl@ 00000000000c2720     UefiDevicePathLib:DevicePathFromText.obj
 0002:00002730       ??_C@_1BK@LKLOGFGG@?$AAP?$AAa?$AAr?$AAa?$AAl?$AAl?$AAe?$AAl?$AAP?$AAo?$AAr?$AAt@ 00000000000c2730     UefiDevicePathLib:DevicePathFromText.obj
 0002:00002750       ??_C@_1O@GFMNADOD@?$AAA?$AAc?$AAp?$AAi?$AAE?$AAx@ 00000000000c2750     UefiDevicePathLib:DevicePathFromText.obj
 0002:00002760       ??_C@_1BA@IHGFDEME@?$AAA?$AAc?$AAp?$AAi?$AAE?$AAx?$AAp@ 00000000000c2760     UefiDevicePathLib:DevicePathFromText.obj
 0002:00002770       ??_C@_1BA@NNDCDAFF@?$AAA?$AAc?$AAp?$AAi?$AAA?$AAd?$AAr@ 00000000000c2770     UefiDevicePathLib:DevicePathFromText.obj
 0002:00002780       ??_C@_17DACEHHP@?$AAM?$AAs?$AAg@ 00000000000c2780     UefiDevicePathLib:DevicePathFromText.obj
 0002:00002788       ??_C@_17GMMDDNFE@?$AAA?$AAt?$AAa@ 00000000000c2788     UefiDevicePathLib:DevicePathFromText.obj
 0002:00002790       ??_C@_19NLKKMKHM@?$AAS?$AAc?$AAs?$AAi@ 00000000000c2790     UefiDevicePathLib:DevicePathFromText.obj
 0002:000027a0       ??_C@_1M@KOFKAIAH@?$AAF?$AAi?$AAb?$AAr?$AAe@ 00000000000c27a0     UefiDevicePathLib:DevicePathFromText.obj
 0002:000027b0       ??_C@_1BA@BDOAEBJM@?$AAF?$AAi?$AAb?$AAr?$AAe?$AAE?$AAx@ 00000000000c27b0     UefiDevicePathLib:DevicePathFromText.obj
 0002:000027c0       ??_C@_1M@PJKPDAPK@?$AAI?$AA1?$AA3?$AA9?$AA4@ 00000000000c27c0     UefiDevicePathLib:DevicePathFromText.obj
 0002:000027d0       ??_C@_17CGMKBHJN@?$AAI?$AA2?$AAO@ 00000000000c27d0     UefiDevicePathLib:DevicePathFromText.obj
 0002:000027d8       ??_C@_1BG@LFNGJFMI@?$AAI?$AAn?$AAf?$AAi?$AAn?$AAi?$AAb?$AAa?$AAn?$AAd@ 00000000000c27d8     UefiDevicePathLib:DevicePathFromText.obj
 0002:000027f0       ??_C@_1O@BHINEOCB@?$AAV?$AAe?$AAn?$AAM?$AAs?$AAg@ 00000000000c27f0     UefiDevicePathLib:DevicePathFromText.obj
 0002:00002800       ??_C@_1BE@LMIDEMJL@?$AAV?$AAe?$AAn?$AAP?$AAc?$AAA?$AAn?$AAs?$AAi@ 00000000000c2800     UefiDevicePathLib:DevicePathFromText.obj
 0002:00002818       ??_C@_1BC@JHDKFMJG@?$AAV?$AAe?$AAn?$AAV?$AAt?$AA1?$AA0?$AA0@ 00000000000c2818     UefiDevicePathLib:DevicePathFromText.obj
 0002:00002830       ??_C@_1BK@NHGIEBMC@?$AAV?$AAe?$AAn?$AAV?$AAt?$AA1?$AA0?$AA0?$AAP?$AAl?$AAu?$AAs@ 00000000000c2830     UefiDevicePathLib:DevicePathFromText.obj
 0002:00002850       ??_C@_1BA@NNIEKFBH@?$AAV?$AAe?$AAn?$AAU?$AAt?$AAf?$AA8@ 00000000000c2850     UefiDevicePathLib:DevicePathFromText.obj
 0002:00002860       ??_C@_1BK@CEOAKICF@?$AAU?$AAa?$AAr?$AAt?$AAF?$AAl?$AAo?$AAw?$AAC?$AAt?$AAr?$AAl@ 00000000000c2860     UefiDevicePathLib:DevicePathFromText.obj
 0002:00002880       ??_C@_1M@CCCLFLPN@?$AAS?$AAa?$AAs?$AAE?$AAx@ 00000000000c2880     UefiDevicePathLib:DevicePathFromText.obj
 0002:00002890       ??_C@_19LAHBEEFI@?$AAN?$AAV?$AAM?$AAe@ 00000000000c2890     UefiDevicePathLib:DevicePathFromText.obj
 0002:000028a0       ??_C@_17IHKCJEAJ@?$AAU?$AAF?$AAS@ 00000000000c28a0     UefiDevicePathLib:DevicePathFromText.obj
 0002:000028a8       ??_C@_15NAFBOLGP@?$AAS?$AAD@ 00000000000c28a8     UefiDevicePathLib:DevicePathFromText.obj
 0002:000028b0       ??_C@_19KDEEGBOA@?$AAe?$AAM?$AAM?$AAC@ 00000000000c28b0     UefiDevicePathLib:DevicePathFromText.obj
 0002:000028c0       ??_C@_1BE@BGIBNJJP@?$AAD?$AAe?$AAb?$AAu?$AAg?$AAP?$AAo?$AAr?$AAt@ 00000000000c28c0     UefiDevicePathLib:DevicePathFromText.obj
 0002:000028d8       ??_C@_17GFOANJLA@?$AAM?$AAA?$AAC@ 00000000000c28d8     UefiDevicePathLib:DevicePathFromText.obj
 0002:000028e0       ??_C@_19IJMOMJAP@?$AAI?$AAP?$AAv?$AA4@ 00000000000c28e0     UefiDevicePathLib:DevicePathFromText.obj
 0002:000028f0       ??_C@_19CDMHABIE@?$AAI?$AAP?$AAv?$AA6@ 00000000000c28f0     UefiDevicePathLib:DevicePathFromText.obj
 0002:00002900       ??_C@_19PNLOOBKB@?$AAU?$AAa?$AAr?$AAt@ 00000000000c2900     UefiDevicePathLib:DevicePathFromText.obj
 0002:00002910       ??_C@_1BC@BHHGGAIE@?$AAU?$AAs?$AAb?$AAC?$AAl?$AAa?$AAs?$AAs@ 00000000000c2910     UefiDevicePathLib:DevicePathFromText.obj
 0002:00002928       ??_C@_1BC@NAJEJDIH@?$AAU?$AAs?$AAb?$AAA?$AAu?$AAd?$AAi?$AAo@ 00000000000c2928     UefiDevicePathLib:DevicePathFromText.obj
 0002:00002940       ??_C@_1BM@EBMHFGAN@?$AAU?$AAs?$AAb?$AAC?$AAD?$AAC?$AAC?$AAo?$AAn?$AAt?$AAr?$AAo?$AAl@ 00000000000c2940     UefiDevicePathLib:DevicePathFromText.obj
 0002:00002960       ??_C@_1O@MNHDOJBH@?$AAU?$AAs?$AAb?$AAH?$AAI?$AAD@ 00000000000c2960     UefiDevicePathLib:DevicePathFromText.obj
 0002:00002970       ??_C@_1BC@PPLGKLBF@?$AAU?$AAs?$AAb?$AAI?$AAm?$AAa?$AAg?$AAe@ 00000000000c2970     UefiDevicePathLib:DevicePathFromText.obj
 0002:00002988       ??_C@_1BG@PFAKNBDK@?$AAU?$AAs?$AAb?$AAP?$AAr?$AAi?$AAn?$AAt?$AAe?$AAr@ 00000000000c2988     UefiDevicePathLib:DevicePathFromText.obj
 0002:000029a0       ??_C@_1BO@PDNPADEO@?$AAU?$AAs?$AAb?$AAM?$AAa?$AAs?$AAs?$AAS?$AAt?$AAo?$AAr?$AAa?$AAg?$AAe@ 00000000000c29a0     UefiDevicePathLib:DevicePathFromText.obj
 0002:000029c0       ??_C@_1O@DLJCNOCD@?$AAU?$AAs?$AAb?$AAH?$AAu?$AAb@ 00000000000c29c0     UefiDevicePathLib:DevicePathFromText.obj
 0002:000029d0       ??_C@_1BG@HNPFOCNE@?$AAU?$AAs?$AAb?$AAC?$AAD?$AAC?$AAD?$AAa?$AAt?$AAa@ 00000000000c29d0     UefiDevicePathLib:DevicePathFromText.obj
 0002:000029e8       ??_C@_1BK@COBNKHKO@?$AAU?$AAs?$AAb?$AAS?$AAm?$AAa?$AAr?$AAt?$AAC?$AAa?$AAr?$AAd@ 00000000000c29e8     UefiDevicePathLib:DevicePathFromText.obj
 0002:00002a08       ??_C@_1BC@OCEEDGOJ@?$AAU?$AAs?$AAb?$AAV?$AAi?$AAd?$AAe?$AAo@ 00000000000c2a08     UefiDevicePathLib:DevicePathFromText.obj
 0002:00002a20       ??_C@_1BM@LPAMJGAO@?$AAU?$AAs?$AAb?$AAD?$AAi?$AAa?$AAg?$AAn?$AAo?$AAs?$AAt?$AAi?$AAc@ 00000000000c2a20     UefiDevicePathLib:DevicePathFromText.obj
 0002:00002a40       ??_C@_1BI@FHBIGIDC@?$AAU?$AAs?$AAb?$AAW?$AAi?$AAr?$AAe?$AAl?$AAe?$AAs?$AAs@ 00000000000c2a40     UefiDevicePathLib:DevicePathFromText.obj
 0002:00002a58       ??_C@_1DA@MALGIHBH@?$AAU?$AAs?$AAb?$AAD?$AAe?$AAv?$AAi?$AAc?$AAe?$AAF?$AAi?$AAr?$AAm?$AAw?$AAa@ 00000000000c2a58     UefiDevicePathLib:DevicePathFromText.obj
 0002:00002a88       ??_C@_1BM@OGJGENB@?$AAU?$AAs?$AAb?$AAI?$AAr?$AAd?$AAa?$AAB?$AAr?$AAi?$AAd?$AAg?$AAe@ 00000000000c2a88     UefiDevicePathLib:DevicePathFromText.obj
 0002:00002aa8       ??_C@_1CM@FCDMDMMH@?$AAU?$AAs?$AAb?$AAT?$AAe?$AAs?$AAt?$AAA?$AAn?$AAd?$AAM?$AAe?$AAa?$AAs?$AAu@ 00000000000c2aa8     UefiDevicePathLib:DevicePathFromText.obj
 0002:00002ad8       ??_C@_1BA@JFMBPOKP@?$AAU?$AAs?$AAb?$AAW?$AAw?$AAi?$AAd@ 00000000000c2ad8     UefiDevicePathLib:DevicePathFromText.obj
 0002:00002ae8       ??_C@_19ENIPABFF@?$AAU?$AAn?$AAi?$AAt@ 00000000000c2ae8     UefiDevicePathLib:DevicePathFromText.obj
 0002:00002af8       ??_C@_1M@KIOGPKKC@?$AAi?$AAS?$AAC?$AAS?$AAI@ 00000000000c2af8     UefiDevicePathLib:DevicePathFromText.obj
 0002:00002b08       ??_C@_19DHGKIILN@?$AAV?$AAl?$AAa?$AAn@ 00000000000c2b08     UefiDevicePathLib:DevicePathFromText.obj
 0002:00002b18       ??_C@_17HMHOINNJ@?$AAD?$AAn?$AAs@ 00000000000c2b18     UefiDevicePathLib:DevicePathFromText.obj
 0002:00002b20       ??_C@_17IHNPMJHH@?$AAU?$AAr?$AAi@ 00000000000c2b20     UefiDevicePathLib:DevicePathFromText.obj
 0002:00002b28       ??_C@_1BE@DJCFELKD@?$AAB?$AAl?$AAu?$AAe?$AAt?$AAo?$AAo?$AAt?$AAh@ 00000000000c2b28     UefiDevicePathLib:DevicePathFromText.obj
 0002:00002b40       ??_C@_1M@BMGHIDNG@?$AAW?$AAi?$AA?9?$AAF?$AAi@ 00000000000c2b40     UefiDevicePathLib:DevicePathFromText.obj
 0002:00002b50       ??_C@_1BI@EALHOODN@?$AAB?$AAl?$AAu?$AAe?$AAt?$AAo?$AAo?$AAt?$AAh?$AAL?$AAE@ 00000000000c2b50     UefiDevicePathLib:DevicePathFromText.obj
 0002:00002b68       ??_C@_1BE@MHMKEMCG@?$AAM?$AAe?$AAd?$AAi?$AAa?$AAP?$AAa?$AAt?$AAh@ 00000000000c2b68     UefiDevicePathLib:DevicePathFromText.obj
 0002:00002b80       ??_C@_1BC@GHCKDDOI@?$AAV?$AAe?$AAn?$AAM?$AAe?$AAd?$AAi?$AAa@ 00000000000c2b80     UefiDevicePathLib:DevicePathFromText.obj
 0002:00002b98       ??_C@_1M@OFOICAAP@?$AAM?$AAe?$AAd?$AAi?$AAa@ 00000000000c2b98     UefiDevicePathLib:DevicePathFromText.obj
 0002:00002ba4       ??_C@_15NJGIEIGN@?$AAF?$AAv@ 00000000000c2ba4     UefiDevicePathLib:DevicePathFromText.obj
 0002:00002bb0       ??_C@_1O@HDIGBKAM@?$AAF?$AAv?$AAF?$AAi?$AAl?$AAe@ 00000000000c2bb0     UefiDevicePathLib:DevicePathFromText.obj
 0002:00002bc0       ??_C@_1O@LMEEEHLB@?$AAO?$AAf?$AAf?$AAs?$AAe?$AAt@ 00000000000c2bc0     UefiDevicePathLib:DevicePathFromText.obj
 0002:00002bd0       ??_C@_1BA@MCPGEJDD@?$AAR?$AAa?$AAm?$AAD?$AAi?$AAs?$AAk@ 00000000000c2bd0     UefiDevicePathLib:DevicePathFromText.obj
 0002:00002be0       ??_C@_1BI@DOBDENMH@?$AAV?$AAi?$AAr?$AAt?$AAu?$AAa?$AAl?$AAD?$AAi?$AAs?$AAk@ 00000000000c2be0     UefiDevicePathLib:DevicePathFromText.obj
 0002:00002bf8       ??_C@_1BE@INMIBDPL@?$AAV?$AAi?$AAr?$AAt?$AAu?$AAa?$AAl?$AAC?$AAD@ 00000000000c2bf8     UefiDevicePathLib:DevicePathFromText.obj
 0002:00002c10       ??_C@_1CM@HJNDDJNG@?$AAP?$AAe?$AAr?$AAs?$AAi?$AAs?$AAt?$AAe?$AAn?$AAt?$AAV?$AAi?$AAr?$AAt?$AAu@ 00000000000c2c10     UefiDevicePathLib:DevicePathFromText.obj
 0002:00002c40       ??_C@_1CI@NFGDEDCN@?$AAP?$AAe?$AAr?$AAs?$AAi?$AAs?$AAt?$AAe?$AAn?$AAt?$AAV?$AAi?$AAr?$AAt?$AAu@ 00000000000c2c40     UefiDevicePathLib:DevicePathFromText.obj
 0002:00002c68       ??_C@_1BA@EPIJMJOF@?$AAB?$AAb?$AAs?$AAP?$AAa?$AAt?$AAh@ 00000000000c2c68     UefiDevicePathLib:DevicePathFromText.obj
 0002:00002c78       ??_C@_17GKENOOCN@?$AAB?$AAB?$AAS@ 00000000000c2c78     UefiDevicePathLib:DevicePathFromText.obj
 0002:00002c80       ??_C@_19EBDONFFG@?$AAS?$AAa?$AAt?$AAa@ 00000000000c2c80     UefiDevicePathLib:DevicePathFromText.obj
 0002:00002c90       ??_C@_0BO@BBJIABON@DeviceNodeStr?5?$CB?$DN?5?$CI?$CIvoid?5?$CK?$CJ?50?$CJ@ 00000000000c2c90     UefiDevicePathLib:DevicePathFromText.obj
 0002:00002cb0       ??_C@_0BL@JFODOCGB@DevicePath?5?$CB?$DN?5?$CI?$CIvoid?5?$CK?$CJ?50?$CJ@ 00000000000c2cb0     UefiDevicePathLib:DevicePathFromText.obj
 0002:00002cd0       ??_C@_0BL@PENJEDLL@DeviceNode?5?$CB?$DN?5?$CI?$CIvoid?5?$CK?$CJ?50?$CJ@ 00000000000c2cd0     UefiDevicePathLib:DevicePathFromText.obj
 0002:00002cf0       ??_C@_0BJ@NNFHKMPH@Str?9?$DOStr?5?$CB?$DN?5?$CI?$CIvoid?5?$CK?$CJ?50?$CJ@ 00000000000c2cf0     UefiDevicePathLib:DevicePathToText.obj
 0002:00002d10       ??_C@_0EK@JEPGBKIF@f?3?2uefiworkspace?2edk2?2MdePkg?2Li@ 00000000000c2d10     UefiDevicePathLib:DevicePathToText.obj
 0002:00002d60       ??_C@_1BO@OAGLMPIF@?$AAP?$AAc?$AAi?$AA?$CI?$AA0?$AAx?$AA?$CF?$AAx?$AA?0?$AA0?$AAx?$AA?$CF?$AAx?$AA?$CJ@ 00000000000c2d60     UefiDevicePathLib:DevicePathToText.obj
 0002:00002d80       ??_C@_1BK@KCEBDNMK@?$AAP?$AAc?$AAC?$AAa?$AAr?$AAd?$AA?$CI?$AA0?$AAx?$AA?$CF?$AAx?$AA?$CJ@ 00000000000c2d80     UefiDevicePathLib:DevicePathToText.obj
 0002:00002da0       ??_C@_1DO@IFCJNKPC@?$AAM?$AAe?$AAm?$AAo?$AAr?$AAy?$AAM?$AAa?$AAp?$AAp?$AAe?$AAd?$AA?$CI?$AA0?$AAx@ 00000000000c2da0     UefiDevicePathLib:DevicePathToText.obj
 0002:00002de0       ??_C@_15FLNOEOHI@?$AAH?$AAw@ 00000000000c2de0     UefiDevicePathLib:DevicePathToText.obj
 0002:00002de8       ??_C@_1BI@PHHNEBMB@?$AAV?$AAe?$AAn?$AAP?$AAc?$AAA?$AAn?$AAs?$AAi?$AA?$CI?$AA?$CJ@ 00000000000c2de8     UefiDevicePathLib:DevicePathToText.obj
 0002:00002e00       ??_C@_1BG@IAIKNGNN@?$AAV?$AAe?$AAn?$AAV?$AAt?$AA1?$AA0?$AA0?$AA?$CI?$AA?$CJ@ 00000000000c2e00     UefiDevicePathLib:DevicePathToText.obj
 0002:00002e18       ??_C@_1BO@COEKAAEN@?$AAV?$AAe?$AAn?$AAV?$AAt?$AA1?$AA0?$AA0?$AAP?$AAl?$AAu?$AAs?$AA?$CI?$AA?$CJ@ 00000000000c2e18     UefiDevicePathLib:DevicePathToText.obj
 0002:00002e38       ??_C@_1BE@IDDFGEGE@?$AAV?$AAe?$AAn?$AAU?$AAt?$AAf?$AA8?$AA?$CI?$AA?$CJ@ 00000000000c2e38     UefiDevicePathLib:DevicePathToText.obj
 0002:00002e50       ??_C@_1CC@FKEHNDLA@?$AAU?$AAa?$AAr?$AAt?$AAF?$AAl?$AAo?$AAw?$AAC?$AAt?$AAr?$AAl?$AA?$CI?$AA?$CF?$AAs@ 00000000000c2e50     UefiDevicePathLib:DevicePathToText.obj
 0002:00002e78       ??_C@_1CM@MBOKCKGI@?$AAS?$AAA?$AAS?$AA?$CI?$AA0?$AAx?$AA?$CF?$AAl?$AAx?$AA?0?$AA0?$AAx?$AA?$CF?$AAl?$AAx@ 00000000000c2e78     UefiDevicePathLib:DevicePathToText.obj
 0002:00002ea8       ??_C@_1CE@FDCOMKL@?$AAN?$AAo?$AAT?$AAo?$AAp?$AAo?$AAl?$AAo?$AAg?$AAy?$AA?0?$AA0?$AA?0?$AA0?$AA?0@ 00000000000c2ea8     UefiDevicePathLib:DevicePathToText.obj
 0002:00002ed0       ??_C@_1BE@MLBJKAMN@?$AA?$CF?$AAs?$AA?0?$AA?$CF?$AAs?$AA?0?$AA?$CF?$AAs?$AA?0@ 00000000000c2ed0     UefiDevicePathLib:DevicePathToText.obj
 0002:00002ee4       ??_C@_15KAKDEJHH@?$AA0?$AA?0@ 00000000000c2ee4     UefiDevicePathLib:DevicePathToText.obj
 0002:00002ef0       ??_C@_1M@MJJODJOA@?$AA0?$AAx?$AA?$CF?$AAx?$AA?0@ 00000000000c2ef0     UefiDevicePathLib:DevicePathToText.obj
 0002:00002f00       ??_C@_1BI@EOONELPP@?$AA0?$AAx?$AA?$CF?$AAx?$AA?0?$AA0?$AA?0?$AA0?$AA?0?$AA0?$AA?0@ 00000000000c2f00     UefiDevicePathLib:DevicePathToText.obj
 0002:00002f18       ??_C@_1M@POEAMJNC@?$AA0?$AAx?$AA?$CF?$AAx?$AA?$CJ@ 00000000000c2f18     UefiDevicePathLib:DevicePathToText.obj
 0002:00002f28       ??_C@_1BI@IHPCIEPJ@?$AAD?$AAe?$AAb?$AAu?$AAg?$AAP?$AAo?$AAr?$AAt?$AA?$CI?$AA?$CJ@ 00000000000c2f28     UefiDevicePathLib:DevicePathToText.obj
 0002:00002f40       ??_C@_1BC@EAAHJKNI@?$AAV?$AAe?$AAn?$AA?$CF?$AAs?$AA?$CI?$AA?$CF?$AAg@ 00000000000c2f40     UefiDevicePathLib:DevicePathToText.obj
 0002:00002f54       ??_C@_13DEFPDAGF@?$AA?0@   00000000000c2f54     UefiDevicePathLib:DevicePathToText.obj
 0002:00002f58       ??_C@_19NHPFCCLF@?$AA?$CF?$AA0?$AA2?$AAx@ 00000000000c2f58     UefiDevicePathLib:DevicePathToText.obj
 0002:00002f64       ??_C@_13DIBMAFH@?$AA?$CJ@  00000000000c2f64     UefiDevicePathLib:DevicePathToText.obj
 0002:00002f68       ??_C@_1BG@PDEHEHNB@?$AAC?$AAt?$AAr?$AAl?$AA?$CI?$AA0?$AAx?$AA?$CF?$AAx?$AA?$CJ@ 00000000000c2f68     UefiDevicePathLib:DevicePathToText.obj
 0002:00002f80       ??_C@_1CA@OCDNKJMI@?$AAB?$AAM?$AAC?$AA?$CI?$AA0?$AAx?$AA?$CF?$AAx?$AA?0?$AA0?$AAx?$AA?$CF?$AAl?$AAx?$AA?$CJ@ 00000000000c2f80     UefiDevicePathLib:DevicePathToText.obj
 0002:00002fa0       ??_C@_1BM@LLBDFMIK@?$AAP?$AAc?$AAi?$AAR?$AAo?$AAo?$AAt?$AA?$CI?$AA0?$AAx?$AA?$CF?$AAx?$AA?$CJ@ 00000000000c2fa0     UefiDevicePathLib:DevicePathToText.obj
 0002:00002fc0       ??_C@_1BO@IHBMGOPI@?$AAP?$AAc?$AAi?$AAe?$AAR?$AAo?$AAo?$AAt?$AA?$CI?$AA0?$AAx?$AA?$CF?$AAx?$AA?$CJ@ 00000000000c2fc0     UefiDevicePathLib:DevicePathToText.obj
 0002:00002fe0       ??_C@_1BK@NGLNBACO@?$AAF?$AAl?$AAo?$AAp?$AAp?$AAy?$AA?$CI?$AA0?$AAx?$AA?$CF?$AAx?$AA?$CJ@ 00000000000c2fe0     UefiDevicePathLib:DevicePathToText.obj
 0002:00003000       ??_C@_1BO@OEKEOEOK@?$AAK?$AAe?$AAy?$AAb?$AAo?$AAa?$AAr?$AAd?$AA?$CI?$AA0?$AAx?$AA?$CF?$AAx?$AA?$CJ@ 00000000000c3000     UefiDevicePathLib:DevicePathToText.obj
 0002:00003020       ??_C@_1BK@PMIGPGKH@?$AAS?$AAe?$AAr?$AAi?$AAa?$AAl?$AA?$CI?$AA0?$AAx?$AA?$CF?$AAx?$AA?$CJ@ 00000000000c3020     UefiDevicePathLib:DevicePathToText.obj
 0002:00003040       ??_C@_1CG@CPMOJELH@?$AAP?$AAa?$AAr?$AAa?$AAl?$AAl?$AAe?$AAl?$AAP?$AAo?$AAr?$AAt?$AA?$CI?$AA0?$AAx@ 00000000000c3040     UefiDevicePathLib:DevicePathToText.obj
 0002:00003068       ??_C@_1CG@JCMCADBM@?$AAA?$AAc?$AAp?$AAi?$AA?$CI?$AAP?$AAN?$AAP?$AA?$CF?$AA0?$AA4?$AAx?$AA?0?$AA0?$AAx@ 00000000000c3068     UefiDevicePathLib:DevicePathToText.obj
 0002:00003090       ??_C@_1CE@CLIAMHCD@?$AAA?$AAc?$AAp?$AAi?$AA?$CI?$AA0?$AAx?$AA?$CF?$AA0?$AA8?$AAx?$AA?0?$AA0?$AAx?$AA?$CF@ 00000000000c3090     UefiDevicePathLib:DevicePathToText.obj
 0002:000030b8       ??_C@_1BI@IBECIOLF@?$AAP?$AAc?$AAi?$AAR?$AAo?$AAo?$AAt?$AA?$CI?$AA?$CF?$AAa?$AA?$CJ@ 00000000000c30b8     UefiDevicePathLib:DevicePathToText.obj
 0002:000030d0       ??_C@_1BK@HOGBDMPI@?$AAP?$AAc?$AAi?$AAe?$AAR?$AAo?$AAo?$AAt?$AA?$CI?$AA?$CF?$AAa?$AA?$CJ@ 00000000000c30d0     UefiDevicePathLib:DevicePathToText.obj
 0002:000030f0       ??_C@_1BG@BGLICHDL@?$AA?$CF?$AAc?$AA?$CF?$AAc?$AA?$CF?$AAc?$AA?$CF?$AA0?$AA4?$AAX@ 00000000000c30f0     UefiDevicePathLib:DevicePathToText.obj
 0002:00003108       ??_C@_1CC@CMCFGMM@?$AAA?$AAc?$AAp?$AAi?$AAE?$AAx?$AAp?$AA?$CI?$AA?$CF?$AAs?$AA?0?$AA0?$AA?0?$AA?$CF?$AAa@ 00000000000c3108     UefiDevicePathLib:DevicePathToText.obj
 0002:00003130       ??_C@_1CE@CGEKHGFF@?$AAA?$AAc?$AAp?$AAi?$AAE?$AAx?$AAp?$AA?$CI?$AA?$CF?$AAs?$AA?0?$AA?$CF?$AAs?$AA?0?$AA?$CF@ 00000000000c3130     UefiDevicePathLib:DevicePathToText.obj
 0002:00003158       ??_C@_1BG@EEDCOCH@?$AAA?$AAc?$AAp?$AAi?$AAE?$AAx?$AA?$CI?$AA?$CF?$AAa?$AA?0@ 00000000000c3158     UefiDevicePathLib:DevicePathToText.obj
 0002:00003170       ??_C@_1BG@EKFNINLH@?$AAA?$AAc?$AAp?$AAi?$AAE?$AAx?$AA?$CI?$AA?$CF?$AAs?$AA?0@ 00000000000c3170     UefiDevicePathLib:DevicePathToText.obj
 0002:00003188       ??_C@_17CAHIANN@?$AA?$CF?$AAa?$AA?0@ 00000000000c3188     UefiDevicePathLib:DevicePathToText.obj
 0002:00003190       ??_C@_17EMBJCDEN@?$AA?$CF?$AAs?$AA?0@ 00000000000c3190     UefiDevicePathLib:DevicePathToText.obj
 0002:00003198       ??_C@_17DFNJHAOP@?$AA?$CF?$AAa?$AA?$CJ@ 00000000000c3198     UefiDevicePathLib:DevicePathToText.obj
 0002:000031a0       ??_C@_1DI@HGKBPPFE@?$AAA?$AAc?$AAp?$AAi?$AAE?$AAx?$AA?$CI?$AA?$CF?$AAs?$AA?0?$AA?$CF?$AAs?$AA?0?$AA0?$AAx@ 00000000000c31a0     UefiDevicePathLib:DevicePathToText.obj
 0002:000031d8       ??_C@_1BK@IMGBACLG@?$AAA?$AAc?$AAp?$AAi?$AAA?$AAd?$AAr?$AA?$CI?$AA0?$AAx?$AA?$CF?$AAx@ 00000000000c31d8     UefiDevicePathLib:DevicePathToText.obj
 0002:000031f8       ??_C@_1M@HHLNLLAC@?$AA?0?$AA0?$AAx?$AA?$CF?$AAx@ 00000000000c31f8     UefiDevicePathLib:DevicePathToText.obj
 0002:00003208       ??_C@_1BE@HBALDGNG@?$AAA?$AAt?$AAa?$AA?$CI?$AA0?$AAx?$AA?$CF?$AAx?$AA?$CJ@ 00000000000c3208     UefiDevicePathLib:DevicePathToText.obj
 0002:00003220       ??_C@_1CA@EFDNFHKP@?$AAA?$AAt?$AAa?$AA?$CI?$AA?$CF?$AAs?$AA?0?$AA?$CF?$AAs?$AA?0?$AA0?$AAx?$AA?$CF?$AAx?$AA?$CJ@ 00000000000c3220     UefiDevicePathLib:DevicePathToText.obj
 0002:00003240       ??_C@_1CA@JGIMMJKB@?$AAS?$AAc?$AAs?$AAi?$AA?$CI?$AA0?$AAx?$AA?$CF?$AAx?$AA?0?$AA0?$AAx?$AA?$CF?$AAx?$AA?$CJ@ 00000000000c3240     UefiDevicePathLib:DevicePathToText.obj
 0002:00003260       ??_C@_1CG@OFFLOOAD@?$AAF?$AAi?$AAb?$AAr?$AAe?$AA?$CI?$AA0?$AAx?$AA?$CF?$AAl?$AAx?$AA?0?$AA0?$AAx?$AA?$CF@ 00000000000c3260     UefiDevicePathLib:DevicePathToText.obj
 0002:00003288       ??_C@_1BG@EHEKANON@?$AAF?$AAi?$AAb?$AAr?$AAe?$AAE?$AAx?$AA?$CI?$AA0?$AAx@ 00000000000c3288     UefiDevicePathLib:DevicePathToText.obj
 0002:000032a0       ??_C@_17JOPFNIFB@?$AA?0?$AA0?$AAx@ 00000000000c32a0     UefiDevicePathLib:DevicePathToText.obj
 0002:000032a8       ??_C@_1BC@CKFHLIJB@?$AAS?$AAa?$AAs?$AAE?$AAx?$AA?$CI?$AA0?$AAx@ 00000000000c32a8     UefiDevicePathLib:DevicePathToText.obj
 0002:000032c0       ??_C@_1O@IEGBGPLN@?$AA?0?$AA0?$AAx?$AA?$CF?$AAx?$AA?0@ 00000000000c32c0     UefiDevicePathLib:DevicePathToText.obj
 0002:000032d0       ??_C@_1CC@FKOFEPIC@?$AAN?$AAo?$AAT?$AAo?$AAp?$AAo?$AAl?$AAo?$AAg?$AAy?$AA?0?$AA0?$AA?0?$AA0?$AA?0@ 00000000000c32d0     UefiDevicePathLib:DevicePathToText.obj
 0002:000032f4       ??_C@_13COJANIEC@?$AA0@    00000000000c32f4     UefiDevicePathLib:DevicePathToText.obj
 0002:000032f8       ??_C@_1BG@JCDPLMKI@?$AA0?$AAx?$AA?$CF?$AAx?$AA?0?$AA0?$AA?0?$AA0?$AA?0?$AA0@ 00000000000c32f8     UefiDevicePathLib:DevicePathToText.obj
 0002:00003310       ??_C@_1GG@KPIKGINP@?$AAN?$AAV?$AAM?$AAe?$AA?$CI?$AA0?$AAx?$AA?$CF?$AAx?$AA?0?$AA?$CF?$AA0?$AA2?$AAx?$AA?9@ 00000000000c3310     UefiDevicePathLib:DevicePathToText.obj
 0002:00003378       ??_C@_1BO@HJLBIHHO@?$AAU?$AAF?$AAS?$AA?$CI?$AA0?$AAx?$AA?$CF?$AAx?$AA?0?$AA0?$AAx?$AA?$CF?$AAx?$AA?$CJ@ 00000000000c3378     UefiDevicePathLib:DevicePathToText.obj
 0002:00003398       ??_C@_1BC@JIFEONHJ@?$AAS?$AAD?$AA?$CI?$AA0?$AAx?$AA?$CF?$AAx?$AA?$CJ@ 00000000000c3398     UefiDevicePathLib:DevicePathToText.obj
 0002:000033b0       ??_C@_1BG@BHOAMFEP@?$AAe?$AAM?$AAM?$AAC?$AA?$CI?$AA0?$AAx?$AA?$CF?$AAx?$AA?$CJ@ 00000000000c33b0     UefiDevicePathLib:DevicePathToText.obj
 0002:000033c8       ??_C@_1BM@OFMOJDLM@?$AAI?$AA1?$AA3?$AA9?$AA4?$AA?$CI?$AA?$CF?$AA0?$AA1?$AA6?$AAl?$AAx?$AA?$CJ@ 00000000000c33c8     UefiDevicePathLib:DevicePathToText.obj
 0002:000033e8       ??_C@_1BO@CIMDKCCI@?$AAU?$AAS?$AAB?$AA?$CI?$AA0?$AAx?$AA?$CF?$AAx?$AA?0?$AA0?$AAx?$AA?$CF?$AAx?$AA?$CJ@ 00000000000c33e8     UefiDevicePathLib:DevicePathToText.obj
 0002:00003408       ??_C@_0BH@GADOMDOK@NewStr?5?$CB?$DN?5?$CI?$CIvoid?5?$CK?$CJ?50?$CJ@ 00000000000c3408     UefiDevicePathLib:DevicePathToText.obj
 0002:00003420       ??_C@_1DK@IPDOPIPA@?$AAU?$AAs?$AAb?$AAW?$AAw?$AAi?$AAd?$AA?$CI?$AA0?$AAx?$AA?$CF?$AAx?$AA?0?$AA0?$AAx@ 00000000000c3420     UefiDevicePathLib:DevicePathToText.obj
 0002:00003460       ??_C@_1BG@NJNCNCKM@?$AAU?$AAn?$AAi?$AAt?$AA?$CI?$AA0?$AAx?$AA?$CF?$AAx?$AA?$CJ@ 00000000000c3460     UefiDevicePathLib:DevicePathToText.obj
 0002:00003478       ??_C@_1CM@JDEAFCK@?$AA?$CI?$AA0?$AAx?$AA?$CF?$AAx?$AA?0?$AA0?$AAx?$AA?$CF?$AAx?$AA?0?$AA0?$AAx?$AA?$CF?$AAx@ 00000000000c3478     UefiDevicePathLib:DevicePathToText.obj
 0002:000034b0       ??_C@_1FA@DIDNHLOK@?$AAU?$AAs?$AAb?$AAD?$AAe?$AAv?$AAi?$AAc?$AAe?$AAF?$AAi?$AAr?$AAm?$AAw?$AAa@ 00000000000c34b0     UefiDevicePathLib:DevicePathToText.obj
 0002:00003500       ??_C@_1DM@JLMEALMP@?$AAU?$AAs?$AAb?$AAI?$AAr?$AAd?$AAa?$AAB?$AAr?$AAi?$AAd?$AAg?$AAe?$AA?$CI?$AA0@ 00000000000c3500     UefiDevicePathLib:DevicePathToText.obj
 0002:00003540       ??_C@_1EM@PFIODAIB@?$AAU?$AAs?$AAb?$AAT?$AAe?$AAs?$AAt?$AAA?$AAn?$AAd?$AAM?$AAe?$AAa?$AAs?$AAu@ 00000000000c3540     UefiDevicePathLib:DevicePathToText.obj
 0002:00003590       ??_C@_1EG@NMOJJABI@?$AAU?$AAs?$AAb?$AAC?$AAl?$AAa?$AAs?$AAs?$AA?$CI?$AA0?$AAx?$AA?$CF?$AAx?$AA?0?$AA0@ 00000000000c3590     UefiDevicePathLib:DevicePathToText.obj
 0002:000035d8       ??_C@_1CK@MHLLPHIN@?$AAS?$AAa?$AAt?$AAa?$AA?$CI?$AA0?$AAx?$AA?$CF?$AAx?$AA?0?$AA0?$AAx?$AA?$CF?$AAx?$AA?0@ 00000000000c35d8     UefiDevicePathLib:DevicePathToText.obj
 0002:00003608       ??_C@_1BE@GPJMKBFH@?$AAI?$AA2?$AAO?$AA?$CI?$AA0?$AAx?$AA?$CF?$AAx?$AA?$CJ@ 00000000000c3608     UefiDevicePathLib:DevicePathToText.obj
 0002:00003620       ??_C@_19HOEMCGPJ@?$AAM?$AAA?$AAC?$AA?$CI@ 00000000000c3620     UefiDevicePathLib:DevicePathToText.obj
 0002:00003630       ??_C@_1O@LDLPJPIP@?$AA?0?$AA0?$AAx?$AA?$CF?$AAx?$AA?$CJ@ 00000000000c3630     UefiDevicePathLib:DevicePathToText.obj
 0002:00003640       ??_C@_1BI@FCMLLAGN@?$AA?$CF?$AAd?$AA?4?$AA?$CF?$AAd?$AA?4?$AA?$CF?$AAd?$AA?4?$AA?$CF?$AAd@ 00000000000c3640     UefiDevicePathLib:DevicePathToText.obj
 0002:00003660       ??_C@_1JA@HKGNNMMG@?$AA?$CF?$AA0?$AA2?$AAx?$AA?$CF?$AA0?$AA2?$AAx?$AA?3?$AA?$CF?$AA0?$AA2?$AAx?$AA?$CF?$AA0@ 00000000000c3660     UefiDevicePathLib:DevicePathToText.obj
 0002:000036f0       ??_C@_1M@KGGIME@?$AAI?$AAP?$AAv?$AA4?$AA?$CI@ 00000000000c36f0     UefiDevicePathLib:DevicePathToText.obj
 0002:00003700       ??_C@_19DDJNJOGL@?$AAD?$AAH?$AAC?$AAP@ 00000000000c3700     UefiDevicePathLib:DevicePathToText.obj
 0002:00003710       ??_C@_19JPNAHHAM@?$AA?0?$AA?$CF?$AAs?$AA?0@ 00000000000c3710     UefiDevicePathLib:DevicePathToText.obj
 0002:00003720       ??_C@_1M@ENGOMJMP@?$AAI?$AAP?$AAv?$AA6?$AA?$CI@ 00000000000c3720     UefiDevicePathLib:DevicePathToText.obj
 0002:00003730       ??_C@_1BC@CMHMGCCH@?$AA?0?$AAS?$AAt?$AAa?$AAt?$AAi?$AAc?$AA?0@ 00000000000c3730     UefiDevicePathLib:DevicePathToText.obj
 0002:00003748       ??_C@_1DC@LOFPJEEL@?$AA?0?$AAS?$AAt?$AAa?$AAt?$AAe?$AAl?$AAe?$AAs?$AAs?$AAA?$AAu?$AAt?$AAo?$AAC@ 00000000000c3748     UefiDevicePathLib:DevicePathToText.obj
 0002:00003780       ??_C@_1DA@HMGEOIF@?$AA?0?$AAS?$AAt?$AAa?$AAt?$AAe?$AAf?$AAu?$AAl?$AAA?$AAu?$AAt?$AAo?$AAC?$AAo@ 00000000000c3780     UefiDevicePathLib:DevicePathToText.obj
 0002:000037b0       ??_C@_1EM@IPHLFBGI@?$AAI?$AAn?$AAf?$AAi?$AAn?$AAi?$AAb?$AAa?$AAn?$AAd?$AA?$CI?$AA0?$AAx?$AA?$CF?$AAx@ 00000000000c37b0     UefiDevicePathLib:DevicePathToText.obj
 0002:00003800       ??_C@_1BM@EHGODEHA@?$AAU?$AAa?$AAr?$AAt?$AA?$CI?$AAD?$AAE?$AAF?$AAA?$AAU?$AAL?$AAT?$AA?0@ 00000000000c3800     UefiDevicePathLib:DevicePathToText.obj
 0002:00003820       ??_C@_1BE@OEIOOGGH@?$AAU?$AAa?$AAr?$AAt?$AA?$CI?$AA?$CF?$AAl?$AAd?$AA?0@ 00000000000c3820     UefiDevicePathLib:DevicePathToText.obj
 0002:00003838       ??_C@_1BC@DDKPDLCJ@?$AAD?$AAE?$AAF?$AAA?$AAU?$AAL?$AAT?$AA?0@ 00000000000c3838     UefiDevicePathLib:DevicePathToText.obj
 0002:00003850       ??_C@_17FCMKBBGO@?$AA?$CF?$AAd?$AA?0@ 00000000000c3850     UefiDevicePathLib:DevicePathToText.obj
 0002:00003858       ??_C@_17EPMPCBNG@?$AA?$CF?$AAc?$AA?0@ 00000000000c3858     UefiDevicePathLib:DevicePathToText.obj
 0002:00003860       ??_C@_15HMOPGJC@?$AAD?$AA?$CJ@ 00000000000c3860     UefiDevicePathLib:DevicePathToText.obj
 0002:00003868       ??_C@_15FMCBGKOA@?$AA1?$AA?$CJ@ 00000000000c3868     UefiDevicePathLib:DevicePathToText.obj
 0002:00003870       ??_C@_19PODFHIEB@?$AA1?$AA?4?$AA5?$AA?$CJ@ 00000000000c3870     UefiDevicePathLib:DevicePathToText.obj
 0002:0000387c       ??_C@_15NKLFBIEO@?$AA2?$AA?$CJ@ 00000000000c387c     UefiDevicePathLib:DevicePathToText.obj
 0002:00003884       ??_C@_15HEHGDBEE@?$AAx?$AA?$CJ@ 00000000000c3884     UefiDevicePathLib:DevicePathToText.obj
 0002:00003890       ??_C@_1CC@OKJDLPLB@?$AAi?$AAS?$AAC?$AAS?$AAI?$AA?$CI?$AA?$CF?$AAa?$AA?0?$AA0?$AAx?$AA?$CF?$AAx?$AA?0?$AA0@ 00000000000c3890     UefiDevicePathLib:DevicePathToText.obj
 0002:000038b8       ??_C@_1BA@FMEKDPAI@?$AAC?$AAH?$AAA?$AAP?$AA_?$AAB?$AAI@ 00000000000c38b8     UefiDevicePathLib:DevicePathToText.obj
 0002:000038c8       ??_C@_1BC@EFEBCBGB@?$AAr?$AAe?$AAs?$AAe?$AAr?$AAv?$AAe?$AAd@ 00000000000c38c8     UefiDevicePathLib:DevicePathToText.obj
 0002:000038e0       ??_C@_17HLMHNDHP@?$AA?$CF?$AAs?$AA?$CJ@ 00000000000c38e0     UefiDevicePathLib:DevicePathToText.obj
 0002:000038e8       ??_C@_1BC@OPCHKNKH@?$AAV?$AAl?$AAa?$AAn?$AA?$CI?$AA?$CF?$AAd?$AA?$CJ@ 00000000000c38e8     UefiDevicePathLib:DevicePathToText.obj
 0002:00003900       ??_C@_1EI@EPMFLBAJ@?$AAB?$AAl?$AAu?$AAe?$AAt?$AAo?$AAo?$AAt?$AAh?$AA?$CI?$AA?$CF?$AA0?$AA2?$AAx?$AA?$CF@ 00000000000c3900     UefiDevicePathLib:DevicePathToText.obj
 0002:00003948       ??_C@_1BE@DKODNJMI@?$AAW?$AAi?$AA?9?$AAF?$AAi?$AA?$CI?$AA?$CF?$AAa?$AA?$CJ@ 00000000000c3948     UefiDevicePathLib:DevicePathToText.obj
 0002:00003960       ??_C@_1FK@LABBEHKJ@?$AAB?$AAl?$AAu?$AAe?$AAt?$AAo?$AAo?$AAt?$AAh?$AAL?$AAE?$AA?$CI?$AA?$CF?$AA0?$AA2@ 00000000000c3960     UefiDevicePathLib:DevicePathToText.obj
 0002:000039c0       ??_C@_19KGHFHKGE@?$AAD?$AAn?$AAs?$AA?$CI@ 00000000000c39c0     UefiDevicePathLib:DevicePathToText.obj
 0002:000039d0       ??_C@_0BH@EDBFFFOA@UriStr?5?$CB?$DN?5?$CI?$CIvoid?5?$CK?$CJ?50?$CJ@ 00000000000c39d0     UefiDevicePathLib:DevicePathToText.obj
 0002:000039e8       ??_C@_1BA@OMDAJDPE@?$AAU?$AAr?$AAi?$AA?$CI?$AA?$CF?$AAa?$AA?$CJ@ 00000000000c39e8     UefiDevicePathLib:DevicePathToText.obj
 0002:000039f8       ??_C@_1CC@GGNPKJFE@?$AAH?$AAD?$AA?$CI?$AA?$CF?$AAd?$AA?0?$AA?$CF?$AAs?$AA?0?$AA0?$AAx?$AA?$CF?$AA0?$AA8?$AAx@ 00000000000c39f8     UefiDevicePathLib:DevicePathToText.obj
 0002:00003a20       ??_C@_1BK@NDBPAJDF@?$AAH?$AAD?$AA?$CI?$AA?$CF?$AAd?$AA?0?$AA?$CF?$AAs?$AA?0?$AA?$CF?$AAg?$AA?0@ 00000000000c3a20     UefiDevicePathLib:DevicePathToText.obj
 0002:00003a40       ??_C@_1BI@BCKDFMFI@?$AAH?$AAD?$AA?$CI?$AA?$CF?$AAd?$AA?0?$AA?$CF?$AAd?$AA?0?$AA0?$AA?0@ 00000000000c3a40     UefiDevicePathLib:DevicePathToText.obj
 0002:00003a58       ??_C@_1BK@MMBDHGIK@?$AA0?$AAx?$AA?$CF?$AAl?$AAx?$AA?0?$AA0?$AAx?$AA?$CF?$AAl?$AAx?$AA?$CJ@ 00000000000c3a58     UefiDevicePathLib:DevicePathToText.obj
 0002:00003a78       ??_C@_1BI@EEHCFNDN@?$AAC?$AAD?$AAR?$AAO?$AAM?$AA?$CI?$AA0?$AAx?$AA?$CF?$AAx?$AA?$CJ@ 00000000000c3a78     UefiDevicePathLib:DevicePathToText.obj
 0002:00003a90       ??_C@_1DA@JMLBJEDN@?$AAC?$AAD?$AAR?$AAO?$AAM?$AA?$CI?$AA0?$AAx?$AA?$CF?$AAx?$AA?0?$AA0?$AAx?$AA?$CF?$AAl@ 00000000000c3a90     UefiDevicePathLib:DevicePathToText.obj
 0002:00003ac0       ??_C@_15GANGMFKL@?$AA?$CF?$AAs@ 00000000000c3ac0     UefiDevicePathLib:DevicePathToText.obj
 0002:00003ac8       ??_C@_1BE@CJGJAKDA@?$AAM?$AAe?$AAd?$AAi?$AAa?$AA?$CI?$AA?$CF?$AAg?$AA?$CJ@ 00000000000c3ac8     UefiDevicePathLib:DevicePathToText.obj
 0002:00003ae0       ??_C@_1O@HJJPOOCL@?$AAF?$AAv?$AA?$CI?$AA?$CF?$AAg?$AA?$CJ@ 00000000000c3ae0     UefiDevicePathLib:DevicePathToText.obj
 0002:00003af0       ??_C@_1BG@MHENELFF@?$AAF?$AAv?$AAF?$AAi?$AAl?$AAe?$AA?$CI?$AA?$CF?$AAg?$AA?$CJ@ 00000000000c3af0     UefiDevicePathLib:DevicePathToText.obj
 0002:00003b08       ??_C@_1CI@FAOKAOM@?$AAO?$AAf?$AAf?$AAs?$AAe?$AAt?$AA?$CI?$AA0?$AAx?$AA?$CF?$AAl?$AAx?$AA?0?$AA0?$AAx@ 00000000000c3b08     UefiDevicePathLib:DevicePathToText.obj
 0002:00003b30       ??_C@_1DI@GJAGNPCG@?$AAV?$AAi?$AAr?$AAt?$AAu?$AAa?$AAl?$AAD?$AAi?$AAs?$AAk?$AA?$CI?$AA0?$AAx?$AA?$CF@ 00000000000c3b30     UefiDevicePathLib:DevicePathToText.obj
 0002:00003b68       ??_C@_1DE@FBEBFJJD@?$AAV?$AAi?$AAr?$AAt?$AAu?$AAa?$AAl?$AAC?$AAD?$AA?$CI?$AA0?$AAx?$AA?$CF?$AAl?$AAx@ 00000000000c3b68     UefiDevicePathLib:DevicePathToText.obj
 0002:00003ba0       ??_C@_1EM@PFGFJDCD@?$AAP?$AAe?$AAr?$AAs?$AAi?$AAs?$AAt?$AAe?$AAn?$AAt?$AAV?$AAi?$AAr?$AAt?$AAu@ 00000000000c3ba0     UefiDevicePathLib:DevicePathToText.obj
 0002:00003bf0       ??_C@_1EI@IJLGIAIE@?$AAP?$AAe?$AAr?$AAs?$AAi?$AAs?$AAt?$AAe?$AAn?$AAt?$AAV?$AAi?$AAr?$AAt?$AAu@ 00000000000c3bf0     UefiDevicePathLib:DevicePathToText.obj
 0002:00003c38       ??_C@_1DG@IFGHOPEL@?$AAR?$AAa?$AAm?$AAD?$AAi?$AAs?$AAk?$AA?$CI?$AA0?$AAx?$AA?$CF?$AAl?$AAx?$AA?0?$AA0@ 00000000000c3c38     UefiDevicePathLib:DevicePathToText.obj
 0002:00003c70       ??_C@_1BE@EICHFCPK@?$AAB?$AAB?$AAS?$AA?$CI?$AA?$CF?$AAs?$AA?0?$AA?$CF?$AAa@ 00000000000c3c70     UefiDevicePathLib:DevicePathToText.obj
 0002:00003c88       ??_C@_1BI@EAEHELAJ@?$AAB?$AAB?$AAS?$AA?$CI?$AA0?$AAx?$AA?$CF?$AAx?$AA?0?$AA?$CF?$AAa@ 00000000000c3c88     UefiDevicePathLib:DevicePathToText.obj
 0002:00003ca0       ??_C@_1BG@BNMBFAIA@?$AAP?$AAa?$AAt?$AAh?$AA?$CI?$AA?$CF?$AAd?$AA?0?$AA?$CF?$AAd@ 00000000000c3ca0     UefiDevicePathLib:DevicePathToText.obj
 0002:00003cb8       ??_C@_1M@NAHACGNB@?$AA?$CF?$AAs?$AA?$CI?$AA?$CF?$AAd@ 00000000000c3cb8     UefiDevicePathLib:DevicePathToText.obj
 0002:00003cc4       ??_C@_13CGOKJPIL@?$AA?1@   00000000000c3cc4     UefiDevicePathLib:DevicePathToText.obj
 0002:00003cd0       mUefiDevicePathLibToTextTableGeneric 00000000000c3cd0     UefiDevicePathLib:DevicePathToText.obj
 0002:00003d30       mUefiDevicePathLibToTextTable 00000000000c3d30     UefiDevicePathLib:DevicePathToText.obj
 0002:00004050       ??_C@_0FD@NABGIAAK@f?3?2uefiworkspace?2edk2?2MdePkg?2Li@ 00000000000c4050     UefiMemoryAllocationLib:MemoryAllocationLib.obj
 0002:000040a8       ??_C@_0DO@GEEICOOO@AllocationSize?5?$DM?$DN?5?$CI0xFFFFFFFFFF@ 00000000000c40a8     UefiMemoryAllocationLib:MemoryAllocationLib.obj
 0002:000040e8       ??_C@_0BH@LKMBFCBF@Format?5?$CB?$DN?5?$CI?$CIvoid?5?$CK?$CJ?50?$CJ@ 00000000000c40e8     PeiDxeDebugLibReportStatusCode:DebugLib.obj
 0002:00004100       ??_C@_0FF@OJMNGPG@f?3?2uefiworkspace?2edk2?2MdeModule@ 00000000000c4100     PeiDxeDebugLibReportStatusCode:DebugLib.obj
 0002:00004158       ??_C@_0CP@EFCGCEBK@?$CICHAR8?5?$CK?$CJBaseListMarkerPointer?5@ 00000000000c4158     PeiDxeDebugLibReportStatusCode:DebugLib.obj
 0002:00004188       ??_C@_01OHGJGJJP@?$FL@     00000000000c4188     PeiDxeDebugLibReportStatusCode:DebugLib.obj
 0002:0000418c       ??_C@_02PBFOLPKM@?$FN?5@   00000000000c418c     PeiDxeDebugLibReportStatusCode:DebugLib.obj
 0002:00004190       ??_C@_0CC@GFNLNIOC@?$CI?$CIUINTN?$CJString?5?$CG?50x00000001?$CJ?5?$DN?$DN@ 00000000000c4190     BaseLib:SafeString.obj
 0002:000041b8       ??_C@_0DK@NEJELINC@f?3?2uefiworkspace?2edk2?2MdePkg?2Li@ 00000000000c41b8     BaseLib:SafeString.obj
 0002:000041f8       ??_C@_0CH@LALFPBMC@?$CI?$CIUINTN?$CJDestination?5?$CG?50x0000000@ 00000000000c41f8     BaseLib:SafeString.obj
 0002:00004220       ??_C@_0CC@HEBCMBPF@?$CI?$CIUINTN?$CJSource?5?$CG?50x00000001?$CJ?5?$DN?$DN@ 00000000000c4220     BaseLib:SafeString.obj
 0002:00004248       ??_C@_0BO@ECNIOIHG@?$CIDestination?5?$CB?$DN?5?$CI?$CIvoid?5?$CK?$CJ?50?$CJ?$CJ@ 00000000000c4248     BaseLib:SafeString.obj
 0002:00004268       ??_C@_07KBGDFDAM@StrCpyS@  00000000000c4268     BaseLib:SafeString.obj
 0002:00004270       ??_C@_0EA@PDPDJJNN@?$CFa?$CI?$CFd?$CJ?5?$CFa?3?5SAFE_STRING_CONSTRAI@ 00000000000c4270     BaseLib:SafeString.obj
 0002:000042b0       ??_C@_0BJ@EAEEJIP@?$CISource?5?$CB?$DN?5?$CI?$CIvoid?5?$CK?$CJ?50?$CJ?$CJ@ 00000000000c42b0     BaseLib:SafeString.obj
 0002:000042d0       ??_C@_0EA@BBALOHPI@?$CIDestMax?5?$DM?$DN?5?$CI_gPcd_FixedAtBuild@ 00000000000c42d0     BaseLib:SafeString.obj
 0002:00004310       ??_C@_0P@PMIMLIHM@?$CIDestMax?5?$CB?$DN?50?$CJ@ 00000000000c4310     BaseLib:SafeString.obj
 0002:00004320       ??_C@_0BG@EEGIIOKH@?$CIDestMax?5?$DO?5SourceLen?$CJ@ 00000000000c4320     BaseLib:SafeString.obj
 0002:00004340       ??_C@_0FH@PPBLBDBJ@InternalSafeStringNoStrOverlap?5@ 00000000000c4340     BaseLib:SafeString.obj
 0002:00004398       ??_C@_08INOAHJON@StrnCpyS@ 00000000000c4398     BaseLib:SafeString.obj
 0002:000043a8       ??_C@_0DP@PBOJGJC@?$CILength?5?$DM?$DN?5?$CI_gPcd_FixedAtBuild_@ 00000000000c43a8     BaseLib:SafeString.obj
 0002:000043e8       ??_C@_07EBBOPAKF@StrCatS@  00000000000c43e8     BaseLib:SafeString.obj
 0002:000043f0       ??_C@_0P@BHOOOJPD@?$CICopyLen?5?$CB?$DN?50?$CJ@ 00000000000c43f0     BaseLib:SafeString.obj
 0002:00004400       ??_C@_0BG@BPGICNPK@?$CICopyLen?5?$DO?5SourceLen?$CJ@ 00000000000c4400     BaseLib:SafeString.obj
 0002:00004418       ??_C@_08GNJNNKEE@StrnCatS@ 00000000000c4418     BaseLib:SafeString.obj
 0002:00004428       ??_C@_0BJ@MBBOBCLN@?$CIString?5?$CB?$DN?5?$CI?$CIvoid?5?$CK?$CJ?50?$CJ?$CJ@ 00000000000c4428     BaseLib:SafeString.obj
 0002:00004448       ??_C@_0BD@NNBAKNOF@StrDecimalToUintnS@ 00000000000c4448     BaseLib:SafeString.obj
 0002:00004460       ??_C@_0BH@JPMEDPAI@?$CIData?5?$CB?$DN?5?$CI?$CIvoid?5?$CK?$CJ?50?$CJ?$CJ@ 00000000000c4460     BaseLib:SafeString.obj
 0002:00004480       ??_C@_0IC@CFBPEAPC@?$CIStrnLenS?5?$CIString?0?5?$CI_gPcd_Fixed@ 00000000000c4480     BaseLib:SafeString.obj
 0002:00004508       ??_C@_0BE@CAKPCCF@StrDecimalToUint64S@ 00000000000c4508     BaseLib:SafeString.obj
 0002:00004520       ??_C@_0P@FDCJFGP@StrHexToUintnS@ 00000000000c4520     BaseLib:SafeString.obj
 0002:00004530       ??_C@_0BA@PLPLKCD@StrHexToUint64S@ 00000000000c4530     BaseLib:SafeString.obj
 0002:00004540       ??_C@_0BB@LMEEEKHP@StrToIpv6Address@ 00000000000c4540     BaseLib:SafeString.obj
 0002:00004558       ??_C@_0BK@PFCDEPEA@?$CIAddress?5?$CB?$DN?5?$CI?$CIvoid?5?$CK?$CJ?50?$CJ?$CJ@ 00000000000c4558     BaseLib:SafeString.obj
 0002:00004580       ??_C@_0EK@OFPBBCEA@AddressIndex?5?$CL?51?5?$DM?5?$CIsizeof?5?$CIAdd@ 00000000000c4580     BaseLib:SafeString.obj
 0002:000045d0       ??_C@_0BB@JCLCGCPJ@StrToIpv4Address@ 00000000000c45d0     BaseLib:SafeString.obj
 0002:000045e8       ??_C@_09NDPBFECG@StrToGuid@ 00000000000c45e8     BaseLib:SafeString.obj
 0002:000045f8       ??_C@_0BH@JHLMKECN@?$CIGuid?5?$CB?$DN?5?$CI?$CIvoid?5?$CK?$CJ?50?$CJ?$CJ@ 00000000000c45f8     BaseLib:SafeString.obj
 0002:00004610       ??_C@_0O@GDLPMLII@StrHexToBytes@ 00000000000c4610     BaseLib:SafeString.obj
 0002:00004620       ??_C@_0BN@ECMFIFKJ@?$CI?$CILength?5?$CG?50x00000001?$CJ?5?$DN?$DN?50?$CJ@ 00000000000c4620     BaseLib:SafeString.obj
 0002:00004640       ??_C@_0BO@HHMNFJIK@?$CIMaxBufferSize?5?$DO?$DN?5Length?5?1?52?$CJ@ 00000000000c4640     BaseLib:SafeString.obj
 0002:00004660       ??_C@_0DO@LJFOOPII@?$CIDestMax?5?$DM?$DN?5?$CI_gPcd_FixedAtBuild@ 00000000000c4660     BaseLib:SafeString.obj
 0002:000046a0       ??_C@_0FL@CDANCHFO@InternalSafeStringNoAsciiStrOve@ 00000000000c46a0     BaseLib:SafeString.obj
 0002:00004700       ??_C@_0O@DIHNCLLG@AsciiStrnCpyS@ 00000000000c4700     BaseLib:SafeString.obj
 0002:00004710       ??_C@_0DN@DLAADCJE@?$CILength?5?$DM?$DN?5?$CI_gPcd_FixedAtBuild_@ 00000000000c4710     BaseLib:SafeString.obj
 0002:00004750       ??_C@_0BG@ECBHNCII@UnicodeStrToAsciiStrS@ 00000000000c4750     BaseLib:SafeString.obj
 0002:00004770       ??_C@_0GH@OGMKEJDK@?$CBInternalSafeStringIsOverlap?5?$CID@ 00000000000c4770     BaseLib:SafeString.obj
 0002:000047d8       ??_C@_0BA@MFHLDCJH@?$CKSource?5?$DM?50x100@ 00000000000c47d8     BaseLib:SafeString.obj
 0002:000047e8       ??_C@_0BG@MFINJFHO@AsciiStrToUnicodeStrS@ 00000000000c47e8     BaseLib:SafeString.obj
 0002:00004800       ??_C@_0GF@GCLJAOAI@?$CBInternalSafeStringIsOverlap?5?$CID@ 00000000000c4800     BaseLib:SafeString.obj
 0002:00004868       ??_C@_0DG@ODLLMBNP@f?3?2uefiworkspace?2edk2?2MdePkg?2Li@ 00000000000c4868     BaseLib:String.obj
 0002:000048a0       ??_C@_0DK@EOJCOAME@Length?5?$DM?5_gPcd_FixedAtBuild_Pcd@ 00000000000c48a0     BaseLib:String.obj
 0002:000048e0       ??_C@_0BL@JAAMOCAJ@StrSize?5?$CIFirstString?$CJ?5?$CB?$DN?50@ 00000000000c48e0     BaseLib:String.obj
 0002:00004900       ??_C@_0BM@DALBOILC@StrSize?5?$CISecondString?$CJ?5?$CB?$DN?50@ 00000000000c4900     BaseLib:String.obj
 0002:00004920       ??_C@_0DL@LFIMEMJP@Length?5?$DM?$DN?5_gPcd_FixedAtBuild_Pc@ 00000000000c4920     BaseLib:String.obj
 0002:00004960       ??_C@_0BG@KBNOLIGE@StrSize?5?$CIString?$CJ?5?$CB?$DN?50@ 00000000000c4960     BaseLib:String.obj
 0002:00004978       ??_C@_0BM@NNBLOHJD@StrSize?5?$CISearchString?$CJ?5?$CB?$DN?50@ 00000000000c4978     BaseLib:String.obj
 0002:00004998       ??_C@_0DI@MDIKFADO@Length?5?$DM?5_gPcd_FixedAtBuild_Pcd@ 00000000000c4998     BaseLib:String.obj
 0002:000049d0       ??_C@_0BL@IKFBNFIL@AsciiStrSize?5?$CIFirstString?$CJ@ 00000000000c49d0     BaseLib:String.obj
 0002:000049f0       ??_C@_0BM@EDNOKLLE@AsciiStrSize?5?$CISecondString?$CJ@ 00000000000c49f0     BaseLib:String.obj
 0002:00004a10       ??_C@_0DJ@JJHGIFMP@Length?5?$DM?$DN?5_gPcd_FixedAtBuild_Pc@ 00000000000c4a10     BaseLib:String.obj
 0002:00004a50       ??_C@_0BM@NLNKOJGD@Destination?5?$CB?$DN?5?$CI?$CIvoid?5?$CK?$CJ?50?$CJ@ 00000000000c4a50     BaseLib:String.obj
 0002:00004a70       ??_C@_0DK@OGPFJBAL@f?3?2uefiworkspace?2edk2?2MdePkg?2Li@ 00000000000c4a70     BaseLib:LinkedList.obj
 0002:00004ab0       ??_C@_0CC@KDLPLAED@List?9?$DOForwardLink?5?$CB?$DN?5?$CI?$CIvoid?5?$CK?$CJ?5@ 00000000000c4ab0     BaseLib:LinkedList.obj
 0002:00004ad8       ??_C@_0BP@IJJCCMAK@List?9?$DOBackLink?5?$CB?$DN?5?$CI?$CIvoid?5?$CK?$CJ?50?$CJ@ 00000000000c4ad8     BaseLib:LinkedList.obj
 0002:00004af8       ??_C@_0CI@BMHOPIIO@InternalBaseLibIsListValid?5?$CIFir@ 00000000000c4af8     BaseLib:LinkedList.obj
 0002:00004b20       ??_C@_0BM@BAIHHOEP@SecondEntry?5?$CB?$DN?5?$CI?$CIvoid?5?$CK?$CJ?50?$CJ@ 00000000000c4b20     BaseLib:LinkedList.obj
 0002:00004b40       ??_C@_0BJ@NJABNCDK@ListHead?5?$CB?$DN?5?$CI?$CIvoid?5?$CK?$CJ?50?$CJ@ 00000000000c4b40     BaseLib:LinkedList.obj
 0002:00004b60       ??_C@_0DI@HOMAKAJD@?$CI?$CIBOOLEAN?$CJ?$CI0?$DN?$DN1?$CJ?$CJ?5?$DN?$DN?5IsNodeInLi@ 00000000000c4b60     BaseLib:LinkedList.obj
 0002:00004b98       ??_C@_0CG@LGIALJFK@InternalBaseLibIsListValid?5?$CILis@ 00000000000c4b98     BaseLib:LinkedList.obj
 0002:00004bc0       ??_C@_0CC@JLDICICM@InternalBaseLibIsListValid?5?$CILis@ 00000000000c4bc0     BaseLib:LinkedList.obj
 0002:00004be8       ??_C@_0DD@OAAIDOJD@?$CI?$CIBOOLEAN?$CJ?$CI1?$DN?$DN1?$CJ?$CJ?5?$DN?$DN?5IsNodeInLi@ 00000000000c4be8     BaseLib:LinkedList.obj
 0002:00004c20       ??_C@_0EA@OIBCJFLG@?$CI?$CIBOOLEAN?$CJ?$CI1?$DN?$DN1?$CJ?$CJ?5?$DN?$DN?5IsNodeInLi@ 00000000000c4c20     BaseLib:LinkedList.obj
 0002:00004c60       ??_C@_0BF@NMBJJECB@?$CBIsListEmpty?5?$CIEntry?$CJ@ 00000000000c4c60     BaseLib:LinkedList.obj
 0002:00004c78       ??_C@_15LEKKCGMK@?$AA?2?$AA?2@ 00000000000c4c78     BaseLib:FilePaths.obj
 0002:00004c80       ??_C@_17CECJBCED@?$AA?2?$AA?4?$AA?2@ 00000000000c4c80     BaseLib:FilePaths.obj
 0002:00004c88       ??_C@_15HFJMEONN@?$AA?2?$AA?4@ 00000000000c4c88     BaseLib:FilePaths.obj
 0002:00004c90       ??_C@_17OFBPHKFE@?$AA?2?$AA?4?$AA?4@ 00000000000c4c90     BaseLib:FilePaths.obj
 0002:00004c98       ??_C@_0DJ@GPHHHNOB@f?3?2uefiworkspace?2edk2?2MdePkg?2Li@ 00000000000c4c98     BaseLib:Unaligned.obj
 0002:00004cd8       ??_C@_0N@KGHEHMDL@Divisor?5?$CB?$DN?50@ 00000000000c4cd8     BaseLib:DivU64x32Remainder.obj
 0002:00004cf0       ??_C@_0EC@JNPELHIH@f?3?2uefiworkspace?2edk2?2MdePkg?2Li@ 00000000000c4cf0     BaseLib:DivU64x32Remainder.obj
 0002:00004d38       ??_C@_0L@MEMPDLHB@Count?5?$DM?564@ 00000000000c4d38     BaseLib:LShiftU64.obj
 0002:00004d48       ??_C@_0DJ@POKPBLDK@f?3?2uefiworkspace?2edk2?2MdePkg?2Li@ 00000000000c4d48     BaseLib:LShiftU64.obj
 0002:00004d88       ??_C@_0DJ@IEJALMDK@f?3?2uefiworkspace?2edk2?2MdePkg?2Li@ 00000000000c4d88     BaseLib:DivU64x32.obj
 0002:00004dc8       ??_C@_0DJ@BLIGCFNI@f?3?2uefiworkspace?2edk2?2MdePkg?2Li@ 00000000000c4dc8     BaseLib:RShiftU64.obj
 0002:00004e08       ??_C@_0BN@COECPDCC@gImageHandle?5?$CB?$DN?5?$CI?$CIvoid?5?$CK?$CJ?50?$CJ@ 00000000000c4e08     UefiBootServicesTableLib:UefiBootServicesTableLib.obj
 0002:00004e30       ??_C@_0FJ@LLOKMAMB@f?3?2uefiworkspace?2edk2?2MdePkg?2Li@ 00000000000c4e30     UefiBootServicesTableLib:UefiBootServicesTableLib.obj
 0002:00004e90       ??_C@_0BE@DGNHAHIL@gST?5?$CB?$DN?5?$CI?$CIvoid?5?$CK?$CJ?50?$CJ@ 00000000000c4e90     UefiBootServicesTableLib:UefiBootServicesTableLib.obj
 0002:00004ea8       ??_C@_0BE@BDFJLGLN@gBS?5?$CB?$DN?5?$CI?$CIvoid?5?$CK?$CJ?50?$CJ@ 00000000000c4ea8     UefiBootServicesTableLib:UefiBootServicesTableLib.obj
 0002:00004ec0       ??_C@_0BE@OBDFIHND@gRT?5?$CB?$DN?5?$CI?$CIvoid?5?$CK?$CJ?50?$CJ@ 00000000000c4ec0     UefiRuntimeServicesTableLib:UefiRuntimeServicesTableLib.obj
 0002:00004ee0       ??_C@_0FP@KMDGPEO@f?3?2uefiworkspace?2edk2?2MdePkg?2Li@ 00000000000c4ee0     UefiRuntimeServicesTableLib:UefiRuntimeServicesTableLib.obj
 0002:00004f40       ??_C@_0BK@PPOBBAMB@TableGuid?5?$CB?$DN?5?$CI?$CIvoid?5?$CK?$CJ?50?$CJ@ 00000000000c4f40     UefiLib:UefiLib.obj
 0002:00004f60       ??_C@_0DH@CPNBINNB@f?3?2uefiworkspace?2edk2?2MdePkg?2Li@ 00000000000c4f60     UefiLib:UefiLib.obj
 0002:00004f98       ??_C@_0BG@JDKEGFNB@Table?5?$CB?$DN?5?$CI?$CIvoid?5?$CK?$CJ?50?$CJ@ 00000000000c4f98     UefiLib:UefiLib.obj
 0002:00004fb0       ??_C@_0BF@OGAHIMFI@Name?5?$CB?$DN?5?$CI?$CIvoid?5?$CK?$CJ?50?$CJ@ 00000000000c4fb0     UefiLib:UefiLib.obj
 0002:00004fd0       ??_C@_0EG@GOBFPEEP@Name?5?$CB?$DN?5?$CI?$CIvoid?5?$CK?$CJ?50?$CJ?5?$CG?$CG?5Guid?5?$CB?$DN@ 00000000000c4fd0     UefiLib:UefiLib.obj
 0002:00005018       ??_C@_0BH@FMEOEIBC@?$CKValue?5?$CB?$DN?5?$CI?$CIvoid?5?$CK?$CJ?50?$CJ@ 00000000000c5018     UefiLib:UefiLib.obj
 0002:00005030       ??_C@_0CD@OLFKAJF@SupportedLanguages?5?$CB?$DN?5?$CI?$CIvoid?5?$CK?$CJ@ 00000000000c5030     UefiLib:UefiLib.obj
 0002:00005058       ??_C@_0CG@CADOKAGM@?$CI?$CI?$CIINTN?$CJ?$CIRETURN_STATUS?$CJ?$CIStatus?$CJ@ 00000000000c5058     UefiLib:UefiLib.obj
 0002:00005080       ??_C@_0FD@LJGJNJML@f?3?2uefiworkspace?2edk2?2MdeModule@ 00000000000c5080     UefiHiiServicesLib:UefiHiiServicesLib.obj
 0002:000050d8       ??_C@_0DI@FAIEECKB@f?3?2uefiworkspace?2edk2?2MdePkg?2Li@ 00000000000c50d8     DxeHobLib:HobLib.obj
 0002:00005110       ??_C@_0BJ@OBFMLLDO@mHobList?5?$CB?$DN?5?$CI?$CIvoid?5?$CK?$CJ?50?$CJ@ 00000000000c5110     DxeHobLib:HobLib.obj
 0002:00005130       ??_C@_0BN@FHPHCJAL@BufferToSort?5?$CB?$DN?5?$CI?$CIvoid?5?$CK?$CJ?50?$CJ@ 00000000000c5130     UefiSortLib:UefiSortLib.obj
 0002:00005150       ??_C@_0EF@DPIDKPBL@f?3?2uefiworkspace?2edk2?2MdeModule@ 00000000000c5150     UefiSortLib:UefiSortLib.obj
 0002:00005198       ??_C@_0CA@DJEMEKLN@CompareFunction?5?$CB?$DN?5?$CI?$CIvoid?5?$CK?$CJ?50?$CJ@ 00000000000c5198     UefiSortLib:UefiSortLib.obj
 0002:000051b8       ??_C@_0BF@PEDOPNMP@Guid?5?$CB?$DN?5?$CI?$CIvoid?5?$CK?$CJ?50?$CJ@ 00000000000c51b8     UefiHiiLib:HiiLib.obj
 0002:000051d0       ??_C@_0DP@JFOILPIM@f?3?2uefiworkspace?2edk2?2MdeModule@ 00000000000c51d0     UefiHiiLib:HiiLib.obj
 0002:00005210       ??_C@_0BH@OOIJJHNK@Handle?5?$CB?$DN?5?$CI?$CIvoid?5?$CK?$CJ?50?$CJ@ 00000000000c5210     UefiHiiLib:HiiLib.obj
 0002:00005228       ??_C@_0CA@OEKIMLLB@PackageListGuid?5?$CB?$DN?5?$CI?$CIvoid?5?$CK?$CJ?50?$CJ@ 00000000000c5228     UefiHiiLib:HiiLib.obj
 0002:00005248       ??_C@_0BK@KLJHMMPJ@HiiHandle?5?$CB?$DN?5?$CI?$CIvoid?5?$CK?$CJ?50?$CJ@ 00000000000c5248     UefiHiiLib:HiiLib.obj
 0002:00005268       ??_C@_19LJDFFCJJ@?$AA?$CF?$AAs?$AA?$CF?$AAs@ 00000000000c5268     UefiHiiLib:HiiLib.obj
 0002:00005274       mEndOfPakageList           00000000000c5274     UefiHiiLib:HiiLib.obj
 0002:00005280       ??_C@_0EC@OGIFGNIJ@f?3?2uefiworkspace?2edk2?2MdeModule@ 00000000000c5280     UefiHiiLib:HiiString.obj
 0002:000052c4       ??_C@_06PLDEFKP@x?9UEFI@   00000000000c52c4     UefiHiiLib:HiiString.obj
 0002:000052d0       ??_C@_0O@EMMLPDMJ@StringId?5?$CB?$DN?50@ 00000000000c52d0     UefiHiiLib:HiiString.obj
 0002:000052e0       ??_C@_0DA@MAJHLAPK@?$CB?$CI?$CBTryBestLanguage?5?$CG?$CG?5Language?5@ 00000000000c52e0     UefiHiiLib:HiiString.obj
 0002:00005310       ??_C@_1BK@GGGENMOA@?$AAP?$AAl?$AAa?$AAt?$AAf?$AAo?$AAr?$AAm?$AAL?$AAa?$AAn?$AAg@ 00000000000c5310     UefiHiiLib:HiiString.obj
 0002:0000532a       ??_C@_00CNPNBAHC@@         00000000000c532a     UefiHiiLib:HiiString.obj
 0002:00005330       ??_C@_0EE@MFLOBMNH@f?3?2uefiworkspace?2edk2?2MdeModule@ 00000000000c5330     UefiHiiLib:HiiLanguage.obj
 0002:00005374       gUnicodeFileTag            00000000000c5374     UefiFileHandleLib:UefiFileHandleLib.obj
 0002:00005378       ??_C@_0DJ@IBOAFPFC@Status?5?$CB?$DN?5?$CI?$CIRETURN_STATUS?$CJ?$CI0x80@ 00000000000c5378     UefiFileHandleLib:UefiFileHandleLib.obj
 0002:000053c0       ??_C@_0EL@GHFOIDNF@f?3?2uefiworkspace?2edk2?2MdePkg?2Li@ 00000000000c53c0     UefiFileHandleLib:UefiFileHandleLib.obj
 0002:00005410       ??_C@_0BB@PMNGACIB@CurrentSize?5?$CB?$DN?50@ 00000000000c5410     UefiFileHandleLib:UefiFileHandleLib.obj
 0002:00005428       ??_C@_0CF@PEEFMLCB@DestinationStartSize?5?$DM?$DN?5?$CKCurren@ 00000000000c5428     UefiFileHandleLib:UefiFileHandleLib.obj
 0002:00005450       ??_C@_0FA@DCHCMINO@?$CI?$CKFullFileName?5?$DN?$DN?5?$CI?$CIvoid?5?$CK?$CJ?50?$CJ?5@ 00000000000c5450     UefiFileHandleLib:UefiFileHandleLib.obj
 0002:000054a0       ??_C@_0EP@MEOPCBEF@f?3?2uefiworkspace?2edk2?2MdePkg?2Li@ 00000000000c54a0     DxeServicesTableLib:DxeServicesTableLib.obj
 0002:000054f0       ??_C@_0BE@IOIFLNKO@gDS?5?$CB?$DN?5?$CI?$CIvoid?5?$CK?$CJ?50?$CJ@ 00000000000c54f0     DxeServicesTableLib:DxeServicesTableLib.obj
 0002:00005508       ??_C@_19DJOBICII@?$AA?9?$AAs?$AAf?$AAo@ 00000000000c5508     UefiShellLib:UefiShellLib.obj
 0002:00005518       ??_C@_0BF@EAIGPLDI@Path?5?$CB?$DN?5?$CI?$CIvoid?5?$CK?$CJ?50?$CJ@ 00000000000c5518     UefiShellLib:UefiShellLib.obj
 0002:00005530       ??_C@_0ED@MFKPAGME@f?3?2uefiworkspace?2edk2?2ShellPkg?2@ 00000000000c5530     UefiShellLib:UefiShellLib.obj
 0002:00005578       ??_C@_0BB@FIMNCDND@Status?3?50x?$CF08x?$AN?6@ 00000000000c5578     UefiShellLib:UefiShellLib.obj
 0002:00005590       ??_C@_0BJ@BLIKFMIM@FileName?5?$CB?$DN?5?$CI?$CIvoid?5?$CK?$CJ?50?$CJ@ 00000000000c5590     UefiShellLib:UefiShellLib.obj
 0002:000055b0       ??_C@_0BJ@LGIAPEFG@FileInfo?5?$CB?$DN?5?$CI?$CIvoid?5?$CK?$CJ?50?$CJ@ 00000000000c55b0     UefiShellLib:UefiShellLib.obj
 0002:000055d0       ??_C@_0CG@HOBDBICG@mEfiShellEnvironment2?5?$CB?$DN?5?$CI?$CIvoid@ 00000000000c55d0     UefiShellLib:UefiShellLib.obj
 0002:000055f8       ??_C@_0BJ@CEFLEMCG@FileList?5?$CB?$DN?5?$CI?$CIvoid?5?$CK?$CJ?50?$CJ@ 00000000000c55f8     UefiShellLib:UefiShellLib.obj
 0002:00005618       ??_C@_0BI@HFLLAPEM@OldInfo?5?$CB?$DN?5?$CI?$CIvoid?5?$CK?$CJ?50?$CJ@ 00000000000c5618     UefiShellLib:UefiShellLib.obj
 0002:00005630       ??_C@_0BO@JMFHFMII@OldInfo?9?$DOInfo?5?$CB?$DN?5?$CI?$CIvoid?5?$CK?$CJ?50?$CJ@ 00000000000c5630     UefiShellLib:UefiShellLib.obj
 0002:00005650       ??_C@_0CC@BMDNOILF@OldInfo?9?$DOFullName?5?$CB?$DN?5?$CI?$CIvoid?5?$CK?$CJ?5@ 00000000000c5650     UefiShellLib:UefiShellLib.obj
 0002:00005678       ??_C@_0CC@HGDGHHKJ@OldInfo?9?$DOFileName?5?$CB?$DN?5?$CI?$CIvoid?5?$CK?$CJ?5@ 00000000000c5678     UefiShellLib:UefiShellLib.obj
 0002:000056a0       ??_C@_0BE@MAANAFFD@Arg?5?$CB?$DN?5?$CI?$CIvoid?5?$CK?$CJ?50?$CJ@ 00000000000c56a0     UefiShellLib:UefiShellLib.obj
 0002:000056b8       ??_C@_0BH@GKHOOAJI@RetVal?5?$DN?$DN?5?$CI?$CIvoid?5?$CK?$CJ?50?$CJ@ 00000000000c56b8     UefiShellLib:UefiShellLib.obj
 0002:000056d0       ??_C@_19JIFMCCAP@?$AAp?$AAa?$AAt?$AAh@ 00000000000c56d0     UefiShellLib:UefiShellLib.obj
 0002:000056e0       ??_C@_0CA@PJEKBINO@ExtensionWalker?5?$CB?$DN?5?$CI?$CIvoid?5?$CK?$CJ?50?$CJ@ 00000000000c56e0     UefiShellLib:UefiShellLib.obj
 0002:00005700       ??_C@_0BK@KFLCMCGE@CheckList?5?$CB?$DN?5?$CI?$CIvoid?5?$CK?$CJ?50?$CJ@ 00000000000c5700     UefiShellLib:UefiShellLib.obj
 0002:00005720       ??_C@_0BF@DFKBEABN@Type?5?$CB?$DN?5?$CI?$CIvoid?5?$CK?$CJ?50?$CJ@ 00000000000c5720     UefiShellLib:UefiShellLib.obj
 0002:00005738       ??_C@_15GECAHHDM@?$AA?9?$AAb@ 00000000000c5738     UefiShellLib:UefiShellLib.obj
 0002:00005740       ??_C@_0BC@DHCAIFAM@GetItemValue?5?$DN?$DN?50@ 00000000000c5740     UefiShellLib:UefiShellLib.obj
 0002:00005758       ??_C@_0BN@EKAHENGP@CheckPackage?5?$CB?$DN?5?$CI?$CIvoid?5?$CK?$CJ?50?$CJ@ 00000000000c5758     UefiShellLib:UefiShellLib.obj
 0002:00005778       ??_C@_0CD@OLNJGJNE@mEfiShellInterface?5?$CB?$DN?5?$CI?$CIvoid?5?$CK?$CJ@ 00000000000c5778     UefiShellLib:UefiShellLib.obj
 0002:000057a0       ??_C@_19GBMGDAIM@?$AA?$CC?$AA?$CF?$AAs?$AA?$CC@ 00000000000c57a0     UefiShellLib:UefiShellLib.obj
 0002:000057b0       ??_C@_17HOBPHCP@?$AA?$CF?$AA?$CF?$AAN@ 00000000000c57b0     UefiShellLib:UefiShellLib.obj
 0002:000057b8       ??_C@_15GCJHOFNH@?$AA?$CF?$AAN@ 00000000000c57b8     UefiShellLib:UefiShellLib.obj
 0002:000057c0       ??_C@_17NAOAHACO@?$AA?$CF?$AA?$CF?$AAE@ 00000000000c57c0     UefiShellLib:UefiShellLib.obj
 0002:000057c8       ??_C@_15LFJGGCNG@?$AA?$CF?$AAE@ 00000000000c57c8     UefiShellLib:UefiShellLib.obj
 0002:000057d0       ??_C@_17CCIKKIPD@?$AA?$CF?$AA?$CF?$AAH@ 00000000000c57d0     UefiShellLib:UefiShellLib.obj
 0002:000057d8       ??_C@_15EHPMLKAL@?$AA?$CF?$AAH@ 00000000000c57d8     UefiShellLib:UefiShellLib.obj
 0002:000057e0       ??_C@_17ENDHEIJH@?$AA?$CF?$AA?$CF?$AAB@ 00000000000c57e0     UefiShellLib:UefiShellLib.obj
 0002:000057e8       ??_C@_15CIEBFKGP@?$AA?$CF?$AAB@ 00000000000c57e8     UefiShellLib:UefiShellLib.obj
 0002:000057f0       ??_C@_17JCEMIIFP@?$AA?$CF?$AA?$CF?$AAV@ 00000000000c57f0     UefiShellLib:UefiShellLib.obj
 0002:000057f8       ??_C@_15PHDKJKKH@?$AA?$CF?$AAV@ 00000000000c57f8     UefiShellLib:UefiShellLib.obj
 0002:00005800       ??_C@_0BI@BCILGJIG@DirName?5?$CB?$DN?5?$CI?$CIvoid?5?$CK?$CJ?50?$CJ@ 00000000000c5800     UefiShellLib:UefiShellLib.obj
 0002:00005818       ??_C@_15DAMPJCDE@?$AA?$CF?$AAc@ 00000000000c5818     UefiShellLib:UefiShellLib.obj
 0002:00005820       ??_C@_0EC@NPOOM@?$CIBuffer?5?$DN?$DN?5?$CI?$CIvoid?5?$CK?$CJ?50?$CJ?5?$CG?$CG?5Size@ 00000000000c5820     UefiShellLib:UefiShellLib.obj
 0002:00005864       ??_C@_15OEMMNBIC@?$AA0?$AAx@ 00000000000c5864     UefiShellLib:UefiShellLib.obj
 0002:0000586c       ??_C@_15EEPOHOLM@?$AA0?$AAX@ 00000000000c586c     UefiShellLib:UefiShellLib.obj
 0002:00005878       ??_C@_0L@NOBFEIA@?$CKSize?5?$DN?$DN?50@ 00000000000c5878     UefiShellLib:UefiShellLib.obj
 0002:00005888       ??_C@_0DC@PFNNBEEF@The?5line?5was?5truncated?5in?5Shell@ 00000000000c5888     UefiShellLib:UefiShellLib.obj
 0002:000058c0       ??_C@_1CA@MKFFJJHF@?$AA?$CF?$AAH?$AA?$CF?$AA?9?$AA1?$AA4?$AAs?$AA?$CF?$AAN?$AA?9?$AA?5?$AA?$CF?$AAs?$AA?$AN?$AA?6@ 00000000000c58c0     UefiShellLib:UefiShellLib.obj
 0002:000058e0       ??_C@_1O@OGFJFJDO@?$AA?$CF?$AAN?$AA?$CF?$AAs?$AA?$AN?$AA?6@ 00000000000c58e0     UefiShellLib:UefiShellLib.obj
 0002:000058f0       ??_C@_1CM@FFPOKMDE@?$AAE?$AAf?$AAi?$AAR?$AAe?$AAs?$AAe?$AAr?$AAv?$AAe?$AAd?$AAM?$AAe?$AAm?$AAo@ 00000000000c58f0     UefiHandleParsingLib:UefiHandleParsingLib.obj
 0002:00005920       ??_C@_1BM@FAGLICOG@?$AAE?$AAf?$AAi?$AAL?$AAo?$AAa?$AAd?$AAe?$AAr?$AAC?$AAo?$AAd?$AAe@ 00000000000c5920     UefiHandleParsingLib:UefiHandleParsingLib.obj
 0002:00005940       ??_C@_1BM@CLIJBOGB@?$AAE?$AAf?$AAi?$AAL?$AAo?$AAa?$AAd?$AAe?$AAr?$AAD?$AAa?$AAt?$AAa@ 00000000000c5940     UefiHandleParsingLib:UefiHandleParsingLib.obj
 0002:00005960       ??_C@_1CI@DPCOKMCE@?$AAE?$AAf?$AAi?$AAB?$AAo?$AAo?$AAt?$AAS?$AAe?$AAr?$AAv?$AAi?$AAc?$AAe?$AAs@ 00000000000c5960     UefiHandleParsingLib:UefiHandleParsingLib.obj
 0002:00005988       ??_C@_1CI@EEMMDAKD@?$AAE?$AAf?$AAi?$AAB?$AAo?$AAo?$AAt?$AAS?$AAe?$AAr?$AAv?$AAi?$AAc?$AAe?$AAs@ 00000000000c5988     UefiHandleParsingLib:UefiHandleParsingLib.obj
 0002:000059b0       ??_C@_1CO@GDFCIHHC@?$AAE?$AAf?$AAi?$AAR?$AAu?$AAn?$AAt?$AAi?$AAm?$AAe?$AAS?$AAe?$AAr?$AAv?$AAi@ 00000000000c59b0     UefiHandleParsingLib:UefiHandleParsingLib.obj
 0002:000059e0       ??_C@_1CO@BILABLPF@?$AAE?$AAf?$AAi?$AAR?$AAu?$AAn?$AAt?$AAi?$AAm?$AAe?$AAS?$AAe?$AAr?$AAv?$AAi@ 00000000000c59e0     UefiHandleParsingLib:UefiHandleParsingLib.obj
 0002:00005a10       ??_C@_1CM@NMFKEKLB@?$AAE?$AAf?$AAi?$AAC?$AAo?$AAn?$AAv?$AAe?$AAn?$AAt?$AAi?$AAo?$AAn?$AAa?$AAl@ 00000000000c5a10     UefiHandleParsingLib:UefiHandleParsingLib.obj
 0002:00005a40       ??_C@_1CE@EGDMDJFH@?$AAE?$AAf?$AAi?$AAU?$AAn?$AAu?$AAs?$AAa?$AAb?$AAl?$AAe?$AAM?$AAe?$AAm?$AAo@ 00000000000c5a40     UefiHandleParsingLib:UefiHandleParsingLib.obj
 0002:00005a68       ??_C@_1CK@IPMNKCMJ@?$AAE?$AAf?$AAi?$AAA?$AAC?$AAP?$AAI?$AAR?$AAe?$AAc?$AAl?$AAa?$AAi?$AAm?$AAM@ 00000000000c5a68     UefiHandleParsingLib:UefiHandleParsingLib.obj
 0002:00005a98       ??_C@_1CC@JFBAOHPO@?$AAE?$AAf?$AAi?$AAA?$AAC?$AAP?$AAI?$AAM?$AAe?$AAm?$AAo?$AAr?$AAy?$AAN?$AAV@ 00000000000c5a98     UefiHandleParsingLib:UefiHandleParsingLib.obj
 0002:00005ac0       ??_C@_1CE@GDAFGIDL@?$AAE?$AAf?$AAi?$AAM?$AAe?$AAm?$AAo?$AAr?$AAy?$AAM?$AAa?$AAp?$AAp?$AAe?$AAd@ 00000000000c5ac0     UefiHandleParsingLib:UefiHandleParsingLib.obj
 0002:00005ae8       ??_C@_1DG@HOCHGHPB@?$AAE?$AAf?$AAi?$AAM?$AAe?$AAm?$AAo?$AAr?$AAy?$AAM?$AAa?$AAp?$AAp?$AAe?$AAd@ 00000000000c5ae8     UefiHandleParsingLib:UefiHandleParsingLib.obj
 0002:00005b20       ??_C@_1BG@HFPGOEBG@?$AAE?$AAf?$AAi?$AAP?$AAa?$AAl?$AAC?$AAo?$AAd?$AAe@ 00000000000c5b20     UefiHandleParsingLib:UefiHandleParsingLib.obj
 0002:00005b38       ??_C@_1CC@PCJPCHMF@?$AAE?$AAf?$AAi?$AAM?$AAa?$AAx?$AAM?$AAe?$AAm?$AAo?$AAr?$AAy?$AAT?$AAy?$AAp@ 00000000000c5b38     UefiHandleParsingLib:UefiHandleParsingLib.obj
 0002:00005b60       ??_C@_0FD@JNKONMOB@f?3?2uefiworkspace?2edk2?2ShellPkg?2@ 00000000000c5b60     UefiHandleParsingLib:UefiHandleParsingLib.obj
 0002:00005bc0       ??_C@_1EM@PFGNLEFJ@?$AAP?$AAi?$AAx?$AAe?$AAl?$AAR?$AAe?$AAd?$AAG?$AAr?$AAe?$AAe?$AAn?$AAB?$AAl@ 00000000000c5bc0     UefiHandleParsingLib:UefiHandleParsingLib.obj
 0002:00005c10       ??_C@_1EM@LHEAPBOF@?$AAP?$AAi?$AAx?$AAe?$AAl?$AAB?$AAl?$AAu?$AAe?$AAG?$AAr?$AAe?$AAe?$AAn?$AAR@ 00000000000c5c10     UefiHandleParsingLib:UefiHandleParsingLib.obj
 0002:00005c60       ??_C@_1BK@KCONFGPO@?$AAP?$AAi?$AAx?$AAe?$AAl?$AAB?$AAi?$AAt?$AAM?$AAa?$AAs?$AAk@ 00000000000c5c60     UefiHandleParsingLib:UefiHandleParsingLib.obj
 0002:00005c80       ??_C@_1BK@PDALNFFI@?$AAP?$AAi?$AAx?$AAe?$AAl?$AAB?$AAl?$AAt?$AAO?$AAn?$AAl?$AAy@ 00000000000c5c80     UefiHandleParsingLib:UefiHandleParsingLib.obj
 0002:00005ca0       ??_C@_1BO@LDACBODH@?$AAP?$AAi?$AAx?$AAe?$AAl?$AAF?$AAo?$AAr?$AAm?$AAa?$AAt?$AAM?$AAa?$AAx@ 00000000000c5ca0     UefiHandleParsingLib:UefiHandleParsingLib.obj
 0002:00005cc0       ??_C@_0CI@CDMOAKJF@mHandleParsingHiiHandle?5?$CB?$DN?5?$CI?$CIvo@ 00000000000c5cc0     UefiHandleParsingLib:UefiHandleParsingLib.obj
 0002:00005ce8       ??_C@_1BO@IKNCGJNK@?$AAG?$AAr?$AAa?$AAp?$AAh?$AAi?$AAc?$AAs?$AAO?$AAu?$AAt?$AAp?$AAu?$AAt@ 00000000000c5ce8     UefiHandleParsingLib:UefiHandleParsingLib.obj
 0002:00005d08       ??_C@_1BO@COINAGCD@?$AAE?$AAD?$AAI?$AAD?$AAD?$AAi?$AAs?$AAc?$AAo?$AAv?$AAe?$AAr?$AAe?$AAd@ 00000000000c5d08     UefiHandleParsingLib:UefiHandleParsingLib.obj
 0002:00005d28       ??_C@_1BG@HHDKNMEH@?$AAE?$AAD?$AAI?$AAD?$AAA?$AAc?$AAt?$AAi?$AAv?$AAe@ 00000000000c5d28     UefiHandleParsingLib:UefiHandleParsingLib.obj
 0002:00005d40       ??_C@_1CA@DFHAODOI@?$AAP?$AAc?$AAi?$AAR?$AAo?$AAo?$AAt?$AAB?$AAr?$AAi?$AAd?$AAg?$AAe?$AAI?$AAo@ 00000000000c5d40     UefiHandleParsingLib:UefiHandleParsingLib.obj
 0002:00005d60       ??_C@_19FGKAJLAG@?$AA?$AN?$AA?6?$AA?$CF?$AAs@ 00000000000c5d60     UefiHandleParsingLib:UefiHandleParsingLib.obj
 0002:00005d70       ??_C@_1EG@OKJPEDO@?$AA?$CF?$AA?$CF?$AAH?$AA?$CF?$AA0?$AA2?$AAx?$AA?5?$AA?5?$AA?5?$AA?5?$AA?$CF?$AA0?$AA1?$AA6@ 00000000000c5d70     UefiHandleParsingLib:UefiHandleParsingLib.obj
 0002:00005db8       ??_C@_0DB@FBDJHOFE@Dev?5?$CB?$DN?5?$CI?$CIvoid?5?$CK?$CJ?50?$CJ?5?$CG?$CG?5Dev?9?$DOMod@ 00000000000c5db8     UefiHandleParsingLib:UefiHandleParsingLib.obj
 0002:00005df0       ??_C@_1O@MNMPKDNM@?$AA0?$AAx?$AA?$CF?$AA0?$AA8?$AAx@ 00000000000c5df0     UefiHandleParsingLib:UefiHandleParsingLib.obj
 0002:00005e00       ??_C@_15OJKDPEFE@?$AA?5?$AA?5@ 00000000000c5e00     UefiHandleParsingLib:UefiHandleParsingLib.obj
 0002:00005e08       ??_C@_1O@LIKMPGGN@?$AAc?$AAa?$AAc?$AAh?$AAe?$AAd@ 00000000000c5e08     UefiHandleParsingLib:UefiHandleParsingLib.obj
 0002:00005e18       ??_C@_1BA@DMPLCOBD@?$AA?$CB?$AAc?$AAa?$AAc?$AAh?$AAe?$AAd@ 00000000000c5e18     UefiHandleParsingLib:UefiHandleParsingLib.obj
 0002:00005e28       ??_C@_15GLJCBFMD@?$AAr?$AAo@ 00000000000c5e28     UefiHandleParsingLib:UefiHandleParsingLib.obj
 0002:00005e30       ??_C@_15PODPGKLD@?$AAr?$AAw@ 00000000000c5e30     UefiHandleParsingLib:UefiHandleParsingLib.obj
 0002:00005e38       ??_C@_1BE@DLNCBOIL@?$AAp?$AAa?$AAr?$AAt?$AAi?$AAt?$AAi?$AAo?$AAn@ 00000000000c5e38     UefiHandleParsingLib:UefiHandleParsingLib.obj
 0002:00005e50       ??_C@_17EBOIPCKB@?$AAr?$AAa?$AAw@ 00000000000c5e50     UefiHandleParsingLib:UefiHandleParsingLib.obj
 0002:00005e58       ??_C@_1BK@FJPEHKJB@?$AAn?$AAo?$AAt?$AA?9?$AAp?$AAr?$AAe?$AAs?$AAe?$AAn?$AAt?$AA?5@ 00000000000c5e58     UefiHandleParsingLib:UefiHandleParsingLib.obj
 0002:00005e78       ??_C@_1BG@LGHNKLOH@?$AAR?$AAe?$AAm?$AAo?$AAv?$AAa?$AAb?$AAl?$AAe?$AA?5@ 00000000000c5e78     UefiHandleParsingLib:UefiHandleParsingLib.obj
 0002:00005e90       ??_C@_1O@GMAGOFCH@?$AAF?$AAi?$AAx?$AAe?$AAd?$AA?5@ 00000000000c5e90     UefiHandleParsingLib:UefiHandleParsingLib.obj
 0002:00005ea0       ??_C@_1M@OCCHOKMB@?$AAI?$AAA?$AA?9?$AA3?$AA2@ 00000000000c5ea0     UefiHandleParsingLib:UefiHandleParsingLib.obj
 0002:00005eb0       ??_C@_17BOPOPGEG@?$AAI?$AAP?$AAF@ 00000000000c5eb0     UefiHandleParsingLib:UefiHandleParsingLib.obj
 0002:00005eb8       ??_C@_17DAJBLAKL@?$AAE?$AAB?$AAC@ 00000000000c5eb8     UefiHandleParsingLib:UefiHandleParsingLib.obj
 0002:00005ec0       ??_C@_1BM@NDIOGKH@?$AA?$AN?$AA?6?$AA?5?$AA?5?$AA?5?$AA?5?$AA?5?$AA?5?$AA?5?$AA?$CF?$AA0?$AA2?$AAx@ 00000000000c5ec0     UefiHandleParsingLib:UefiHandleParsingLib.obj
 0002:00005ee0       ??_C@_1BI@LHMCEDBK@?$AAA?$AAd?$AAa?$AAp?$AAt?$AAe?$AAr?$AAI?$AAn?$AAf?$AAo@ 00000000000c5ee0     UefiHandleParsingLib:UefiHandleParsingLib.obj
 0002:00005ef8       ??_C@_1DM@EKBICOFE@?$AAg?$AAE?$AAf?$AAi?$AAA?$AAd?$AAa?$AAp?$AAt?$AAe?$AAr?$AAI?$AAn?$AAf?$AAo@ 00000000000c5ef8     UefiHandleParsingLib:UefiHandleParsingLib.obj
 0002:00005f38       ??_C@_1DO@IEEOKFIB@?$AAg?$AAE?$AAf?$AAi?$AAA?$AAd?$AAa?$AAp?$AAt?$AAe?$AAr?$AAI?$AAn?$AAf?$AAo@ 00000000000c5f38     UefiHandleParsingLib:UefiHandleParsingLib.obj
 0002:00005f80       ??_C@_1EC@HNCAJDGK@?$AAg?$AAE?$AAf?$AAi?$AAA?$AAd?$AAa?$AAp?$AAt?$AAe?$AAr?$AAI?$AAn?$AAf?$AAo@ 00000000000c5f80     UefiHandleParsingLib:UefiHandleParsingLib.obj
 0002:00005fd0       ??_C@_1EG@HIHCKIMP@?$AAg?$AAE?$AAf?$AAi?$AAA?$AAd?$AAa?$AAp?$AAt?$AAe?$AAr?$AAI?$AAn?$AAf?$AAo@ 00000000000c5fd0     UefiHandleParsingLib:UefiHandleParsingLib.obj
 0002:00006018       ??_C@_1CA@MBEPGFBE@?$AAU?$AAn?$AAk?$AAn?$AAo?$AAw?$AAn?$AAI?$AAn?$AAf?$AAo?$AAT?$AAy?$AAp?$AAe@ 00000000000c6018     UefiHandleParsingLib:UefiHandleParsingLib.obj
 0002:00006038       ??_C@_1CG@JPDLKBMG@?$AAF?$AAi?$AAr?$AAm?$AAw?$AAa?$AAr?$AAe?$AAM?$AAa?$AAn?$AAa?$AAg?$AAe?$AAm@ 00000000000c6038     UefiHandleParsingLib:UefiHandleParsingLib.obj
 0002:00006060       ??_C@_13LLDNKHDC@?$AA?$CI@ 00000000000c6060     UefiHandleParsingLib:UefiHandleParsingLib.obj
 0002:00006070       ??_C@_1EC@DFECDMDI@?$AA?5?$AAI?$AAM?$AAA?$AAG?$AAE?$AA_?$AAA?$AAT?$AAT?$AAR?$AAI?$AAB?$AAU?$AAT@ 00000000000c6070     UefiHandleParsingLib:UefiHandleParsingLib.obj
 0002:000060c0       ??_C@_1EA@MKHJJKBH@?$AA?5?$AAI?$AAM?$AAA?$AAG?$AAE?$AA_?$AAA?$AAT?$AAT?$AAR?$AAI?$AAB?$AAU?$AAT@ 00000000000c60c0     UefiHandleParsingLib:UefiHandleParsingLib.obj
 0002:00006100       ??_C@_1FC@DDNKJMEO@?$AA?5?$AAI?$AAM?$AAA?$AAG?$AAE?$AA_?$AAA?$AAT?$AAT?$AAR?$AAI?$AAB?$AAU?$AAT@ 00000000000c6100     UefiHandleParsingLib:UefiHandleParsingLib.obj
 0002:00006158       ??_C@_1DA@IKPCBJLI@?$AA?5?$AAI?$AAM?$AAA?$AAG?$AAE?$AA_?$AAA?$AAT?$AAT?$AAR?$AAI?$AAB?$AAU?$AAT@ 00000000000c6158     UefiHandleParsingLib:UefiHandleParsingLib.obj
 0002:00006188       ??_C@_1DI@KCIAMJKA@?$AA?5?$AAI?$AAM?$AAA?$AAG?$AAE?$AA_?$AAA?$AAT?$AAT?$AAR?$AAI?$AAB?$AAU?$AAT@ 00000000000c6188     UefiHandleParsingLib:UefiHandleParsingLib.obj
 0002:000061c0       ??_C@_15JEKLLLNO@?$AA?5?$AA?$CJ@ 00000000000c61c0     UefiHandleParsingLib:UefiHandleParsingLib.obj
 0002:000061c8       ??_C@_1O@HOICMPAG@?$AA?$CF?$AAs?$AA?$AN?$AA?6?$AA?$CF?$AAs@ 00000000000c61c8     UefiHandleParsingLib:UefiHandleParsingLib.obj
 0002:000061d8       ??_C@_0M@GGBOIEOM@NameID?5?$CB?$DN?50@ 00000000000c61d8     UefiHandleParsingLib:UefiHandleParsingLib.obj
 0002:000061e8       ??_C@_0BK@GAPIBOAM@TheHandle?5?$CB?$DN?5?$CI?$CIvoid?5?$CK?$CJ?50?$CJ@ 00000000000c61e8     UefiHandleParsingLib:UefiHandleParsingLib.obj
 0002:00006208       ??_C@_19BALNHBBC@?$AAL?$AAa?$AAn?$AAg@ 00000000000c6208     UefiHandleParsingLib:UefiHandleParsingLib.obj
 0002:00006218       ??_C@_0BM@COIKDDAB@HandleCount?5?$CB?$DN?5?$CI?$CIvoid?5?$CK?$CJ?50?$CJ@ 00000000000c6218     UefiHandleParsingLib:UefiHandleParsingLib.obj
 0002:00006238       ??_C@_0BN@BOHIKNIF@HandleBuffer?5?$CB?$DN?5?$CI?$CIvoid?5?$CK?$CJ?50?$CJ@ 00000000000c6238     UefiHandleParsingLib:UefiHandleParsingLib.obj
 0002:00006258       ??_C@_0BL@FBKBNKMC@HandleType?5?$CB?$DN?5?$CI?$CIvoid?5?$CK?$CJ?50?$CJ@ 00000000000c6258     UefiHandleParsingLib:UefiHandleParsingLib.obj
 0002:00006280       ??_C@_0EI@PBLAOGFL@DriverBindingHandle?5?$CB?$DN?5?$CI?$CIvoid?5?$CK@ 00000000000c6280     UefiHandleParsingLib:UefiHandleParsingLib.obj
 0002:000062c8       ??_C@_0CE@NBHJFFJO@MatchingHandleCount?5?$CB?$DN?5?$CI?$CIvoid?5?$CK@ 00000000000c62c8     UefiHandleParsingLib:UefiHandleParsingLib.obj
 0002:000062f0       ??_C@_0LH@DLLMLJLM@?$CIMatchingHandleBuffer?5?$DN?$DN?5?$CI?$CIvoid@ 00000000000c62f0     UefiHandleParsingLib:UefiHandleParsingLib.obj
 0002:000063a8       ??_C@_0CC@JOEHDGKB@DestinationBuffer?5?$CB?$DN?5?$CI?$CIvoid?5?$CK?$CJ?5@ 00000000000c63a8     UefiHandleParsingLib:UefiHandleParsingLib.obj
 0002:000063d0       ??_C@_0CD@MHDCANPO@?$CKDestinationBuffer?5?$CB?$DN?5?$CI?$CIvoid?5?$CK?$CJ@ 00000000000c63d0     UefiHandleParsingLib:UefiHandleParsingLib.obj
 0002:000063f8       ??_C@_0DO@DJKKKJCP@HandleList?$FL?$CITotalSize?1sizeof?5?$CIE@ 00000000000c63f8     UefiHandleParsingLib:UefiHandleParsingLib.obj
 0002:00007f58       ??_C@_1BA@DNMMBOC@?$AAM?$AAi?$AAn?$AAi?$AAm?$AAa?$AAl@ 00000000000c7f58     UefiShellCommandLib:UefiShellCommandLib.obj
 0002:00007f68       ??_C@_1BE@HNPOGPLM@?$AAS?$AAc?$AAr?$AAi?$AAp?$AAt?$AAi?$AAn?$AAg@ 00000000000c7f68     UefiShellCommandLib:UefiShellCommandLib.obj
 0002:00007f80       ??_C@_1M@ECOAOPLN@?$AAB?$AAa?$AAs?$AAi?$AAc@ 00000000000c7f80     UefiShellCommandLib:UefiShellCommandLib.obj
 0002:00007f90       ??_C@_1BI@NFOKHDOD@?$AAI?$AAn?$AAt?$AAe?$AAr?$AAa?$AAc?$AAt?$AAi?$AAv?$AAe@ 00000000000c7f90     UefiShellCommandLib:UefiShellCommandLib.obj
 0002:00007fa8       ??_C@_0CI@LPGDMEAP@BufferListEntry?9?$DOBuffer?5?$CB?$DN?5?$CI?$CIvo@ 00000000000c7fa8     UefiShellCommandLib:UefiShellCommandLib.obj
 0002:00007fd0       ??_C@_0FB@FPEBAEPO@f?3?2uefiworkspace?2edk2?2ShellPkg?2@ 00000000000c7fd0     UefiShellCommandLib:UefiShellCommandLib.obj
 0002:00008028       ??_C@_0BI@KIPBGMAD@MapNode?5?$CB?$DN?5?$CI?$CIvoid?5?$CK?$CJ?50?$CJ@ 00000000000c8028     UefiShellCommandLib:UefiShellCommandLib.obj
 0002:00008040       ??_C@_0BO@MBONBKCA@CommandString?5?$CB?$DN?5?$CI?$CIvoid?5?$CK?$CJ?50?$CJ@ 00000000000c8040     UefiShellCommandLib:UefiShellCommandLib.obj
 0002:00008060       ??_C@_0CE@GJHPJEHO@Node?9?$DOCommandString?5?$CB?$DN?5?$CI?$CIvoid?5?$CK@ 00000000000c8060     UefiShellCommandLib:UefiShellCommandLib.obj
 0002:00008084       ??_C@_02LFNMGJAP@en@       00000000000c8084     UefiShellCommandLib:UefiShellCommandLib.obj
 0002:00008088       ??_C@_0BP@MPGCBHML@GetManFileName?5?$CB?$DN?5?$CI?$CIvoid?5?$CK?$CJ?50?$CJ@ 00000000000c8088     UefiShellCommandLib:UefiShellCommandLib.obj
 0002:000080a8       ??_C@_0BP@KLHDEOMH@CommandHandler?5?$CB?$DN?5?$CI?$CIvoid?5?$CK?$CJ?50?$CJ@ 00000000000c80a8     UefiShellCommandLib:UefiShellCommandLib.obj
 0002:000080c8       ??_C@_0BM@OPPIBMMG@ProfileName?5?$CB?$DN?5?$CI?$CIvoid?5?$CK?$CJ?50?$CJ@ 00000000000c80c8     UefiShellCommandLib:UefiShellCommandLib.obj
 0002:000080f0       ??_C@_0FK@HAGBHMMB@?$CImProfileList?5?$DN?$DN?5?$CI?$CIvoid?5?$CK?$CJ?50?$CJ?5?$CG@ 00000000000c80f0     UefiShellCommandLib:UefiShellCommandLib.obj
 0002:00008150       ??_C@_0BI@BLOGOJPJ@Command?5?$CB?$DN?5?$CI?$CIvoid?5?$CK?$CJ?50?$CJ@ 00000000000c8150     UefiShellCommandLib:UefiShellCommandLib.obj
 0002:00008168       ??_C@_0BM@KBBHHLCN@Node?9?$DOAlias?5?$CB?$DN?5?$CI?$CIvoid?5?$CK?$CJ?50?$CJ@ 00000000000c8168     UefiShellCommandLib:UefiShellCommandLib.obj
 0002:00008188       ??_C@_0BG@NGLBKNON@Type?5?$DM?5MappingTypeMax@ 00000000000c8188     UefiShellCommandLib:UefiShellCommandLib.obj
 0002:000081a0       ??_C@_1M@LEDCCPHA@?$AAF?$AAS?$AA?$CF?$AAd?$AA?3@ 00000000000c81a0     UefiShellCommandLib:UefiShellCommandLib.obj
 0002:000081b0       ??_C@_1O@GAMFIKPJ@?$AAB?$AAL?$AAK?$AA?$CF?$AAd?$AA?3@ 00000000000c81b0     UefiShellCommandLib:UefiShellCommandLib.obj
 0002:000081c0       ??_C@_0EL@OPMEFBHH@?$CINewPath?5?$DN?$DN?5?$CI?$CIvoid?5?$CK?$CJ?50?$CJ?5?$CG?$CG?5New@ 00000000000c81c0     UefiShellCommandLib:UefiShellCommandLib.obj
 0002:00008210       ??_C@_1BK@CAPKGIMF@?$AA?2?$AAe?$AAf?$AAi?$AA?2?$AAt?$AAo?$AAo?$AAl?$AAs?$AA?2?$AA?$DL@ 00000000000c8210     UefiShellCommandLib:UefiShellCommandLib.obj
 0002:00008230       ??_C@_1BI@PKLDNON@?$AA?2?$AAe?$AAf?$AAi?$AA?2?$AAb?$AAo?$AAo?$AAt?$AA?2?$AA?$DL@ 00000000000c8230     UefiShellCommandLib:UefiShellCommandLib.obj
 0002:00008248       ??_C@_0BP@CPABMANL@NewDefaultName?5?$CB?$DN?5?$CI?$CIvoid?5?$CK?$CJ?50?$CJ@ 00000000000c8248     UefiShellCommandLib:UefiShellCommandLib.obj
 0002:00008268       ??_C@_1CM@PBLCLIC@?$AA?$CF?$AA?$CK?$AAa?$AA?$CF?$AA0?$AA8?$AAX?$AA?3?$AA?5?$AA?$CF?$AA?9?$AA4?$AA8?$AAa?$AA?5@ 00000000000c8268     UefiShellCommandLib:UefiShellCommandLib.obj
 0002:00008298       ??_C@_0DK@NNPIMKMP@Status?5?$DN?$DN?5?$CI?$CIRETURN_STATUS?$CJ?$CI0x80@ 00000000000c8298     UefiShellCommandLib:UefiShellCommandLib.obj
 0002:000082d8       ??_C@_0BK@LKPHBLMB@SortEntry?5?$CB?$DN?5?$CI?$CIvoid?5?$CK?$CJ?50?$CJ@ 00000000000c82d8     UefiShellCommandLib:UefiShellCommandLib.obj
 0002:000082f8       ??_C@_0CE@LNAKIMOF@IsListEmpty?5?$CI?$CGUnique?9?$DOSameNameL@ 00000000000c82f8     UefiShellCommandLib:UefiShellCommandLib.obj
 0002:0000831c       ??_C@_13GAMECHAC@?$AAF@    00000000000c831c     UefiShellCommandLib:ConsistMapping.obj
 0002:00008320       ??_C@_15FMDBLIIP@?$AAF?$AAP@ 00000000000c8320     UefiShellCommandLib:ConsistMapping.obj
 0002:00008328       ??_C@_15NDIHOJPE@?$AAC?$AAD@ 00000000000c8328     UefiShellCommandLib:ConsistMapping.obj
 0002:00008330       ??_C@_0BE@LNIAOOBG@Str?5?$CB?$DN?5?$CI?$CIvoid?5?$CK?$CJ?50?$CJ@ 00000000000c8330     UefiShellCommandLib:ConsistMapping.obj
 0002:00008350       ??_C@_0EM@HDDFJGCM@f?3?2uefiworkspace?2edk2?2ShellPkg?2@ 00000000000c8350     UefiShellCommandLib:ConsistMapping.obj
 0002:000083a0       ??_C@_0BM@HIGDLIKJ@MappingItem?5?$CB?$DN?5?$CI?$CIvoid?5?$CK?$CJ?50?$CJ@ 00000000000c83a0     UefiShellCommandLib:ConsistMapping.obj
 0002:000083c0       ??_C@_17OADJODNB@?$AA?$CF?$AAl?$AAd@ 00000000000c83c0     UefiShellCommandLib:ConsistMapping.obj
 0002:000083c8       ??_C@_0DD@DMJAEFC@Str?5?$CB?$DN?5?$CI?$CIvoid?5?$CK?$CJ?50?$CJ?5?$CG?$CG?5MappingI@ 00000000000c83c8     UefiShellCommandLib:ConsistMapping.obj
 0002:000083fc       ??_C@_15FEFLCNCJ@?$AA1?$AA6@ 00000000000c83fc     UefiShellCommandLib:ConsistMapping.obj
 0002:00008408       ??_C@_17KNEILPBN@?$AA1?$AA?$CF?$AAc@ 00000000000c8408     UefiShellCommandLib:ConsistMapping.obj
 0002:00008410       ??_C@_0DE@FCJINMCJ@Guid?5?$CB?$DN?5?$CI?$CIvoid?5?$CK?$CJ?50?$CJ?5?$CG?$CG?5Mapping@ 00000000000c8410     UefiShellCommandLib:ConsistMapping.obj
 0002:00008444       ??_C@_15LPKNAFGD@?$AA?$CF?$AAg@ 00000000000c8444     UefiShellCommandLib:ConsistMapping.obj
 0002:00008450       ??_C@_0BM@MPGMLKPE@DevicePath1?5?$CB?$DN?5?$CI?$CIvoid?5?$CK?$CJ?50?$CJ@ 00000000000c8450     UefiShellCommandLib:ConsistMapping.obj
 0002:00008470       ??_C@_0BM@CFOKGHJG@DevicePath2?5?$CB?$DN?5?$CI?$CIvoid?5?$CK?$CJ?50?$CJ@ 00000000000c8470     UefiShellCommandLib:ConsistMapping.obj
 0002:00008490       ??_C@_0BP@IFDAIIIE@DevicePathNode?5?$CB?$DN?5?$CI?$CIvoid?5?$CK?$CJ?50?$CJ@ 00000000000c8490     UefiShellCommandLib:ConsistMapping.obj
 0002:000084b0       ??_C@_0BG@CBCHCMKB@UsbIo?5?$CB?$DN?5?$CI?$CIvoid?5?$CK?$CJ?50?$CJ@ 00000000000c84b0     UefiShellCommandLib:ConsistMapping.obj
 0002:000084c8       ??_C@_1CC@LFFNJKKE@?$AA?$CF?$AA0?$AA2?$AAx?$AA?$CF?$AA0?$AA2?$AAx?$AA?$CF?$AA0?$AA2?$AAx?$AA?$CF?$AA0?$AA2@ 00000000000c84c8     UefiShellCommandLib:ConsistMapping.obj
 0002:000084f0       ??_C@_17PKPGALPG@?$AA?$CF?$AAl?$AAx@ 00000000000c84f0     UefiShellCommandLib:ConsistMapping.obj
 0002:000084f8       ??_C@_1O@LHNJIAPJ@?$AAa?$AAt?$AAt?$AAr?$AAi?$AAb@ 00000000000c84f8     UefiShellLevel2CommandsLib:UefiShellLevel2CommandsLib.obj
 0002:00008508       ??_C@_15HEBJEDPM@?$AAc?$AAd@ 00000000000c8508     UefiShellLevel2CommandsLib:UefiShellLevel2CommandsLib.obj
 0002:00008510       ??_C@_15KLGCIDDE@?$AAc?$AAp@ 00000000000c8510     UefiShellLevel2CommandsLib:UefiShellLevel2CommandsLib.obj
 0002:00008518       ??_C@_19KJIJHNML@?$AAl?$AAo?$AAa?$AAd@ 00000000000c8518     UefiShellLevel2CommandsLib:UefiShellLevel2CommandsLib.obj
 0002:00008528       ??_C@_1M@KBLMDDDF@?$AAm?$AAk?$AAd?$AAi?$AAr@ 00000000000c8528     UefiShellLevel2CommandsLib:UefiShellLevel2CommandsLib.obj
 0002:00008534       ??_C@_15LEADLNJI@?$AAm?$AAv@ 00000000000c8534     UefiShellLevel2CommandsLib:UefiShellLevel2CommandsLib.obj
 0002:00008540       ??_C@_1M@PBHODJJJ@?$AAp?$AAa?$AAr?$AAs?$AAe@ 00000000000c8540     UefiShellLevel2CommandsLib:UefiShellLevel2CommandsLib.obj
 0002:00008550       ??_C@_1M@OFCONGJO@?$AAr?$AAe?$AAs?$AAe?$AAt@ 00000000000c8550     UefiShellLevel2CommandsLib:UefiShellLevel2CommandsLib.obj
 0002:00008560       ??_C@_17EGGBPMH@?$AAs?$AAe?$AAt@ 00000000000c8560     UefiShellLevel2CommandsLib:UefiShellLevel2CommandsLib.obj
 0002:00008568       ??_C@_15EIIBJOAP@?$AAl?$AAs@ 00000000000c8568     UefiShellLevel2CommandsLib:UefiShellLevel2CommandsLib.obj
 0002:00008570       ??_C@_15MBJLNNEI@?$AAr?$AAm@ 00000000000c8570     UefiShellLevel2CommandsLib:UefiShellLevel2CommandsLib.obj
 0002:00008578       ??_C@_17HILAENLF@?$AAv?$AAo?$AAl@ 00000000000c8578     UefiShellLevel2CommandsLib:UefiShellLevel2CommandsLib.obj
 0002:00008580       ??_C@_17OHLFFIIF@?$AAd?$AAe?$AAl@ 00000000000c8580     UefiShellLevel2CommandsLib:UefiShellLevel2CommandsLib.obj
 0002:00008588       ??_C@_17CALBLIFC@?$AAd?$AAi?$AAr@ 00000000000c8588     UefiShellLevel2CommandsLib:UefiShellLevel2CommandsLib.obj
 0002:00008590       ??_C@_19DCHLHIDK@?$AAc?$AAo?$AAp?$AAy@ 00000000000c8590     UefiShellLevel2CommandsLib:UefiShellLevel2CommandsLib.obj
 0002:0000859c       ??_C@_15EOBDCCIM@?$AAm?$AAd@ 00000000000c859c     UefiShellLevel2CommandsLib:UefiShellLevel2CommandsLib.obj
 0002:000085a8       ??_C@_19PEPDKPA@?$AAc?$AAd?$AA?4?$AA?4@ 00000000000c85a8     UefiShellLevel2CommandsLib:UefiShellLevel2CommandsLib.obj
 0002:000085b8       ??_C@_1M@IHNHPNHP@?$AAc?$AAd?$AA?5?$AA?4?$AA?4@ 00000000000c85b8     UefiShellLevel2CommandsLib:UefiShellLevel2CommandsLib.obj
 0002:000085c8       ??_C@_17NGAHHKJI@?$AAc?$AAd?$AA?2@ 00000000000c85c8     UefiShellLevel2CommandsLib:UefiShellLevel2CommandsLib.obj
 0002:000085d0       ??_C@_19PEHDDDJH@?$AAc?$AAd?$AA?5?$AA?2@ 00000000000c85d0     UefiShellLevel2CommandsLib:UefiShellLevel2CommandsLib.obj
 0002:000085e0       ??_C@_17PHGIKIKC@?$AAr?$AAe?$AAn@ 00000000000c85e0     UefiShellLevel2CommandsLib:UefiShellLevel2CommandsLib.obj
 0002:000085e8       ??_C@_19OACEEDLD@?$AAm?$AAo?$AAv?$AAe@ 00000000000c85e8     UefiShellLevel2CommandsLib:UefiShellLevel2CommandsLib.obj
 0002:000085f8       ??_C@_1M@CACIMNJO@?$AAm?$AAo?$AAu?$AAn?$AAt@ 00000000000c85f8     UefiShellLevel2CommandsLib:UefiShellLevel2CommandsLib.obj
 0002:00008608       ??_C@_19EEHDNLEA@?$AAd?$AAa?$AAt?$AAe@ 00000000000c8608     UefiShellLevel2CommandsLib:UefiShellLevel2CommandsLib.obj
 0002:00008618       ??_C@_19JEOBBCEO@?$AAt?$AAi?$AAm?$AAe@ 00000000000c8618     UefiShellLevel2CommandsLib:UefiShellLevel2CommandsLib.obj
 0002:00008628       ??_C@_1BC@ODGONKJC@?$AAt?$AAi?$AAm?$AAe?$AAz?$AAo?$AAn?$AAe@ 00000000000c8628     UefiShellLevel2CommandsLib:UefiShellLevel2CommandsLib.obj
 0002:00008640       ??_C@_1O@CIHIHMGO@?$AAl?$AA2?$AAd?$AAa?$AAt?$AAe@ 00000000000c8640     UefiShellLevel2CommandsLib:UefiShellLevel2CommandsLib.obj
 0002:00008650       ??_C@_1O@PIOKLFGA@?$AAl?$AA2?$AAt?$AAi?$AAm?$AAe@ 00000000000c8650     UefiShellLevel2CommandsLib:UefiShellLevel2CommandsLib.obj
 0002:00008660       ??_C@_1BG@LLJLCNJJ@?$AAl?$AA2?$AAt?$AAi?$AAm?$AAe?$AAz?$AAo?$AAn?$AAe@ 00000000000c8660     UefiShellLevel2CommandsLib:UefiShellLevel2CommandsLib.obj
 0002:00008680       ??_C@_0FP@GACMGLED@f?3?2uefiworkspace?2edk2?2ShellPkg?2@ 00000000000c8680     UefiShellLevel2CommandsLib:UefiShellLevel2CommandsLib.obj
 0002:000086e0       mFileName                  00000000000c86e0     UefiShellLevel2CommandsLib:UefiShellLevel2CommandsLib.obj
 0002:000086fc       ??_C@_15DOHNAJB@?$AA?9?$AAw@ 00000000000c86fc     UefiShellLevel2CommandsLib:Reset.obj
 0002:00008704       ??_C@_15IMIFEHMG@?$AA?9?$AAs@ 00000000000c8704     UefiShellLevel2CommandsLib:Reset.obj
 0002:0000870c       ??_C@_15NMJMBAFJ@?$AA?9?$AAc@ 00000000000c870c     UefiShellLevel2CommandsLib:Reset.obj
 0002:00008718       ??_C@_1M@GFBJCLMD@?$AA?9?$AAf?$AAw?$AAu?$AAi@ 00000000000c8718     UefiShellLevel2CommandsLib:Reset.obj
 0002:00008730       ??_C@_0EK@FMKJOLIG@f?3?2uefiworkspace?2edk2?2ShellPkg?2@ 00000000000c8730     UefiShellLevel2CommandsLib:Reset.obj
 0002:00008780       ??_C@_1CO@MENFEBKM@?$AAO?$AAs?$AAI?$AAn?$AAd?$AAi?$AAc?$AAa?$AAt?$AAi?$AAo?$AAn?$AAs?$AAS?$AAu@ 00000000000c8780     UefiShellLevel2CommandsLib:Reset.obj
 0002:000087b0       ??_C@_1BM@MDLAABPK@?$AAO?$AAs?$AAI?$AAn?$AAd?$AAi?$AAc?$AAa?$AAt?$AAi?$AAo?$AAn?$AAs@ 00000000000c87b0     UefiShellLevel2CommandsLib:Reset.obj
 0002:000087d0       ??_C@_1DC@HCBBIEMO@?$AAR?$AAe?$AAs?$AAe?$AAt?$AA?5?$AAw?$AAi?$AAt?$AAh?$AA?5?$AA?$CF?$AAs?$AA?5?$AA?$CI@ 00000000000c87d0     UefiShellLevel2CommandsLib:Reset.obj
 0002:00008860       ??_C@_0EJ@NOCAEPAF@f?3?2uefiworkspace?2edk2?2ShellPkg?2@ 00000000000c8860     UefiShellLevel2CommandsLib:Load.obj
 0002:000088b0       ??_C@_0CC@BPGMMONK@LoadedDriverImage?5?$CB?$DN?5?$CI?$CIvoid?5?$CK?$CJ?5@ 00000000000c88b0     UefiShellLevel2CommandsLib:Load.obj
 0002:000088d8       ??_C@_17ODMDGBNG@?$AA?9?$AAn?$AAc@ 00000000000c88d8     UefiShellLevel2CommandsLib:Load.obj
 0002:00008900       ??_C@_1BK@IBFCCNCI@?$AAg?$AAR?$AAT?$AA?9?$AA?$DO?$AAG?$AAe?$AAt?$AAT?$AAi?$AAm?$AAe@ 00000000000c8900     UefiShellLevel2CommandsLib:TimeDate.obj
 0002:00008920       ??_C@_0EN@JFOFOHON@f?3?2uefiworkspace?2edk2?2ShellPkg?2@ 00000000000c8920     UefiShellLevel2CommandsLib:TimeDate.obj
 0002:00008970       ??_C@_15EBELCIOA@?$AA?9?$AAd@ 00000000000c8970     UefiShellLevel2CommandsLib:TimeDate.obj
 0002:00008978       ??_C@_17GMJPFIDO@?$AA?9?$AAt?$AAz@ 00000000000c8978     UefiShellLevel2CommandsLib:TimeDate.obj
 0002:00008980       ??_C@_0CN@JAAOOJBM@_gPcd_FixedAtBuild_PcdShellSupp@ 00000000000c8980     UefiShellLevel2CommandsLib:TimeDate.obj
 0002:000089b0       ??_C@_13KJIIAINM@?$AA?$CL@ 00000000000c89b0     UefiShellLevel2CommandsLib:TimeDate.obj
 0002:000089b8       ??_C@_1CC@NOCPFBIB@?$AAT?$AAh?$AAe?$AAT?$AAi?$AAm?$AAe?$AA?4?$AAD?$AAa?$AAy?$AAl?$AAi?$AAg?$AAh@ 00000000000c89b8     UefiShellLevel2CommandsLib:TimeDate.obj
 0002:000089e0       ??_C@_1O@LOFDLEDL@?$AA_?$AAl?$AAo?$AAc?$AAa?$AAl@ 00000000000c89e0     UefiShellLevel2CommandsLib:TimeDate.obj
 0002:000089f0       ??_C@_15IEPPAAAP@?$AA?9?$AAl@ 00000000000c89f0     UefiShellLevel2CommandsLib:TimeDate.obj
 0002:000089f8       ??_C@_15OLECOAGL@?$AA?9?$AAf@ 00000000000c89f8     UefiShellLevel2CommandsLib:TimeDate.obj
 0002:00008a00       ??_C@_1BC@JBHNBLED@?$AA?9?$AAl?$AA?5?$AAo?$AAr?$AA?5?$AA?9?$AAf@ 00000000000c8a00     UefiShellLevel2CommandsLib:TimeDate.obj
 0002:00008b70       ??_C@_0EK@CGJKEJJF@f?3?2uefiworkspace?2edk2?2ShellPkg?2@ 00000000000c8b70     UefiShellLevel2CommandsLib:Parse.obj
 0002:00008bc0       ??_C@_0BK@ONNIGBFG@TableName?5?$CB?$DN?5?$CI?$CIvoid?5?$CK?$CJ?50?$CJ@ 00000000000c8bc0     UefiShellLevel2CommandsLib:Parse.obj
 0002:00008be0       ??_C@_1BM@JGMAIAOM@?$AAS?$AAh?$AAe?$AAl?$AAl?$AAC?$AAo?$AAm?$AAm?$AAa?$AAn?$AAd?$AA?0@ 00000000000c8be0     UefiShellLevel2CommandsLib:Parse.obj
 0002:00008bfc       ??_C@_15DEGIPMKE@?$AA?0?$AA?$CC@ 00000000000c8bfc     UefiShellLevel2CommandsLib:Parse.obj
 0002:00008c08       ??_C@_1BK@BOMKEOAF@?$AAC?$AAo?$AAl?$AAu?$AAm?$AAn?$AA?5?$AAI?$AAn?$AAd?$AAe?$AAx@ 00000000000c8c08     UefiShellLevel2CommandsLib:Parse.obj
 0002:00008c24       ??_C@_15LDCBPADN@?$AA?9?$AAi@ 00000000000c8c24     UefiShellLevel2CommandsLib:Parse.obj
 0002:00008c60       ??_C@_0BG@JMDNBIJO@Splitter?5?$CB?$DN?5?$CKFullPath@ 00000000000c8c60     UefiShellLevel2CommandsLib:Cd.obj
 0002:00008c80       ??_C@_0EH@IACBMIG@f?3?2uefiworkspace?2edk2?2ShellPkg?2@ 00000000000c8c80     UefiShellLevel2CommandsLib:Cd.obj
 0002:00008cc8       ??_C@_0BJ@NHAALEPA@FullPath?5?$CB?$DN?5?$CI?$CIvoid?5?$CK?$CJ?50?$CJ@ 00000000000c8cc8     UefiShellLevel2CommandsLib:Cd.obj
 0002:00008ce4       ??_C@_15HGJFNINC@?$AA?9?$AAa@ 00000000000c8ce4     UefiShellLevel2CommandsLib:Attrib.obj
 0002:00008cec       ??_C@_15KAMMDLMP@?$AA?$CL?$AAa@ 00000000000c8cec     UefiShellLevel2CommandsLib:Attrib.obj
 0002:00008cf4       ??_C@_15FKNMKENL@?$AA?$CL?$AAs@ 00000000000c8cf4     UefiShellLevel2CommandsLib:Attrib.obj
 0002:00008cfc       ??_C@_15LJNJHFI@?$AA?9?$AAh@ 00000000000c8cfc     UefiShellLevel2CommandsLib:Attrib.obj
 0002:00008d04       ??_C@_15NNMEHEEF@?$AA?$CL?$AAh@ 00000000000c8d04     UefiShellLevel2CommandsLib:Attrib.obj
 0002:00008d0c       ??_C@_15DEDJCAKD@?$AA?9?$AAr@ 00000000000c8d0c     UefiShellLevel2CommandsLib:Attrib.obj
 0002:00008d14       ??_C@_15OCGAMDLO@?$AA?$CL?$AAr@ 00000000000c8d14     UefiShellLevel2CommandsLib:Attrib.obj
 0002:00008d20       ??_C@_0EL@IFIPFOBD@f?3?2uefiworkspace?2edk2?2ShellPkg?2@ 00000000000c8d20     UefiShellLevel2CommandsLib:Attrib.obj
 0002:00008d70       ??_C@_0BM@PPAFNGLK@ListOfFiles?5?$DN?$DN?5?$CI?$CIvoid?5?$CK?$CJ?50?$CJ@ 00000000000c8d70     UefiShellLevel2CommandsLib:Attrib.obj
 0002:00008e20       ??_C@_0EH@EHJMOEHB@f?3?2uefiworkspace?2edk2?2ShellPkg?2@ 00000000000c8e20     UefiShellLevel2CommandsLib:Ls.obj
 0002:00008e68       ??_C@_0BI@OHKIGLJK@SysInfo?5?$CB?$DN?5?$CI?$CIvoid?5?$CK?$CJ?50?$CJ@ 00000000000c8e68     UefiShellLevel2CommandsLib:Ls.obj
 0002:00008e80       ??_C@_19ELAAHEEL@?$AAT?$AAR?$AAU?$AAE@ 00000000000c8e80     UefiShellLevel2CommandsLib:Ls.obj
 0002:00008e90       ??_C@_1M@HCOOECOK@?$AAF?$AAA?$AAL?$AAS?$AAE@ 00000000000c8e90     UefiShellLevel2CommandsLib:Ls.obj
 0002:00008ea0       ??_C@_0BG@NGJFNJEB@Files?5?$CB?$DN?5?$CI?$CIvoid?5?$CK?$CJ?50?$CJ@ 00000000000c8ea0     UefiShellLevel2CommandsLib:Ls.obj
 0002:00008eb8       ??_C@_0BF@MKOIBPLI@Dirs?5?$CB?$DN?5?$CI?$CIvoid?5?$CK?$CJ?50?$CJ@ 00000000000c8eb8     UefiShellLevel2CommandsLib:Ls.obj
 0002:00008ed0       ??_C@_0BI@PNAGFONE@TheNode?5?$CB?$DN?5?$CI?$CIvoid?5?$CK?$CJ?50?$CJ@ 00000000000c8ed0     UefiShellLevel2CommandsLib:Ls.obj
 0002:00008ee8       ??_C@_13KHDBCPJB@?$AAs@    00000000000c8ee8     UefiShellLevel2CommandsLib:Ls.obj
 0002:00008eec       ??_C@_13BPINEIPE@?$AAr@    00000000000c8eec     UefiShellLevel2CommandsLib:Ls.obj
 0002:00008ef0       ??_C@_13CACJPPAP@?$AAh@    00000000000c8ef0     UefiShellLevel2CommandsLib:Ls.obj
 0002:00008ef4       ??_C@_13GKPPEALH@?$AAd@    00000000000c8ef4     UefiShellLevel2CommandsLib:Ls.obj
 0002:00008ef8       ??_C@_13FNCBLAIF@?$AAa@    00000000000c8ef8     UefiShellLevel2CommandsLib:Ls.obj
 0002:00008f00       ??_C@_1M@GFDIBKGH@?$AA?$DM?$AAD?$AAI?$AAR?$AA?$DO@ 00000000000c8f00     UefiShellLevel2CommandsLib:Ls.obj
 0002:00008f10       ??_C@_19PLKELGOA@?$AA?4?$AAn?$AAs?$AAh@ 00000000000c8f10     UefiShellLevel2CommandsLib:Ls.obj
 0002:00008f20       ??_C@_0DG@DLFOGLEB@?$CITime?9?$DOTimeZone?5?$DO?$DN?5?91440?$CJ?5?$CG?$CG?5?$CIT@ 00000000000c8f20     UefiShellLevel2CommandsLib:Ls.obj
 0002:00008f58       ??_C@_0DE@HHNNGGB@?$CILocalTimeZone?5?$DO?$DN?5?91440?$CJ?5?$CG?$CG?5?$CILo@ 00000000000c8f58     UefiShellLevel2CommandsLib:Ls.obj
 0002:00008f90       ??_C@_0CK@EBFHICFE@?$CITime?9?$DOMonth?5?$DO?$DN?51?$CJ?5?$CG?$CG?5?$CITime?9?$DOMo@ 00000000000c8f90     UefiShellLevel2CommandsLib:Ls.obj
 0002:00008fc0       ??_C@_0BL@LJNANCHI@Node?9?$DOInfo?5?$CB?$DN?5?$CI?$CIvoid?5?$CK?$CJ?50?$CJ@ 00000000000c8fc0     UefiShellLevel2CommandsLib:Ls.obj
 0002:00008fe0       ??_C@_0EJ@NBAHNBEF@?$CINode?9?$DOInfo?9?$DOAttribute?5?$CG?50x0000@ 00000000000c8fe0     UefiShellLevel2CommandsLib:Ls.obj
 0002:00009030       ??_C@_0BN@EBBNOBIN@SearchString?5?$DN?$DN?5?$CI?$CIvoid?5?$CK?$CJ?50?$CJ@ 00000000000c9030     UefiShellLevel2CommandsLib:Ls.obj
 0002:00009050       ??_C@_0BJ@JGAFFJKG@FullPath?5?$DN?$DN?5?$CI?$CIvoid?5?$CK?$CJ?50?$CJ@ 00000000000c9050     UefiShellLevel2CommandsLib:Ls.obj
 0002:00009070       ??_C@_0EG@BBKMMMDB@?$CIFullPath?5?$DN?$DN?5?$CI?$CIvoid?5?$CK?$CJ?50?$CJ?5?$CG?$CG?5Si@ 00000000000c9070     UefiShellLevel2CommandsLib:Ls.obj
 0002:00009100       ??_C@_0BJ@COCMLIKB@TempList?5?$CB?$DN?5?$CI?$CIvoid?5?$CK?$CJ?50?$CJ@ 00000000000c9100     UefiShellLevel2CommandsLib:Map.obj
 0002:00009120       ??_C@_0EI@OLHJJEGP@f?3?2uefiworkspace?2edk2?2ShellPkg?2@ 00000000000c9120     UefiShellLevel2CommandsLib:Map.obj
 0002:00009168       ??_C@_17DLODPOOO@?$AAH?$AAD?$AA?$CK@ 00000000000c9168     UefiShellLevel2CommandsLib:Map.obj
 0002:00009170       ??_C@_17GGIJOCLI@?$AAC?$AAD?$AA?$CK@ 00000000000c9170     UefiShellLevel2CommandsLib:Map.obj
 0002:00009178       ??_C@_15FILDPIHH@?$AAF?$AA?$CK@ 00000000000c9178     UefiShellLevel2CommandsLib:Map.obj
 0002:00009180       ??_C@_17LGCOKMFB@?$AAF?$AAP?$AA?$CK@ 00000000000c9180     UefiShellLevel2CommandsLib:Map.obj
 0002:00009188       ??_C@_15EOIEBHGB@?$AAF?$AAS@ 00000000000c9188     UefiShellLevel2CommandsLib:Map.obj
 0002:00009190       ??_C@_17MFOKPACN@?$AAB?$AAL?$AAK@ 00000000000c9190     UefiShellLevel2CommandsLib:Map.obj
 0002:00009198       ??_C@_17PBAHFJOA@?$AAY?$AAe?$AAs@ 00000000000c9198     UefiShellLevel2CommandsLib:Map.obj
 0002:000091a0       ??_C@_15BICKNCBF@?$AAN?$AAo@ 00000000000c91a0     UefiShellLevel2CommandsLib:Map.obj
 0002:000091a8       ??_C@_15LLFLLHPE@?$AA?9?$AAv@ 00000000000c91a8     UefiShellLevel2CommandsLib:Map.obj
 0002:000091b0       ??_C@_15KJOOBIBK@?$AA?9?$AAu@ 00000000000c91b0     UefiShellLevel2CommandsLib:Map.obj
 0002:000091b8       ??_C@_15BBFCHPHP@?$AA?9?$AAt@ 00000000000c91b8     UefiShellLevel2CommandsLib:Map.obj
 0002:000091c0       AnyF                       00000000000c91c0     UefiShellLevel2CommandsLib:Map.obj
 0002:000091c8       Hd                         00000000000c91c8     UefiShellLevel2CommandsLib:Map.obj
 0002:00009260       Cd                         00000000000c9260     UefiShellLevel2CommandsLib:Map.obj
 0002:00009268       Fp                         00000000000c9268     UefiShellLevel2CommandsLib:Map.obj
 0002:00009270       ??_C@_0EH@NHHJNMEO@f?3?2uefiworkspace?2edk2?2ShellPkg?2@ 00000000000c9270     UefiShellLevel2CommandsLib:Cp.obj
 0002:000092b8       ??_C@_15PKPONJIK@?$AA?2?$AA?$CK@ 00000000000c92b8     UefiShellLevel2CommandsLib:Cp.obj
 0002:000092c0       ??_C@_0BI@PMPALEG@DestDir?5?$CB?$DN?5?$CI?$CIvoid?5?$CK?$CJ?50?$CJ@ 00000000000c92c0     UefiShellLevel2CommandsLib:Cp.obj
 0002:000092d8       ??_C@_0CB@HHHHOICB@CleanFilePathStr?5?$CB?$DN?5?$CI?$CIvoid?5?$CK?$CJ?50@ 00000000000c92d8     UefiShellLevel2CommandsLib:Cp.obj
 0002:00009300       ??_C@_0BP@CEDNINEP@Node?9?$DOFileName?5?$CB?$DN?5?$CI?$CIvoid?5?$CK?$CJ?50?$CJ@ 00000000000c9300     UefiShellLevel2CommandsLib:Cp.obj
 0002:00009320       ??_C@_0BP@EODGBCFD@Node?9?$DOFullName?5?$CB?$DN?5?$CI?$CIvoid?5?$CK?$CJ?50?$CJ@ 00000000000c9320     UefiShellLevel2CommandsLib:Cp.obj
 0002:00009340       ??_C@_0EA@HBMPJEPK@?$CI?$CIEFI_SHELL_FILE_INFO?5?$CK?$CJList?9?$DOL@ 00000000000c9340     UefiShellLevel2CommandsLib:Cp.obj
 0002:00009380       ??_C@_0EK@LEAHEFB@?$CI?$CIEFI_SHELL_FILE_INFO?5?$CK?$CJList?9?$DOL@ 00000000000c9380     UefiShellLevel2CommandsLib:Cp.obj
 0002:000093cc       ??_C@_15CGIMIPEN@?$AA?9?$AAq@ 00000000000c93cc     UefiShellLevel2CommandsLib:Cp.obj
 0002:00009408       ??_C@_13PFGJFIHC@?$AA?$FO@ 00000000000c9408     UefiShellLevel2CommandsLib:Vol.obj
 0002:0000940c       ??_C@_13MCLHKIEA@?$AA?$FL@ 00000000000c940c     UefiShellLevel2CommandsLib:Vol.obj
 0002:00009410       ??_C@_13OHNMPHJM@?$AA?$FN@ 00000000000c9410     UefiShellLevel2CommandsLib:Vol.obj
 0002:00009414       ??_C@_13GEEGGHPK@?$AA?$DM@ 00000000000c9414     UefiShellLevel2CommandsLib:Vol.obj
 0002:00009418       ??_C@_13MOEPKPHB@?$AA?$DO@ 00000000000c9418     UefiShellLevel2CommandsLib:Vol.obj
 0002:00009420       ??_C@_0EI@CHJHDAHB@f?3?2uefiworkspace?2edk2?2ShellPkg?2@ 00000000000c9420     UefiShellLevel2CommandsLib:Vol.obj
 0002:00009468       ??_C@_15COPGMIIE@?$AA?9?$AAn@ 00000000000c9468     UefiShellLevel2CommandsLib:Vol.obj
 0002:00009470       ??_C@_15GKAHMKIN@?$AA?3?$AA?2@ 00000000000c9470     UefiShellLevel2CommandsLib:Vol.obj
 0002:000094b0       ??_C@_0EH@CIIKONDO@f?3?2uefiworkspace?2edk2?2ShellPkg?2@ 00000000000c94b0     UefiShellLevel2CommandsLib:Rm.obj
 0002:00009520       ??_C@_0EI@KIEHMGBD@f?3?2uefiworkspace?2edk2?2ShellPkg?2@ 00000000000c9520     UefiShellLevel2CommandsLib:Set.obj
 0002:000095a0       ??_C@_0EK@FAOJDGJE@f?3?2uefiworkspace?2edk2?2ShellPkg?2@ 00000000000c95a0     UefiShellLevel2CommandsLib:MkDir.obj
 0002:000095f0       ??_C@_0BL@MMALFFMO@FileHandle?5?$DN?$DN?5?$CI?$CIvoid?5?$CK?$CJ?50?$CJ@ 00000000000c95f0     UefiShellLevel2CommandsLib:MkDir.obj
 0002:00009610       ??_C@_0BI@LCBFIOEA@CwdPath?5?$CB?$DN?5?$CI?$CIvoid?5?$CK?$CJ?50?$CJ@ 00000000000c9610     UefiShellLevel2CommandsLib:Mv.obj
 0002:00009630       ??_C@_0EH@ENCCDNPD@f?3?2uefiworkspace?2edk2?2ShellPkg?2@ 00000000000c9630     UefiShellLevel2CommandsLib:Mv.obj
 0002:00009678       ??_C@_0BP@DMAIHGMB@DestPathWalker?5?$CB?$DN?5?$CI?$CIvoid?5?$CK?$CJ?50?$CJ@ 00000000000c9678     UefiShellLevel2CommandsLib:Mv.obj
 0002:00009698       ??_C@_0BL@JJLEDFJJ@SourcePath?5?$CB?$DN?5?$CI?$CIvoid?5?$CK?$CJ?50?$CJ@ 00000000000c9698     UefiShellLevel2CommandsLib:Mv.obj
 0002:000096b8       ??_C@_0BJ@HMJPKPMK@DestAttr?5?$CB?$DN?5?$CI?$CIvoid?5?$CK?$CJ?50?$CJ@ 00000000000c96b8     UefiShellLevel2CommandsLib:Mv.obj
 0002:000096d8       ??_C@_0BJ@BOMODBED@DestPath?5?$DN?$DN?5?$CI?$CIvoid?5?$CK?$CJ?50?$CJ@ 00000000000c96d8     UefiShellLevel2CommandsLib:Mv.obj
 0002:000096f8       ??_C@_0BO@OPBKFEGF@DestParameter?5?$CB?$DN?5?$CI?$CIvoid?5?$CK?$CJ?50?$CJ@ 00000000000c96f8     UefiShellLevel2CommandsLib:Mv.obj
 0002:00009718       ??_C@_1M@DKNLGIMJ@?$AAs?$AAt?$AAa?$AAl?$AAl@ 00000000000c9718     UefiShellLevel1CommandsLib:UefiShellLevel1CommandsLib.obj
 0002:00009728       ??_C@_1M@OAJKEOAM@?$AAs?$AAh?$AAi?$AAf?$AAt@ 00000000000c9728     UefiShellLevel1CommandsLib:UefiShellLevel1CommandsLib.obj
 0002:00009738       ??_C@_19JPKILLMB@?$AAe?$AAx?$AAi?$AAt@ 00000000000c9738     UefiShellLevel1CommandsLib:UefiShellLevel1CommandsLib.obj
 0002:00009768       ??_C@_0BP@EFNHGOCI@ProfilesString?5?$CB?$DN?5?$CI?$CIvoid?5?$CK?$CJ?50?$CJ@ 00000000000c9768     UefiShellLevel1CommandsLib:If.obj
 0002:00009790       ??_C@_0EH@CDNBBMO@f?3?2uefiworkspace?2edk2?2ShellPkg?2@ 00000000000c9790     UefiShellLevel1CommandsLib:If.obj
 0002:000097d8       ??_C@_0CK@MGCONFMJ@?$CIEND_TAG_TYPE?$CJOperatorToUse?5?$CB?$DN?5@ 00000000000c97d8     UefiShellLevel1CommandsLib:If.obj
 0002:00009808       ??_C@_17ECEDBIFL@?$AAn?$AAo?$AAt@ 00000000000c9808     UefiShellLevel1CommandsLib:If.obj
 0002:00009810       ??_C@_1M@DFKILDOD@?$AAi?$AAs?$AAi?$AAn?$AAt@ 00000000000c9810     UefiShellLevel1CommandsLib:If.obj
 0002:00009820       ??_C@_1O@OCGIGJBK@?$AAe?$AAx?$AAi?$AAs?$AAt?$AAs@ 00000000000c9820     UefiShellLevel1CommandsLib:If.obj
 0002:00009830       ??_C@_1M@HHAKBENA@?$AAe?$AAx?$AAi?$AAs?$AAt@ 00000000000c9830     UefiShellLevel1CommandsLib:If.obj
 0002:00009840       ??_C@_1BC@MDECFFOE@?$AAe?$AAx?$AAi?$AAs?$AAt?$AA?$CI?$AAs?$AA?$CJ@ 00000000000c9840     UefiShellLevel1CommandsLib:If.obj
 0002:00009858       ??_C@_1BE@DKICMKIK@?$AAa?$AAv?$AAa?$AAi?$AAl?$AAa?$AAb?$AAl?$AAe@ 00000000000c9858     UefiShellLevel1CommandsLib:If.obj
 0002:00009870       ??_C@_1BA@PNHGIEJF@?$AAp?$AAr?$AAo?$AAf?$AAi?$AAl?$AAe@ 00000000000c9870     UefiShellLevel1CommandsLib:If.obj
 0002:00009880       ??_C@_1BC@EHCCAAMH@?$AAe?$AAf?$AAi?$AAe?$AAr?$AAr?$AAo?$AAr@ 00000000000c9880     UefiShellLevel1CommandsLib:If.obj
 0002:00009898       ??_C@_0BJ@MPBMMEMI@Compare1?5?$DN?$DN?5?$CI?$CIvoid?5?$CK?$CJ?50?$CJ@ 00000000000c9898     UefiShellLevel1CommandsLib:If.obj
 0002:000098b8       ??_C@_1BA@HKAFHKBC@?$AAp?$AAi?$AAe?$AAr?$AAr?$AAo?$AAr@ 00000000000c98b8     UefiShellLevel1CommandsLib:If.obj
 0002:000098c8       ??_C@_1BC@GFMDPOKB@?$AAo?$AAe?$AAm?$AAe?$AAr?$AAr?$AAo?$AAr@ 00000000000c98c8     UefiShellLevel1CommandsLib:If.obj
 0002:000098e0       ??_C@_0CM@JGPHALJN@StartParameterNumber?$CL1?5?$DM?5EndPar@ 00000000000c98e0     UefiShellLevel1CommandsLib:If.obj
 0002:0000990c       ??_C@_15LPJBFGHF@?$AAg?$AAt@ 00000000000c990c     UefiShellLevel1CommandsLib:If.obj
 0002:00009914       ??_C@_15NFFGKGLG@?$AAl?$AAt@ 00000000000c9914     UefiShellLevel1CommandsLib:If.obj
 0002:0000991c       ??_C@_15MFIHAHEM@?$AAe?$AAq@ 00000000000c991c     UefiShellLevel1CommandsLib:If.obj
 0002:00009924       ??_C@_15HADLDHEH@?$AAn?$AAe@ 00000000000c9924     UefiShellLevel1CommandsLib:If.obj
 0002:0000992c       ??_C@_15FHDEGGIP@?$AAg?$AAe@ 00000000000c992c     UefiShellLevel1CommandsLib:If.obj
 0002:00009934       ??_C@_15DNPDJGEM@?$AAl?$AAe@ 00000000000c9934     UefiShellLevel1CommandsLib:If.obj
 0002:0000993c       ??_C@_15PEJIGKFD@?$AA?$DN?$AA?$DN@ 00000000000c993c     UefiShellLevel1CommandsLib:If.obj
 0002:00009948       ??_C@_17IPMBLHEL@?$AAu?$AAg?$AAt@ 00000000000c9948     UefiShellLevel1CommandsLib:If.obj
 0002:00009950       ??_C@_17OFAGEHII@?$AAu?$AAl?$AAt@ 00000000000c9950     UefiShellLevel1CommandsLib:If.obj
 0002:00009958       ??_C@_17GHGEIHLB@?$AAu?$AAg?$AAe@ 00000000000c9958     UefiShellLevel1CommandsLib:If.obj
 0002:00009960       ??_C@_17NKDHHHC@?$AAu?$AAl?$AAe@ 00000000000c9960     UefiShellLevel1CommandsLib:If.obj
 0002:00009968       ??_C@_0CN@IKFKLGIO@StartParameterNumber?$CL2?5?$DM?$DN?5EndPa@ 00000000000c9968     UefiShellLevel1CommandsLib:If.obj
 0002:00009998       ??_C@_0BJ@CFJKBJKK@Compare2?5?$DN?$DN?5?$CI?$CIvoid?5?$CK?$CJ?50?$CJ@ 00000000000c9998     UefiShellLevel1CommandsLib:If.obj
 0002:000099b4       ??_C@_15HGKJILME@?$AAo?$AAr@ 00000000000c99b4     UefiShellLevel1CommandsLib:If.obj
 0002:000099c0       ??_C@_17CGIOMN@?$AAa?$AAn?$AAd@ 00000000000c99c0     UefiShellLevel1CommandsLib:If.obj
 0002:000099c8       ??_C@_19GDBJBHLM@?$AAt?$AAh?$AAe?$AAn@ 00000000000c99c8     UefiShellLevel1CommandsLib:If.obj
 0002:000099d4       ??_C@_15HICHKNCH@?$AAI?$AAf@ 00000000000c99d4     UefiShellLevel1CommandsLib:If.obj
 0002:000099e0       ??_C@_1M@IBHPJAIJ@?$AAE?$AAn?$AAd?$AAI?$AAf@ 00000000000c99e0     UefiShellLevel1CommandsLib:If.obj
 0002:000099ec       ??_C@_15POOJFBDG@?$AA?1?$AAi@ 00000000000c99ec     UefiShellLevel1CommandsLib:If.obj
 0002:000099f4       ??_C@_15MBENOGMN@?$AA?1?$AAs@ 00000000000c99f4     UefiShellLevel1CommandsLib:If.obj
 0002:00009a00       ??_C@_19CMEEBEGM@?$AAT?$AAh?$AAe?$AAn@ 00000000000c9a00     UefiShellLevel1CommandsLib:If.obj
 0002:00009a10       ??_C@_19GCOMJGMH@?$AAE?$AAl?$AAs?$AAe@ 00000000000c9a10     UefiShellLevel1CommandsLib:If.obj
 0002:00009a1c       ??_C@_04JGADNOIL@Else@     00000000000c9a1c     UefiShellLevel1CommandsLib:If.obj
 0002:00009a28       ??_C@_1M@IGNDJFLP@?$AAE?$AAn?$AAd?$AAi?$AAf@ 00000000000c9a28     UefiShellLevel1CommandsLib:If.obj
 0002:00009a40       ??_C@_0EK@PMBHEABA@f?3?2uefiworkspace?2edk2?2ShellPkg?2@ 00000000000c9a40     UefiShellLevel1CommandsLib:Stall.obj
 0002:00009a90       ??_C@_0EI@DHNBJEOP@f?3?2uefiworkspace?2edk2?2ShellPkg?2@ 00000000000c9a90     UefiShellLevel1CommandsLib:For.obj
 0002:00009ad8       ??_C@_1O@CFFHBKEK@?$AAE?$AAn?$AAd?$AAF?$AAo?$AAr@ 00000000000c9ad8     UefiShellLevel1CommandsLib:For.obj
 0002:00009ae8       ??_C@_17ENLLDOGE@?$AAF?$AAo?$AAr@ 00000000000c9ae8     UefiShellLevel1CommandsLib:For.obj
 0002:00009af0       ??_C@_0BM@OABCJGHL@Node?9?$DOAlias?5?$DN?$DN?5?$CI?$CIvoid?5?$CK?$CJ?50?$CJ@ 00000000000c9af0     UefiShellLevel1CommandsLib:For.obj
 0002:00009b10       ??_C@_0CE@CIHKHJCI@Node?9?$DOCommandString?5?$DN?$DN?5?$CI?$CIvoid?5?$CK@ 00000000000c9b10     UefiShellLevel1CommandsLib:For.obj
 0002:00009b38       ??_C@_0CC@IMJMDDEE@CurrentScriptFile?5?$CB?$DN?5?$CI?$CIvoid?5?$CK?$CJ?5@ 00000000000c9b38     UefiShellLevel1CommandsLib:For.obj
 0002:00009b5c       ??_C@_15LKDPIAPO@?$AAi?$AAn@ 00000000000c9b5c     UefiShellLevel1CommandsLib:For.obj
 0002:00009b70       ??_C@_0EF@PAMGJHH@?$CIArgSet?5?$DN?$DN?5?$CI?$CIvoid?5?$CK?$CJ?50?$CJ?5?$CG?$CG?5ArgS@ 00000000000c9b70     UefiShellLevel1CommandsLib:For.obj
 0002:00009bb8       ??_C@_17PELOKKDJ@?$AAr?$AAu?$AAn@ 00000000000c9bb8     UefiShellLevel1CommandsLib:For.obj
 0002:00009bc0       ??_C@_0CE@FDICNFOP@Info?9?$DOStep?5?$DN?$DN?51?5?$HM?$HM?5Info?9?$DOStep?5?$DN@ 00000000000c9bc0     UefiShellLevel1CommandsLib:For.obj
 0002:00009be8       ??_C@_0BN@LFMPNEMJ@ArgSetWalker?5?$DN?$DN?5?$CI?$CIvoid?5?$CK?$CJ?50?$CJ@ 00000000000c9be8     UefiShellLevel1CommandsLib:For.obj
 0002:00009c08       ??_C@_0BH@BKCNJEAO@ArgSet?5?$DN?$DN?5?$CI?$CIvoid?5?$CK?$CJ?50?$CJ@ 00000000000c9c08     UefiShellLevel1CommandsLib:For.obj
 0002:00009c20       ??_C@_0BF@ELANCEIC@Info?5?$CB?$DN?5?$CI?$CIvoid?5?$CK?$CJ?50?$CJ@ 00000000000c9c20     UefiShellLevel1CommandsLib:For.obj
 0002:00009c38       ??_C@_0BK@IBPGOKHK@Info?9?$DOSet?5?$CB?$DN?5?$CI?$CIvoid?5?$CK?$CJ?50?$CJ@ 00000000000c9c38     UefiShellLevel1CommandsLib:For.obj
 0002:00009c58       ??_C@_17CMBJCHDO@?$AA?$CC?$AA?5?$AA?$CC@ 00000000000c9c58     UefiShellLevel1CommandsLib:For.obj
 0002:00009c60       ??_C@_0EK@GPCHFDBG@f?3?2uefiworkspace?2edk2?2ShellPkg?2@ 00000000000c9c60     UefiShellLevel1CommandsLib:Shift.obj
 0002:00009cb0       ??_C@_0EJ@MIPMJMG@f?3?2uefiworkspace?2edk2?2ShellPkg?2@ 00000000000c9cb0     UefiShellLevel1CommandsLib:Goto.obj
 0002:00009d00       ??_C@_19JKCOJBMF@?$AAG?$AAo?$AAt?$AAo@ 00000000000c9d00     UefiShellLevel1CommandsLib:Goto.obj
 0002:00009d10       ??_C@_0FA@CDCHNAMP@?$CICompareString?5?$DN?$DN?5?$CI?$CIvoid?5?$CK?$CJ?50?$CJ?5@ 00000000000c9d10     UefiShellLevel1CommandsLib:Goto.obj
 0002:00009d60       ??_C@_15CJOINGDH@?$AA?1?$AAb@ 00000000000c9d60     UefiShellLevel1CommandsLib:Exit.obj
 0002:00009d70       ??_C@_0EJ@JKKLGJGB@f?3?2uefiworkspace?2edk2?2ShellPkg?2@ 00000000000c9d70     UefiShellLevel1CommandsLib:Exit.obj
 0002:00009de0       ??_C@_19FHBCDCCA@?$AAt?$AAy?$AAp?$AAe@ 00000000000c9de0     UefiShellLevel3CommandsLib:UefiShellLevel3CommandsLib.obj
 0002:00009df0       ??_C@_1M@BHMIOBAK@?$AAt?$AAo?$AAu?$AAc?$AAh@ 00000000000c9df0     UefiShellLevel3CommandsLib:UefiShellLevel3CommandsLib.obj
 0002:00009e00       ??_C@_17GJONEOHP@?$AAv?$AAe?$AAr@ 00000000000c9e00     UefiShellLevel3CommandsLib:UefiShellLevel3CommandsLib.obj
 0002:00009e08       ??_C@_1M@IJIAJFBE@?$AAa?$AAl?$AAi?$AAa?$AAs@ 00000000000c9e08     UefiShellLevel3CommandsLib:UefiShellLevel3CommandsLib.obj
 0002:00009e18       ??_C@_17MCAFEHJN@?$AAc?$AAl?$AAs@ 00000000000c9e18     UefiShellLevel3CommandsLib:UefiShellLevel3CommandsLib.obj
 0002:00009e20       ??_C@_19PCDNJFIH@?$AAe?$AAc?$AAh?$AAo@ 00000000000c9e20     UefiShellLevel3CommandsLib:UefiShellLevel3CommandsLib.obj
 0002:00009e30       ??_C@_1M@PLLLDAIA@?$AAp?$AAa?$AAu?$AAs?$AAe@ 00000000000c9e30     UefiShellLevel3CommandsLib:UefiShellLevel3CommandsLib.obj
 0002:00009e40       ??_C@_1O@HKMJDPHL@?$AAg?$AAe?$AAt?$AAm?$AAt?$AAc@ 00000000000c9e40     UefiShellLevel3CommandsLib:UefiShellLevel3CommandsLib.obj
 0002:00009e50       ??_C@_19FCEHBCGP@?$AAh?$AAe?$AAl?$AAp@ 00000000000c9e50     UefiShellLevel3CommandsLib:UefiShellLevel3CommandsLib.obj
 0002:00009e60       ??_C@_17ODEMGMPK@?$AAc?$AAa?$AAt@ 00000000000c9e60     UefiShellLevel3CommandsLib:UefiShellLevel3CommandsLib.obj
 0002:00009e68       gShellLevel3FileName       00000000000c9e68     UefiShellLevel3CommandsLib:UefiShellLevel3CommandsLib.obj
 0002:00009e88       ??_C@_1O@PAAFNODC@?$AA?9?$AAu?$AAs?$AAa?$AAg?$AAe@ 00000000000c9e88     UefiShellLevel3CommandsLib:Help.obj
 0002:00009e98       ??_C@_1BC@IFEILMPD@?$AA?9?$AAs?$AAe?$AAc?$AAt?$AAi?$AAo?$AAn@ 00000000000c9e98     UefiShellLevel3CommandsLib:Help.obj
 0002:00009eb0       ??_C@_1BC@CHGGHNLP@?$AA?9?$AAv?$AAe?$AAr?$AAb?$AAo?$AAs?$AAe@ 00000000000c9eb0     UefiShellLevel3CommandsLib:Help.obj
 0002:00009ed0       ??_C@_0EJ@MJHIHHEP@f?3?2uefiworkspace?2edk2?2ShellPkg?2@ 00000000000c9ed0     UefiShellLevel3CommandsLib:Help.obj
 0002:00009f20       ??_C@_0CD@FMCLKPKH@CommandToGetHelpOn?5?$DN?$DN?5?$CI?$CIvoid?5?$CK?$CJ@ 00000000000c9f20     UefiShellLevel3CommandsLib:Help.obj
 0002:00009f48       ??_C@_0CD@FDGHKIPP@SectionToGetHelpOn?5?$DN?$DN?5?$CI?$CIvoid?5?$CK?$CJ@ 00000000000c9f48     UefiShellLevel3CommandsLib:Help.obj
 0002:00009f70       ??_C@_19GGDNNDFE@?$AAN?$AAA?$AAM?$AAE@ 00000000000c9f70     UefiShellLevel3CommandsLib:Help.obj
 0002:00009f80       ??_C@_1BM@FNNGFIAF@?$AAN?$AAA?$AAM?$AAE?$AA?0?$AAS?$AAY?$AAN?$AAO?$AAP?$AAS?$AAI?$AAS@ 00000000000c9f80     UefiShellLevel3CommandsLib:Help.obj
 0002:00009fa0       ??_C@_1FG@FJOCLHCB@?$AAN?$AAA?$AAM?$AAE?$AA?0?$AAS?$AAY?$AAN?$AAO?$AAP?$AAS?$AAI?$AAS?$AA?0?$AAO@ 00000000000c9fa0     UefiShellLevel3CommandsLib:Help.obj
 0002:00009ff8       ??_C@_1BA@PIFIILLL@?$AAs?$AAp?$AAe?$AAc?$AAi?$AAa?$AAl@ 00000000000c9ff8     UefiShellLevel3CommandsLib:Help.obj
 0002:0000a060       ??_C@_0EJ@NPMFJODL@f?3?2uefiworkspace?2edk2?2ShellPkg?2@ 00000000000ca060     UefiShellLevel3CommandsLib:Type.obj
 0002:0000a0b0       ??_C@_1BA@FIDEGPKO@?$AA?9?$AAa?$AA?5?$AA?$CG?$AA?5?$AA?9?$AAu@ 00000000000ca0b0     UefiShellLevel3CommandsLib:Type.obj
 0002:0000a0c0       ??_C@_0BN@NBHLEDMH@ShellStatus?5?$DN?$DN?5SHELL_SUCCESS@ 00000000000ca0c0     UefiShellLevel3CommandsLib:Type.obj
 0002:0000a110       ??_C@_17NKPFGKKO@?$AA?9?$AAo?$AAn@ 00000000000ca110     UefiShellLevel3CommandsLib:Echo.obj
 0002:0000a118       ??_C@_19GPPNOJGG@?$AA?9?$AAo?$AAf?$AAf@ 00000000000ca118     UefiShellLevel3CommandsLib:Echo.obj
 0002:0000a130       ??_C@_0EJ@IDAMBEJL@f?3?2uefiworkspace?2edk2?2ShellPkg?2@ 00000000000ca130     UefiShellLevel3CommandsLib:Echo.obj
 0002:0000a1b0       ??_C@_0EK@KEEFPKLD@f?3?2uefiworkspace?2edk2?2ShellPkg?2@ 00000000000ca1b0     UefiShellLevel3CommandsLib:Pause.obj
 0002:0000a220       ??_C@_0EK@OCLKMAEL@f?3?2uefiworkspace?2edk2?2ShellPkg?2@ 00000000000ca220     UefiShellLevel3CommandsLib:Touch.obj
 0002:0000a290       ??_C@_0EL@IEEMPDMC@f?3?2uefiworkspace?2edk2?2ShellPkg?2@ 00000000000ca290     UefiShellLevel3CommandsLib:GetMtc.obj
 0002:0000a2e0       ??_C@_1O@CLGDBFLH@?$AA?9?$AAt?$AAe?$AAr?$AAs?$AAe@ 00000000000ca2e0     UefiShellLevel3CommandsLib:Ver.obj
 0002:0000a2f0       ??_C@_19KCGIGDCE@?$AA?9?$AA_?$AAp?$AAa@ 00000000000ca2f0     UefiShellLevel3CommandsLib:Ver.obj
 0002:0000a300       ??_C@_0EI@KADIICE@f?3?2uefiworkspace?2edk2?2ShellPkg?2@ 00000000000ca300     UefiShellLevel3CommandsLib:Ver.obj
 0002:0000a348       ??_C@_1BK@IMKBAMOC@?$AA?9?$AAt?$AA?5?$AAo?$AAr?$AA?5?$AA?9?$AAt?$AAe?$AAr?$AAs?$AAe@ 00000000000ca348     UefiShellLevel3CommandsLib:Ver.obj
 0002:0000a368       ??_C@_19DCIDACOG@?$AA?$CF?$AAd?$AA?$AN?$AA?6@ 00000000000ca368     UefiShellLevel3CommandsLib:Ver.obj
 0002:0000a3d0       ??_C@_0EK@GOMFKEIH@f?3?2uefiworkspace?2edk2?2ShellPkg?2@ 00000000000ca3d0     UefiShellLevel3CommandsLib:Alias.obj
 0002:0000a420       ??_C@_0N@NEOHOBAN@VolatileFlag@ 00000000000ca420     UefiShellLevel3CommandsLib:Alias.obj
 0002:0000a430       ??_C@_0M@PBEJAEMF@?$CBDeleteFlag@ 00000000000ca430     UefiShellLevel3CommandsLib:Alias.obj
 0002:0000a470       ??_C@_0EI@OMLEBOBI@f?3?2uefiworkspace?2edk2?2ShellPkg?2@ 00000000000ca470     UefiShellLevel3CommandsLib:Cls.obj
 0002:0000a4d8       ??_C@_1BA@DKNAEHKI@?$AAD?$AAr?$AAi?$AAv?$AAe?$AAr?$AA1@ 00000000000ca4d8     UefiShellDriver1CommandsLib:UefiShellDriver1CommandsLib.obj
 0002:0000a4e8       ??_C@_1BA@CFPPNJDF@?$AAc?$AAo?$AAn?$AAn?$AAe?$AAc?$AAt@ 00000000000ca4e8     UefiShellDriver1CommandsLib:UefiShellDriver1CommandsLib.obj
 0002:0000a4f8       ??_C@_1BA@GPBIKJID@?$AAd?$AAe?$AAv?$AAi?$AAc?$AAe?$AAs@ 00000000000ca4f8     UefiShellDriver1CommandsLib:UefiShellDriver1CommandsLib.obj
 0002:0000a508       ??_C@_1BC@MKFACHOA@?$AAo?$AAp?$AAe?$AAn?$AAi?$AAn?$AAf?$AAo@ 00000000000ca508     UefiShellDriver1CommandsLib:UefiShellDriver1CommandsLib.obj
 0002:0000a520       ??_C@_1BG@ILELFFEH@?$AAd?$AAi?$AAs?$AAc?$AAo?$AAn?$AAn?$AAe?$AAc?$AAt@ 00000000000ca520     UefiShellDriver1CommandsLib:UefiShellDriver1CommandsLib.obj
 0002:0000a538       ??_C@_1BE@MAKMINOO@?$AAr?$AAe?$AAc?$AAo?$AAn?$AAn?$AAe?$AAc?$AAt@ 00000000000ca538     UefiShellDriver1CommandsLib:UefiShellDriver1CommandsLib.obj
 0002:0000a550       ??_C@_1O@DEBHAOEE@?$AAu?$AAn?$AAl?$AAo?$AAa?$AAd@ 00000000000ca550     UefiShellDriver1CommandsLib:UefiShellDriver1CommandsLib.obj
 0002:0000a560       ??_C@_1BA@EMLDCKIJ@?$AAd?$AAr?$AAv?$AAd?$AAi?$AAa?$AAg@ 00000000000ca560     UefiShellDriver1CommandsLib:UefiShellDriver1CommandsLib.obj
 0002:0000a570       ??_C@_15CDMKMMPM@?$AAd?$AAh@ 00000000000ca570     UefiShellDriver1CommandsLib:UefiShellDriver1CommandsLib.obj
 0002:0000a578       ??_C@_1BA@BMPCKMGD@?$AAd?$AAr?$AAi?$AAv?$AAe?$AAr?$AAs@ 00000000000ca578     UefiShellDriver1CommandsLib:UefiShellDriver1CommandsLib.obj
 0002:0000a588       ??_C@_1BA@HICLJKCN@?$AAd?$AAe?$AAv?$AAt?$AAr?$AAe?$AAe@ 00000000000ca588     UefiShellDriver1CommandsLib:UefiShellDriver1CommandsLib.obj
 0002:0000a598       ??_C@_1O@KOCLOIBL@?$AAd?$AAr?$AAv?$AAc?$AAf?$AAg@ 00000000000ca598     UefiShellDriver1CommandsLib:UefiShellDriver1CommandsLib.obj
 0002:0000a5c8       ??_C@_1BA@DCMAKCEI@?$AAC?$AAo?$AAn?$AAn?$AAe?$AAc?$AAt@ 00000000000ca5c8     UefiShellDriver1CommandsLib:Connect.obj
 0002:0000a5e0       ??_C@_0EN@FAADIIHH@f?3?2uefiworkspace?2edk2?2ShellPkg?2@ 00000000000ca5e0     UefiShellDriver1CommandsLib:Connect.obj
 0002:0000a630       ??_C@_1BC@OBFMLJLI@?$AAC?$AAo?$AAn?$AAI?$AAn?$AAD?$AAe?$AAv@ 00000000000ca630     UefiShellDriver1CommandsLib:Connect.obj
 0002:0000a648       ??_C@_1BE@INNAKDAF@?$AAC?$AAo?$AAn?$AAO?$AAu?$AAt?$AAD?$AAe?$AAv@ 00000000000ca648     UefiShellDriver1CommandsLib:Connect.obj
 0002:0000a660       ??_C@_1BE@JFPOEAHF@?$AAE?$AAr?$AAr?$AAO?$AAu?$AAt?$AAD?$AAe?$AAv@ 00000000000ca660     UefiShellDriver1CommandsLib:Connect.obj
 0002:0000a678       ??_C@_1O@JOJMCOJC@?$AAE?$AAr?$AAr?$AAO?$AAu?$AAt@ 00000000000ca678     UefiShellDriver1CommandsLib:Connect.obj
 0002:0000a688       ??_C@_1M@NFPEGKHA@?$AAC?$AAo?$AAn?$AAI?$AAn@ 00000000000ca688     UefiShellDriver1CommandsLib:Connect.obj
 0002:0000a698       ??_C@_1O@MJHLOIFA@?$AAC?$AAo?$AAn?$AAO?$AAu?$AAt@ 00000000000ca698     UefiShellDriver1CommandsLib:Connect.obj
 0002:0000a6e0       ??_C@_0EN@IJMGCDIE@f?3?2uefiworkspace?2edk2?2ShellPkg?2@ 00000000000ca6e0     UefiShellDriver1CommandsLib:Devices.obj
 0002:0000a730       ??_C@_0BJ@IPMIFDC@Language?5?$DN?$DN?5?$CI?$CIvoid?5?$CK?$CJ?50?$CJ@ 00000000000ca730     UefiShellDriver1CommandsLib:Devices.obj
 0002:0000a750       ??_C@_0BL@LNNGAGCN@HandleList?5?$CB?$DN?5?$CI?$CIvoid?5?$CK?$CJ?50?$CJ@ 00000000000ca750     UefiShellDriver1CommandsLib:Devices.obj
 0002:0000a770       ??_C@_1BE@GFCJAFPH@?$AA?$DM?$AAU?$AAN?$AAK?$AAN?$AAO?$AAW?$AAN?$AA?$DO@ 00000000000ca770     UefiShellDriver1CommandsLib:Devices.obj
 0002:0000a7c0       ??_C@_0EM@NBFKIGCM@f?3?2uefiworkspace?2edk2?2ShellPkg?2@ 00000000000ca7c0     UefiShellDriver1CommandsLib:Unload.obj
 0002:0000a810       ??_C@_1O@PJHDHGJM@?$AAU?$AAn?$AAl?$AAo?$AAa?$AAd@ 00000000000ca810     UefiShellDriver1CommandsLib:Unload.obj
 0002:0000a860       ??_C@_0EP@PBBDNODM@f?3?2uefiworkspace?2edk2?2ShellPkg?2@ 00000000000ca860     UefiShellDriver1CommandsLib:Reconnect.obj
 0002:0000a8d0       ??_C@_0EO@CLECKMBD@f?3?2uefiworkspace?2edk2?2ShellPkg?2@ 00000000000ca8d0     UefiShellDriver1CommandsLib:OpenInfo.obj
 0002:0000a920       ??_C@_1BC@CAGGCOJA@?$AA?$CF?$AAH?$AA?$CF?$AAs?$AA?$CF?$AAN?$AA?$AN?$AA?6@ 00000000000ca920     UefiShellDriver1CommandsLib:OpenInfo.obj
 0002:0000aa00       ??_C@_0EN@HBPDGLBD@f?3?2uefiworkspace?2edk2?2ShellPkg?2@ 00000000000caa00     UefiShellDriver1CommandsLib:Drivers.obj
 0002:0000aa80       ??_C@_1EE@NHOEDGHC@?$AAg?$AAE?$AAf?$AAi?$AAD?$AAr?$AAi?$AAv?$AAe?$AAr?$AAD?$AAi?$AAa?$AAg?$AAn@ 00000000000caa80     UefiShellDriver1CommandsLib:DrvDiag.obj
 0002:0000aad0       ??_C@_1EG@EPGLAAKO@?$AAg?$AAE?$AAf?$AAi?$AAD?$AAr?$AAi?$AAv?$AAe?$AAr?$AAD?$AAi?$AAa?$AAg?$AAn@ 00000000000caad0     UefiShellDriver1CommandsLib:DrvDiag.obj
 0002:0000ab18       ??_C@_0CA@MFIJNLGK@ChildHandleList?5?$DN?$DN?5?$CI?$CIvoid?5?$CK?$CJ?50?$CJ@ 00000000000cab18     UefiShellDriver1CommandsLib:DrvDiag.obj
 0002:0000ab40       ??_C@_0EN@GEGNBBAO@f?3?2uefiworkspace?2edk2?2ShellPkg?2@ 00000000000cab40     UefiShellDriver1CommandsLib:DrvDiag.obj
 0002:0000ab90       ??_C@_1BA@BENBFCCE@?$AAD?$AAr?$AAv?$AAD?$AAi?$AAa?$AAg@ 00000000000cab90     UefiShellDriver1CommandsLib:DrvDiag.obj
 0002:0000aba0       ??_C@_15PJPHEPIF@?$AA?9?$AAe@ 00000000000caba0     UefiShellDriver1CommandsLib:DrvDiag.obj
 0002:0000aba8       ??_C@_15DMEDGHGK@?$AA?9?$AAm@ 00000000000caba8     UefiShellDriver1CommandsLib:DrvDiag.obj
 0002:0000ac10       ??_C@_15JODAOICI@?$AA?9?$AAp@ 00000000000cac10     UefiShellDriver1CommandsLib:Dh.obj
 0002:0000ac20       ??_C@_0EC@KKFLCAGI@?$CIRetVal?5?$DN?$DN?5?$CI?$CIvoid?5?$CK?$CJ?50?$CJ?5?$CG?$CG?5Size@ 00000000000cac20     UefiShellDriver1CommandsLib:Dh.obj
 0002:0000ac70       ??_C@_0EI@IOOKFKOJ@f?3?2uefiworkspace?2edk2?2ShellPkg?2@ 00000000000cac70     UefiShellDriver1CommandsLib:Dh.obj
 0002:0000acb8       ??_C@_17LJIPLNCC@?$AA?$CI?$AA?$CF?$AAH@ 00000000000cacb8     UefiShellDriver1CommandsLib:Dh.obj
 0002:0000acc0       ??_C@_15HCGDGKEF@?$AA?$CF?$AAp@ 00000000000cacc0     UefiShellDriver1CommandsLib:Dh.obj
 0002:0000acc8       ??_C@_17MDCDMHAM@?$AA?$CF?$AAN?$AA?$CJ@ 00000000000cacc8     UefiShellDriver1CommandsLib:Dh.obj
 0002:0000acd0       ??_C@_1BE@BGMELJBK@?$AA?$DM?$AAU?$AAn?$AAk?$AAn?$AAo?$AAw?$AAn?$AA?$DO@ 00000000000cacd0     UefiShellDriver1CommandsLib:Dh.obj
 0002:0000ace8       ??_C@_17FGJJPDOI@?$AAY?$AAE?$AAS@ 00000000000cace8     UefiShellDriver1CommandsLib:Dh.obj
 0002:0000acf0       ??_C@_15LIBIHNCL@?$AAN?$AAO@ 00000000000cacf0     UefiShellDriver1CommandsLib:Dh.obj
 0002:0000acf8       ??_C@_19OLEIDBPB@?$AAR?$AAO?$AAO?$AAT@ 00000000000cacf8     UefiShellDriver1CommandsLib:Dh.obj
 0002:0000ad08       ??_C@_17HEJONMAO@?$AAB?$AAU?$AAS@ 00000000000cad08     UefiShellDriver1CommandsLib:Dh.obj
 0002:0000ad10       ??_C@_1O@HJEPMBDG@?$AAD?$AAE?$AAV?$AAI?$AAC?$AAE@ 00000000000cad10     UefiShellDriver1CommandsLib:Dh.obj
 0002:0000ad20       ??_C@_1O@NLHFMLEA@?$AA?$DM?$AAN?$AAo?$AAn?$AAe?$AA?$DO@ 00000000000cad20     UefiShellDriver1CommandsLib:Dh.obj
 0002:0000ad30       ??_C@_17NDAAHGAG@?$AAB?$AAu?$AAs@ 00000000000cad30     UefiShellDriver1CommandsLib:Dh.obj
 0002:0000ad38       ??_C@_1O@HAMLNBEA@?$AAD?$AAe?$AAv?$AAi?$AAc?$AAe@ 00000000000cad38     UefiShellDriver1CommandsLib:Dh.obj
 0002:0000ad48       ??_C@_1BA@OBHGHNNB@?$AAD?$AAe?$AAv?$AAP?$AAa?$AAt?$AAh@ 00000000000cad48     UefiShellDriver1CommandsLib:Dh.obj
 0002:0000ad58       ??_C@_1BO@JHBAADC@?$AAC?$AAo?$AAn?$AAt?$AAr?$AAo?$AAl?$AAl?$AAe?$AAr?$AAN?$AAa?$AAm?$AAe@ 00000000000cad58     UefiShellDriver1CommandsLib:Dh.obj
 0002:0000ad78       ??_C@_1BG@LDKFKLIA@?$AAD?$AAr?$AAi?$AAv?$AAe?$AAr?$AAN?$AAa?$AAm?$AAe@ 00000000000cad78     UefiShellDriver1CommandsLib:Dh.obj
 0002:0000ad90       ??_C@_1BI@PIGGPLMC@?$AAH?$AAa?$AAn?$AAd?$AAl?$AAe?$AAs?$AAI?$AAn?$AAf?$AAo@ 00000000000cad90     UefiShellDriver1CommandsLib:Dh.obj
 0002:0000ada8       ??_C@_1BG@HBNBALLH@?$AAH?$AAa?$AAn?$AAd?$AAl?$AAe?$AAI?$AAn?$AAf?$AAo@ 00000000000cada8     UefiShellDriver1CommandsLib:Dh.obj
 0002:0000adc0       ??_C@_05DEHGPOPE@en?9us@   00000000000cadc0     UefiShellDriver1CommandsLib:Dh.obj
 0002:0000adc8       ??_C@_1O@KHECNKAL@?$AAd?$AAe?$AAc?$AAo?$AAd?$AAe@ 00000000000cadc8     UefiShellDriver1CommandsLib:Dh.obj
 0002:0000ae50       ??_C@_0EN@PNIKDOGL@f?3?2uefiworkspace?2edk2?2ShellPkg?2@ 00000000000cae50     UefiShellDriver1CommandsLib:DevTree.obj
 0002:0000aea0       ??_C@_0BK@IFBJPJNB@HiiString?5?$CB?$DN?5?$CI?$CIvoid?5?$CK?$CJ?50?$CJ@ 00000000000caea0     UefiShellDriver1CommandsLib:DevTree.obj
 0002:0000aec0       ??_C@_1BC@OEEOMJPG@?$AA?$CF?$AA?$CF?$AA?$CF?$AAd?$AAs?$AA?5?$AA?$CF?$AAs@ 00000000000caec0     UefiShellDriver1CommandsLib:DevTree.obj
 0002:0000aed8       ??_C@_1BA@LEPJIIOK@?$AAU?$AAn?$AAk?$AAn?$AAo?$AAw?$AAn@ 00000000000caed8     UefiShellDriver1CommandsLib:DevTree.obj
 0002:0000af18       ??_C@_0BJ@HMGEGPJ@DevPath1?5?$CB?$DN?5?$CI?$CIvoid?5?$CK?$CJ?50?$CJ@ 00000000000caf18     UefiShellDriver1CommandsLib:DrvCfg.obj
 0002:0000af40       ??_C@_0EM@FCKAIBEJ@f?3?2uefiworkspace?2edk2?2ShellPkg?2@ 00000000000caf40     UefiShellDriver1CommandsLib:DrvCfg.obj
 0002:0000af90       ??_C@_0BL@PMHHHLIM@?$CKHiiHandle?5?$DN?$DN?5?$CI?$CIvoid?5?$CK?$CJ?50?$CJ@ 00000000000caf90     UefiShellDriver1CommandsLib:DrvCfg.obj
 0002:0000afb0       ??_C@_0BG@GDKGJGL@HiiDb?5?$CB?$DN?5?$CI?$CIvoid?5?$CK?$CJ?50?$CJ@ 00000000000cafb0     UefiShellDriver1CommandsLib:DrvCfg.obj
 0002:0000afc8       ??_C@_1CO@BBNCKDAD@?$AAE?$AAf?$AAi?$AAH?$AAi?$AAi?$AAD?$AAa?$AAt?$AAa?$AAb?$AAa?$AAs?$AAe?$AAP@ 00000000000cafc8     UefiShellDriver1CommandsLib:DrvCfg.obj
 0002:0000aff8       ??_C@_1DO@DAJOAMHC@?$AAH?$AAi?$AAi?$AAD?$AAa?$AAt?$AAa?$AAb?$AAa?$AAs?$AAe?$AA?9?$AA?$DO?$AAU?$AAp@ 00000000000caff8     UefiShellDriver1CommandsLib:DrvCfg.obj
 0002:0000b038       ??_C@_1CA@BBCLIDIM@?$AAs?$AAt?$AAo?$AAp?$AA?5?$AAc?$AAo?$AAn?$AAt?$AAr?$AAo?$AAl?$AAl?$AAe?$AAr@ 00000000000cb038     UefiShellDriver1CommandsLib:DrvCfg.obj
 0002:0000b058       ??_C@_1BA@PKILJGND@?$AAs?$AAt?$AAo?$AAp?$AAp?$AAe?$AAd@ 00000000000cb058     UefiShellDriver1CommandsLib:DrvCfg.obj
 0002:0000b068       ??_C@_1BG@OACNEEF@?$AAc?$AAo?$AAn?$AAt?$AAr?$AAo?$AAl?$AAl?$AAe?$AAr@ 00000000000cb068     UefiShellDriver1CommandsLib:DrvCfg.obj
 0002:0000b080       ??_C@_1CG@MCGKPHJM@?$AAr?$AAe?$AAs?$AAt?$AAa?$AAr?$AAt?$AA?5?$AAc?$AAo?$AAn?$AAt?$AAr?$AAo?$AAl@ 00000000000cb080     UefiShellDriver1CommandsLib:DrvCfg.obj
 0002:0000b0a8       ??_C@_1BE@HGFGMPNB@?$AAr?$AAe?$AAs?$AAt?$AAa?$AAr?$AAt?$AAe?$AAd@ 00000000000cb0a8     UefiShellDriver1CommandsLib:DrvCfg.obj
 0002:0000b0c0       ??_C@_1BC@KDOFGLFF@?$AAp?$AAl?$AAa?$AAt?$AAf?$AAo?$AAr?$AAm@ 00000000000cb0c0     UefiShellDriver1CommandsLib:DrvCfg.obj
 0002:0000b0d8       ??_C@_1CC@PCBPHGE@?$AAr?$AAe?$AAs?$AAt?$AAa?$AAr?$AAt?$AA?5?$AAp?$AAl?$AAa?$AAt?$AAf?$AAo?$AAr@ 00000000000cb0d8     UefiShellDriver1CommandsLib:DrvCfg.obj
 0002:0000b100       ??_C@_0BI@NIPGFGFF@DriverImageHandleBuffer@ 00000000000cb100     UefiShellDriver1CommandsLib:DrvCfg.obj
 0002:0000b118       ??_C@_15JGEKKPOB@?$AA?9?$AAo@ 00000000000cb118     UefiShellDriver1CommandsLib:DrvCfg.obj
 0002:0000b1e0       ??_C@_0FA@JHLFOJN@f?3?2uefiworkspace?2edk2?2ShellPkg?2@ 00000000000cb1e0     UefiShellDriver1CommandsLib:Disconnect.obj
 0002:0000b230       ??_C@_0BH@BKMFDLMK@Param2?5?$CB?$DN?5?$CI?$CIvoid?5?$CK?$CJ?50?$CJ@ 00000000000cb230     UefiShellDriver1CommandsLib:Disconnect.obj
 0002:0000b248       ??_C@_1BM@PPEFOEMK@?$AAd?$AAr?$AAi?$AAv?$AAe?$AAr?$AA?5?$AAh?$AAa?$AAn?$AAd?$AAl?$AAe@ 00000000000cb248     UefiShellDriver1CommandsLib:Disconnect.obj
 0002:0000b268       ??_C@_0BH@PAEDOGKI@Param1?5?$CB?$DN?5?$CI?$CIvoid?5?$CK?$CJ?50?$CJ@ 00000000000cb268     UefiShellDriver1CommandsLib:Disconnect.obj
 0002:0000b280       ??_C@_1BG@DNEMHIE@?$AAD?$AAi?$AAs?$AAc?$AAo?$AAn?$AAn?$AAe?$AAc?$AAt@ 00000000000cb280     UefiShellDriver1CommandsLib:Disconnect.obj
 0002:0000b2c8       ??_C@_1O@KKGEAOFF@?$AAD?$AAe?$AAb?$AAu?$AAg?$AA1@ 00000000000cb2c8     UefiShellDebug1CommandsLib:UefiShellDebug1CommandsLib.obj
 0002:0000b2d8       ??_C@_1BA@LOEDEEBD@?$AAs?$AAe?$AAt?$AAs?$AAi?$AAz?$AAe@ 00000000000cb2d8     UefiShellDebug1CommandsLib:UefiShellDebug1CommandsLib.obj
 0002:0000b2e8       ??_C@_19PADLCGPF@?$AAc?$AAo?$AAm?$AAp@ 00000000000cb2e8     UefiShellDebug1CommandsLib:UefiShellDebug1CommandsLib.obj
 0002:0000b2f8       ??_C@_19KODKOACD@?$AAm?$AAo?$AAd?$AAe@ 00000000000cb2f8     UefiShellDebug1CommandsLib:UefiShellDebug1CommandsLib.obj
 0002:0000b308       ??_C@_1O@GCPCCEJL@?$AAm?$AAe?$AAm?$AAm?$AAa?$AAp@ 00000000000cb308     UefiShellDebug1CommandsLib:UefiShellDebug1CommandsLib.obj
 0002:0000b318       ??_C@_1BI@LAIPDGGL@?$AAe?$AAf?$AAi?$AAc?$AAo?$AAm?$AAp?$AAr?$AAe?$AAs?$AAs@ 00000000000cb318     UefiShellDebug1CommandsLib:UefiShellDebug1CommandsLib.obj
 0002:0000b330       ??_C@_1BM@PNCADKIC@?$AAe?$AAf?$AAi?$AAd?$AAe?$AAc?$AAo?$AAm?$AAp?$AAr?$AAe?$AAs?$AAs@ 00000000000cb330     UefiShellDebug1CommandsLib:UefiShellDebug1CommandsLib.obj
 0002:0000b350       ??_C@_19BOOCDHNO@?$AAd?$AAm?$AAe?$AAm@ 00000000000cb350     UefiShellDebug1CommandsLib:UefiShellDebug1CommandsLib.obj
 0002:0000b360       ??_C@_1BG@FNFDCN@?$AAl?$AAo?$AAa?$AAd?$AAp?$AAc?$AAi?$AAr?$AAo?$AAm@ 00000000000cb360     UefiShellDebug1CommandsLib:UefiShellDebug1CommandsLib.obj
 0002:0000b378       ??_C@_15DDBLGNAG@?$AAm?$AAm@ 00000000000cb378     UefiShellDebug1CommandsLib:UefiShellDebug1CommandsLib.obj
 0002:0000b380       ??_C@_1O@JPLIACKD@?$AAs?$AAe?$AAt?$AAv?$AAa?$AAr@ 00000000000cb380     UefiShellDebug1CommandsLib:UefiShellDebug1CommandsLib.obj
 0002:0000b390       ??_C@_1BA@JHKKDKME@?$AAs?$AAe?$AAr?$AAm?$AAo?$AAd?$AAe@ 00000000000cb390     UefiShellDebug1CommandsLib:UefiShellDebug1CommandsLib.obj
 0002:0000b3a0       ??_C@_17POMDHEHL@?$AAp?$AAc?$AAi@ 00000000000cb3a0     UefiShellDebug1CommandsLib:UefiShellDebug1CommandsLib.obj
 0002:0000b3a8       ??_C@_1BG@JEHOOHI@?$AAs?$AAm?$AAb?$AAi?$AAo?$AAs?$AAv?$AAi?$AAe?$AAw@ 00000000000cb3a8     UefiShellDebug1CommandsLib:UefiShellDebug1CommandsLib.obj
 0002:0000b3c0       ??_C@_1BC@EBEMDMHF@?$AAd?$AAm?$AAp?$AAs?$AAt?$AAo?$AAr?$AAe@ 00000000000cb3c0     UefiShellDebug1CommandsLib:UefiShellDebug1CommandsLib.obj
 0002:0000b3d8       ??_C@_19MFKGCLGG@?$AAd?$AAb?$AAl?$AAk@ 00000000000cb3d8     UefiShellDebug1CommandsLib:UefiShellDebug1CommandsLib.obj
 0002:0000b3e8       ??_C@_19LELMJPKF@?$AAe?$AAd?$AAi?$AAt@ 00000000000cb3e8     UefiShellDebug1CommandsLib:UefiShellDebug1CommandsLib.obj
 0002:0000b3f8       ??_C@_1BA@NLOHLIAA@?$AAh?$AAe?$AAx?$AAe?$AAd?$AAi?$AAt@ 00000000000cb3f8     UefiShellDebug1CommandsLib:UefiShellDebug1CommandsLib.obj
 0002:0000b408       ??_C@_17EAEGCEML@?$AAm?$AAe?$AAm@ 00000000000cb408     UefiShellDebug1CommandsLib:UefiShellDebug1CommandsLib.obj
 0002:0000b410       ??_C@_0FP@MIDFBAMH@f?3?2uefiworkspace?2edk2?2ShellPkg?2@ 00000000000cb410     UefiShellDebug1CommandsLib:UefiShellDebug1CommandsLib.obj
 0002:0000b470       ??_C@_1BK@OCGPFNFF@?$AAN?$AAe?$AAw?$AAF?$AAi?$AAl?$AAe?$AA?$CF?$AAd?$AA?4?$AA?$CF?$AAs@ 00000000000cb470     UefiShellDebug1CommandsLib:UefiShellDebug1CommandsLib.obj
 0002:0000b490       ??_C@_0CA@NNBOKEGB@CreateFile?5?$DN?$DN?5?$CI?$CIBOOLEAN?$CJ?$CI0?$DN?$DN1?$CJ?$CJ@ 00000000000cb490     UefiShellDebug1CommandsLib:UefiShellDebug1CommandsLib.obj
 0002:0000b4d0       ??_C@_1M@CBPNGAOL@?$AA?9?$AAm?$AAm?$AAi?$AAo@ 00000000000cb4d0     UefiShellDebug1CommandsLib:Dmem.obj
 0002:0000b4e0       ??_C@_0EJ@FNBIHBFF@f?3?2uefiworkspace?2edk2?2ShellPkg?2@ 00000000000cb4e0     UefiShellDebug1CommandsLib:Dmem.obj
 0002:0000b550       ??_C@_1BO@FHHPGHDB@?$AAP?$AAr?$AAe?$AA?5?$AA2?$AA?4?$AA0?$AA?5?$AAd?$AAe?$AAv?$AAi?$AAc?$AAe@ 00000000000cb550     UefiShellDebug1CommandsLib:Pci.obj
 0002:0000b570       ??_C@_1DA@LLLBNMP@?$AAM?$AAa?$AAs?$AAs?$AA?5?$AAS?$AAt?$AAo?$AAr?$AAa?$AAg?$AAe?$AA?5?$AAC?$AAo@ 00000000000cb570     UefiShellDebug1CommandsLib:Pci.obj
 0002:0000b5a0       ??_C@_1CG@DJOJHJK@?$AAN?$AAe?$AAt?$AAw?$AAo?$AAr?$AAk?$AA?5?$AAC?$AAo?$AAn?$AAt?$AAr?$AAo?$AAl@ 00000000000cb5a0     UefiShellDebug1CommandsLib:Pci.obj
 0002:0000b5c8       ??_C@_1CG@JJENDPNP@?$AAD?$AAi?$AAs?$AAp?$AAl?$AAa?$AAy?$AA?5?$AAC?$AAo?$AAn?$AAt?$AAr?$AAo?$AAl@ 00000000000cb5c8     UefiShellDebug1CommandsLib:Pci.obj
 0002:0000b5f0       ??_C@_1CE@KMCFHDII@?$AAM?$AAu?$AAl?$AAt?$AAi?$AAm?$AAe?$AAd?$AAi?$AAa?$AA?5?$AAD?$AAe?$AAv?$AAi@ 00000000000cb5f0     UefiShellDebug1CommandsLib:Pci.obj
 0002:0000b618       ??_C@_1CE@HHMPPPCO@?$AAM?$AAe?$AAm?$AAo?$AAr?$AAy?$AA?5?$AAC?$AAo?$AAn?$AAt?$AAr?$AAo?$AAl?$AAl@ 00000000000cb618     UefiShellDebug1CommandsLib:Pci.obj
 0002:0000b640       ??_C@_1BM@PEBPFOIH@?$AAB?$AAr?$AAi?$AAd?$AAg?$AAe?$AA?5?$AAD?$AAe?$AAv?$AAi?$AAc?$AAe@ 00000000000cb640     UefiShellDebug1CommandsLib:Pci.obj
 0002:0000b660       ??_C@_1EE@OJMDAEND@?$AAS?$AAi?$AAm?$AAp?$AAl?$AAe?$AA?5?$AAC?$AAo?$AAm?$AAm?$AAu?$AAn?$AAi?$AAc@ 00000000000cb660     UefiShellDebug1CommandsLib:Pci.obj
 0002:0000b6a8       ??_C@_1DA@JJPCHBJI@?$AAB?$AAa?$AAs?$AAe?$AA?5?$AAS?$AAy?$AAs?$AAt?$AAe?$AAm?$AA?5?$AAP?$AAe?$AAr@ 00000000000cb6a8     UefiShellDebug1CommandsLib:Pci.obj
 0002:0000b6d8       ??_C@_1BM@IPNGOEEO@?$AAI?$AAn?$AAp?$AAu?$AAt?$AA?5?$AAD?$AAe?$AAv?$AAi?$AAc?$AAe?$AAs@ 00000000000cb6d8     UefiShellDebug1CommandsLib:Pci.obj
 0002:0000b6f8       ??_C@_1CC@BFNJJODO@?$AAD?$AAo?$AAc?$AAk?$AAi?$AAn?$AAg?$AA?5?$AAS?$AAt?$AAa?$AAt?$AAi?$AAo?$AAn@ 00000000000cb6f8     UefiShellDebug1CommandsLib:Pci.obj
 0002:0000b720       ??_C@_1BG@EACBMCBE@?$AAP?$AAr?$AAo?$AAc?$AAe?$AAs?$AAs?$AAo?$AAr?$AAs@ 00000000000cb720     UefiShellDebug1CommandsLib:Pci.obj
 0002:0000b738       ??_C@_1CO@FGNBEBNP@?$AAS?$AAe?$AAr?$AAi?$AAa?$AAl?$AA?5?$AAB?$AAu?$AAs?$AA?5?$AAC?$AAo?$AAn?$AAt@ 00000000000cb738     UefiShellDebug1CommandsLib:Pci.obj
 0002:0000b768       ??_C@_1CK@EGCGOPBE@?$AAW?$AAi?$AAr?$AAe?$AAl?$AAe?$AAs?$AAs?$AA?5?$AAC?$AAo?$AAn?$AAt?$AAr?$AAo@ 00000000000cb768     UefiShellDebug1CommandsLib:Pci.obj
 0002:0000b798       ??_C@_1DG@MPIOKBPH@?$AAI?$AAn?$AAt?$AAe?$AAl?$AAl?$AAi?$AAg?$AAe?$AAn?$AAt?$AA?5?$AAI?$AAO?$AA?5@ 00000000000cb798     UefiShellDebug1CommandsLib:Pci.obj
 0002:0000b7d0       ??_C@_1EK@IEOCACFF@?$AAS?$AAa?$AAt?$AAe?$AAl?$AAl?$AAi?$AAt?$AAe?$AA?5?$AAC?$AAo?$AAm?$AAm?$AAu@ 00000000000cb7d0     UefiShellDebug1CommandsLib:Pci.obj
 0002:0000b820       ??_C@_1EE@LDCDGNDM@?$AAE?$AAn?$AAc?$AAr?$AAy?$AAp?$AAt?$AAi?$AAo?$AAn?$AA?1?$AAD?$AAe?$AAc?$AAr@ 00000000000cb820     UefiShellDebug1CommandsLib:Pci.obj
 0002:0000b870       ??_C@_1GC@PAEFCGGN@?$AAD?$AAa?$AAt?$AAa?$AA?5?$AAA?$AAc?$AAq?$AAu?$AAi?$AAs?$AAi?$AAt?$AAi?$AAo@ 00000000000cb870     UefiShellDebug1CommandsLib:Pci.obj
 0002:0000b8d8       ??_C@_1DA@IKKFKEGB@?$AAP?$AAr?$AAo?$AAc?$AAe?$AAs?$AAs?$AAi?$AAn?$AAg?$AA?5?$AAA?$AAc?$AAc?$AAe@ 00000000000cb8d8     UefiShellDebug1CommandsLib:Pci.obj
 0002:0000b908       ??_C@_1DM@FBKJCLED@?$AAN?$AAo?$AAn?$AA?9?$AAE?$AAs?$AAs?$AAe?$AAn?$AAt?$AAi?$AAa?$AAl?$AA?5?$AAI@ 00000000000cb908     UefiShellDebug1CommandsLib:Pci.obj
 0002:0000b950       ??_C@_1FG@FGDNODGF@?$AAD?$AAe?$AAv?$AAi?$AAc?$AAe?$AA?5?$AAd?$AAo?$AAe?$AAs?$AA?5?$AAn?$AAo?$AAt@ 00000000000cb950     UefiShellDebug1CommandsLib:Pci.obj
 0002:0000b9a8       ??_C@_1DG@EIEHDMIH@?$AAA?$AAl?$AAl?$AA?5?$AAd?$AAe?$AAv?$AAi?$AAc?$AAe?$AAs?$AA?5?$AAo?$AAt?$AAh@ 00000000000cb9a8     UefiShellDebug1CommandsLib:Pci.obj
 0002:0000b9e0       ??_C@_1CO@GHIDOIFO@?$AAV?$AAG?$AAA?$AA?9?$AAc?$AAo?$AAm?$AAp?$AAa?$AAt?$AAi?$AAb?$AAl?$AAe?$AA?5@ 00000000000cb9e0     UefiShellDebug1CommandsLib:Pci.obj
 0002:0000ba10       ??_C@_19IFECACCC@?$AAS?$AAC?$AAS?$AAI@ 00000000000cba10     UefiShellDebug1CommandsLib:Pci.obj
 0002:0000ba20       ??_C@_1BO@CGNFEKHE@?$AAI?$AAD?$AAE?$AA?5?$AAc?$AAo?$AAn?$AAt?$AAr?$AAo?$AAl?$AAl?$AAe?$AAr@ 00000000000cba20     UefiShellDebug1CommandsLib:Pci.obj
 0002:0000ba40       ??_C@_1CO@OCPABPEM@?$AAF?$AAl?$AAo?$AAp?$AAp?$AAy?$AA?5?$AAd?$AAi?$AAs?$AAk?$AA?5?$AAc?$AAo?$AAn@ 00000000000cba40     UefiShellDebug1CommandsLib:Pci.obj
 0002:0000ba70       ??_C@_1BO@EEOANELC@?$AAI?$AAP?$AAI?$AA?5?$AAc?$AAo?$AAn?$AAt?$AAr?$AAo?$AAl?$AAl?$AAe?$AAr@ 00000000000cba70     UefiShellDebug1CommandsLib:Pci.obj
 0002:0000ba90       ??_C@_1CA@LKIEKACD@?$AAR?$AAA?$AAI?$AAD?$AA?5?$AAc?$AAo?$AAn?$AAt?$AAr?$AAo?$AAl?$AAl?$AAe?$AAr@ 00000000000cba90     UefiShellDebug1CommandsLib:Pci.obj
 0002:0000bab0       ??_C@_1EG@LKIEOAKF@?$AAA?$AAT?$AAA?$AA?5?$AAc?$AAo?$AAn?$AAt?$AAr?$AAo?$AAl?$AAl?$AAe?$AAr?$AA?5@ 00000000000cbab0     UefiShellDebug1CommandsLib:Pci.obj
 0002:0000baf8       ??_C@_1CM@JHAKIJKJ@?$AAS?$AAe?$AAr?$AAi?$AAa?$AAl?$AA?5?$AAA?$AAT?$AAA?$AA?5?$AAc?$AAo?$AAn?$AAt@ 00000000000cbaf8     UefiShellDebug1CommandsLib:Pci.obj
 0002:0000bb30       ??_C@_1EO@DAJIOEPF@?$AAS?$AAe?$AAr?$AAi?$AAa?$AAl?$AA?5?$AAA?$AAt?$AAt?$AAa?$AAc?$AAh?$AAe?$AAd@ 00000000000cbb30     UefiShellDebug1CommandsLib:Pci.obj
 0002:0000bb80       ??_C@_1DM@PIFIGALG@?$AAN?$AAo?$AAn?$AA?9?$AAv?$AAo?$AAl?$AAa?$AAt?$AAi?$AAl?$AAe?$AA?5?$AAm?$AAe@ 00000000000cbb80     UefiShellDebug1CommandsLib:Pci.obj
 0002:0000bbc0       ??_C@_1FE@JNFDMGLF@?$AAU?$AAn?$AAi?$AAv?$AAe?$AAr?$AAs?$AAa?$AAl?$AA?5?$AAF?$AAl?$AAa?$AAs?$AAh@ 00000000000cbbc0     UefiShellDebug1CommandsLib:Pci.obj
 0002:0000bc18       ??_C@_1DM@GMADEAE@?$AAO?$AAt?$AAh?$AAe?$AAr?$AA?5?$AAm?$AAa?$AAs?$AAs?$AA?5?$AAs?$AAt?$AAo?$AAr@ 00000000000cbc18     UefiShellDebug1CommandsLib:Pci.obj
 0002:0000bc58       ??_C@_1CI@MKGCMDAM@?$AAE?$AAt?$AAh?$AAe?$AAr?$AAn?$AAe?$AAt?$AA?5?$AAc?$AAo?$AAn?$AAt?$AAr?$AAo@ 00000000000cbc58     UefiShellDebug1CommandsLib:Pci.obj
 0002:0000bc80       ??_C@_1CM@NBJAIACL@?$AAT?$AAo?$AAk?$AAe?$AAn?$AA?5?$AAr?$AAi?$AAn?$AAg?$AA?5?$AAc?$AAo?$AAn?$AAt@ 00000000000cbc80     UefiShellDebug1CommandsLib:Pci.obj
 0002:0000bcb0       ??_C@_1CA@IJNJEHLM@?$AAF?$AAD?$AAD?$AAI?$AA?5?$AAc?$AAo?$AAn?$AAt?$AAr?$AAo?$AAl?$AAl?$AAe?$AAr@ 00000000000cbcb0     UefiShellDebug1CommandsLib:Pci.obj
 0002:0000bcd0       ??_C@_1BO@FANFKIBJ@?$AAA?$AAT?$AAM?$AA?5?$AAc?$AAo?$AAn?$AAt?$AAr?$AAo?$AAl?$AAl?$AAe?$AAr@ 00000000000cbcd0     UefiShellDebug1CommandsLib:Pci.obj
 0002:0000bcf0       ??_C@_1CA@MPFFIPGB@?$AAI?$AAS?$AAD?$AAN?$AA?5?$AAc?$AAo?$AAn?$AAt?$AAr?$AAo?$AAl?$AAl?$AAe?$AAr@ 00000000000cbcf0     UefiShellDebug1CommandsLib:Pci.obj
 0002:0000bd10       ??_C@_1CI@ODICNMOO@?$AAW?$AAo?$AAr?$AAl?$AAd?$AAF?$AAi?$AAp?$AA?5?$AAc?$AAo?$AAn?$AAt?$AAr?$AAo@ 00000000000cbd10     UefiShellDebug1CommandsLib:Pci.obj
 0002:0000bd38       ??_C@_1DG@HDLKGLB@?$AAP?$AAI?$AAC?$AAM?$AAG?$AA?5?$AA2?$AA?4?$AA1?$AA4?$AA?5?$AAM?$AAu?$AAl?$AAt@ 00000000000cbd38     UefiShellDebug1CommandsLib:Pci.obj
 0002:0000bd70       ??_C@_1CM@POJFDLKO@?$AAI?$AAn?$AAf?$AAi?$AAn?$AAi?$AAB?$AAa?$AAn?$AAd?$AA?5?$AAc?$AAo?$AAn?$AAt@ 00000000000cbd70     UefiShellDebug1CommandsLib:Pci.obj
 0002:0000bda0       ??_C@_1DC@POIFFGNG@?$AAO?$AAt?$AAh?$AAe?$AAr?$AA?5?$AAn?$AAe?$AAt?$AAw?$AAo?$AAr?$AAk?$AA?5?$AAc@ 00000000000cbda0     UefiShellDebug1CommandsLib:Pci.obj
 0002:0000bdd8       ??_C@_1CI@IOIIPJMI@?$AAV?$AAG?$AAA?$AA?1?$AA8?$AA5?$AA1?$AA4?$AA?5?$AAc?$AAo?$AAn?$AAt?$AAr?$AAo@ 00000000000cbdd8     UefiShellDebug1CommandsLib:Pci.obj
 0002:0000be00       ??_C@_1BO@ECBDAEIH@?$AAX?$AAG?$AAA?$AA?5?$AAc?$AAo?$AAn?$AAt?$AAr?$AAo?$AAl?$AAl?$AAe?$AAr@ 00000000000cbe00     UefiShellDebug1CommandsLib:Pci.obj
 0002:0000be20       ??_C@_1BM@BJPNGIJM@?$AA3?$AAD?$AA?5?$AAc?$AAo?$AAn?$AAt?$AAr?$AAo?$AAl?$AAl?$AAe?$AAr@ 00000000000cbe20     UefiShellDebug1CommandsLib:Pci.obj
 0002:0000be40       ??_C@_1DC@GEFGPOJD@?$AAO?$AAt?$AAh?$AAe?$AAr?$AA?5?$AAd?$AAi?$AAs?$AAp?$AAl?$AAa?$AAy?$AA?5?$AAc@ 00000000000cbe40     UefiShellDebug1CommandsLib:Pci.obj
 0002:0000be78       ??_C@_1BK@FPJMHJC@?$AAV?$AAi?$AAd?$AAe?$AAo?$AA?5?$AAd?$AAe?$AAv?$AAi?$AAc?$AAe@ 00000000000cbe78     UefiShellDebug1CommandsLib:Pci.obj
 0002:0000be98       ??_C@_1BK@GADOAHPL@?$AAA?$AAu?$AAd?$AAi?$AAo?$AA?5?$AAd?$AAe?$AAv?$AAi?$AAc?$AAe@ 00000000000cbe98     UefiShellDebug1CommandsLib:Pci.obj
 0002:0000beb8       ??_C@_1DE@DHNAOJDN@?$AAC?$AAo?$AAm?$AAp?$AAu?$AAt?$AAe?$AAr?$AA?5?$AAT?$AAe?$AAl?$AAe?$AAp?$AAh@ 00000000000cbeb8     UefiShellDebug1CommandsLib:Pci.obj
 0002:0000bef0       ??_C@_1CE@LALKIPBB@?$AAM?$AAi?$AAx?$AAe?$AAd?$AA?5?$AAm?$AAo?$AAd?$AAe?$AA?5?$AAd?$AAe?$AAv?$AAi@ 00000000000cbef0     UefiShellDebug1CommandsLib:Pci.obj
 0002:0000bf18       ??_C@_1DA@JPDDOFFC@?$AAO?$AAt?$AAh?$AAe?$AAr?$AA?5?$AAm?$AAu?$AAl?$AAt?$AAi?$AAm?$AAe?$AAd?$AAi@ 00000000000cbf18     UefiShellDebug1CommandsLib:Pci.obj
 0002:0000bf48       ??_C@_1CM@CDONCKCE@?$AAR?$AAA?$AAM?$AA?5?$AAm?$AAe?$AAm?$AAo?$AAr?$AAy?$AA?5?$AAc?$AAo?$AAn?$AAt@ 00000000000cbf48     UefiShellDebug1CommandsLib:Pci.obj
 0002:0000bf78       ??_C@_1DA@BLKLFNMJ@?$AAF?$AAl?$AAa?$AAs?$AAh?$AA?5?$AAm?$AAe?$AAm?$AAo?$AAr?$AAy?$AA?5?$AAc?$AAo@ 00000000000cbf78     UefiShellDebug1CommandsLib:Pci.obj
 0002:0000bfa8       ??_C@_1DA@BCCIDOP@?$AAO?$AAt?$AAh?$AAe?$AAr?$AA?5?$AAm?$AAe?$AAm?$AAo?$AAr?$AAy?$AA?5?$AAc?$AAo@ 00000000000cbfa8     UefiShellDebug1CommandsLib:Pci.obj
 0002:0000bfd8       ??_C@_1CA@PJEDLLCL@?$AAH?$AAo?$AAs?$AAt?$AA?1?$AAP?$AAC?$AAI?$AA?5?$AAb?$AAr?$AAi?$AAd?$AAg?$AAe@ 00000000000cbfd8     UefiShellDebug1CommandsLib:Pci.obj
 0002:0000bff8       ??_C@_1BO@KJACFBI@?$AAP?$AAC?$AAI?$AA?1?$AAI?$AAS?$AAA?$AA?5?$AAb?$AAr?$AAi?$AAd?$AAg?$AAe@ 00000000000cbff8     UefiShellDebug1CommandsLib:Pci.obj
 0002:0000c018       ??_C@_1CA@OGMGGONI@?$AAP?$AAC?$AAI?$AA?1?$AAE?$AAI?$AAS?$AAA?$AA?5?$AAb?$AAr?$AAi?$AAd?$AAg?$AAe@ 00000000000cc018     UefiShellDebug1CommandsLib:Pci.obj
 0002:0000c038       ??_C@_1DC@PGKAHCKF@?$AAP?$AAC?$AAI?$AA?1?$AAM?$AAi?$AAc?$AAr?$AAo?$AA?5?$AAC?$AAh?$AAa?$AAn?$AAn@ 00000000000cc038     UefiShellDebug1CommandsLib:Pci.obj
 0002:0000c070       ??_C@_1BO@PKJLCILA@?$AAP?$AAC?$AAI?$AA?1?$AAP?$AAC?$AAI?$AA?5?$AAb?$AAr?$AAi?$AAd?$AAg?$AAe@ 00000000000cc070     UefiShellDebug1CommandsLib:Pci.obj
 0002:0000c090       ??_C@_1CE@FCMDMIFD@?$AAP?$AAC?$AAI?$AA?1?$AAP?$AAC?$AAM?$AAC?$AAI?$AAA?$AA?5?$AAb?$AAr?$AAi?$AAd@ 00000000000cc090     UefiShellDebug1CommandsLib:Pci.obj
 0002:0000c0b8       ??_C@_1BK@EAGDOIJJ@?$AAN?$AAu?$AAB?$AAu?$AAs?$AA?5?$AAb?$AAr?$AAi?$AAd?$AAg?$AAe@ 00000000000cc0b8     UefiShellDebug1CommandsLib:Pci.obj
 0002:0000c0d8       ??_C@_1BO@ENOKOIAD@?$AAC?$AAa?$AAr?$AAd?$AAB?$AAu?$AAs?$AA?5?$AAb?$AAr?$AAi?$AAd?$AAg?$AAe@ 00000000000cc0d8     UefiShellDebug1CommandsLib:Pci.obj
 0002:0000c0f8       ??_C@_1BO@FMPPOIBL@?$AAR?$AAA?$AAC?$AAE?$AAw?$AAa?$AAy?$AA?5?$AAb?$AAr?$AAi?$AAd?$AAg?$AAe@ 00000000000cc0f8     UefiShellDebug1CommandsLib:Pci.obj
 0002:0000c120       ??_C@_1EG@KGEAMFNP@?$AAS?$AAe?$AAm?$AAi?$AA?9?$AAt?$AAr?$AAa?$AAn?$AAs?$AAp?$AAa?$AAr?$AAe?$AAn@ 00000000000cc120     UefiShellDebug1CommandsLib:Pci.obj
 0002:0000c168       ??_C@_1DM@EABGMKAJ@?$AAI?$AAn?$AAf?$AAi?$AAn?$AAi?$AAB?$AAa?$AAn?$AAd?$AA?9?$AAt?$AAo?$AA?9?$AAP@ 00000000000cc168     UefiShellDebug1CommandsLib:Pci.obj
 0002:0000c1b0       ??_C@_1EM@OLOAJOAL@?$AAA?$AAd?$AAv?$AAa?$AAn?$AAc?$AAe?$AAd?$AA?5?$AAS?$AAw?$AAi?$AAt?$AAc?$AAh@ 00000000000cc1b0     UefiShellDebug1CommandsLib:Pci.obj
 0002:0000c200       ??_C@_1CE@NEKBIMIP@?$AAO?$AAt?$AAh?$AAe?$AAr?$AA?5?$AAb?$AAr?$AAi?$AAd?$AAg?$AAe?$AA?5?$AAt?$AAy@ 00000000000cc200     UefiShellDebug1CommandsLib:Pci.obj
 0002:0000c228       ??_C@_1CE@BGLBPGLN@?$AAS?$AAe?$AAr?$AAi?$AAa?$AAl?$AA?5?$AAc?$AAo?$AAn?$AAt?$AAr?$AAo?$AAl?$AAl@ 00000000000cc228     UefiShellDebug1CommandsLib:Pci.obj
 0002:0000c250       ??_C@_1BM@CJCKEIPF@?$AAP?$AAa?$AAr?$AAa?$AAl?$AAl?$AAe?$AAl?$AA?5?$AAp?$AAo?$AAr?$AAt@ 00000000000cc250     UefiShellDebug1CommandsLib:Pci.obj
 0002:0000c270       ??_C@_1DI@PLEGPFLG@?$AAM?$AAu?$AAl?$AAt?$AAi?$AAp?$AAo?$AAr?$AAt?$AA?5?$AAs?$AAe?$AAr?$AAi?$AAa@ 00000000000cc270     UefiShellDebug1CommandsLib:Pci.obj
 0002:0000c2a8       ??_C@_1M@MPNOMPAF@?$AAM?$AAo?$AAd?$AAe?$AAm@ 00000000000cc2a8     UefiShellDebug1CommandsLib:Pci.obj
 0002:0000c2b8       ??_C@_1DO@IJFMBKM@?$AAG?$AAP?$AAI?$AAB?$AA?5?$AA?$CI?$AAI?$AAE?$AAE?$AAE?$AA?5?$AA4?$AA8?$AA8?$AA?4@ 00000000000cc2b8     UefiShellDebug1CommandsLib:Pci.obj
 0002:0000c2f8       ??_C@_1BG@LEINKDBM@?$AAS?$AAm?$AAa?$AAr?$AAt?$AA?5?$AAC?$AAa?$AAr?$AAd@ 00000000000cc2f8     UefiShellDebug1CommandsLib:Pci.obj
 0002:0000c310       ??_C@_1DG@CJEOCFGB@?$AAO?$AAt?$AAh?$AAe?$AAr?$AA?5?$AAc?$AAo?$AAm?$AAm?$AAu?$AAn?$AAi?$AAc?$AAa@ 00000000000cc310     UefiShellDebug1CommandsLib:Pci.obj
 0002:0000c348       ??_C@_17GOANHPCH@?$AAP?$AAI?$AAC@ 00000000000cc348     UefiShellDebug1CommandsLib:Pci.obj
 0002:0000c350       ??_C@_1BO@PFMOLIHG@?$AAD?$AAM?$AAA?$AA?5?$AAc?$AAo?$AAn?$AAt?$AAr?$AAo?$AAl?$AAl?$AAe?$AAr@ 00000000000cc350     UefiShellDebug1CommandsLib:Pci.obj
 0002:0000c370       ??_C@_1BK@ENPFJMHF@?$AAS?$AAy?$AAs?$AAt?$AAe?$AAm?$AA?5?$AAt?$AAi?$AAm?$AAe?$AAr@ 00000000000cc370     UefiShellDebug1CommandsLib:Pci.obj
 0002:0000c390       ??_C@_1BO@OGPEBAO@?$AAR?$AAT?$AAC?$AA?5?$AAc?$AAo?$AAn?$AAt?$AAr?$AAo?$AAl?$AAl?$AAe?$AAr@ 00000000000cc390     UefiShellDebug1CommandsLib:Pci.obj
 0002:0000c3b0       ??_C@_1EA@CDECOACP@?$AAG?$AAe?$AAn?$AAe?$AAr?$AAi?$AAc?$AA?5?$AAP?$AAC?$AAI?$AA?5?$AAH?$AAo?$AAt@ 00000000000cc3b0     UefiShellDebug1CommandsLib:Pci.obj
 0002:0000c3f0       ??_C@_1CG@KIGJEEJF@?$AAS?$AAD?$AA?5?$AAH?$AAo?$AAs?$AAt?$AA?5?$AAc?$AAo?$AAn?$AAt?$AAr?$AAo?$AAl@ 00000000000cc3f0     UefiShellDebug1CommandsLib:Pci.obj
 0002:0000c418       ??_C@_1M@LLNMNJMC@?$AAI?$AAO?$AAM?$AAM?$AAU@ 00000000000cc418     UefiShellDebug1CommandsLib:Pci.obj
 0002:0000c428       ??_C@_1DK@FAENCBAC@?$AAR?$AAo?$AAo?$AAt?$AA?5?$AAC?$AAo?$AAm?$AAp?$AAl?$AAe?$AAx?$AA?5?$AAE?$AAv@ 00000000000cc428     UefiShellDebug1CommandsLib:Pci.obj
 0002:0000c468       ??_C@_1DA@EFOIJPG@?$AAO?$AAt?$AAh?$AAe?$AAr?$AA?5?$AAs?$AAy?$AAs?$AAt?$AAe?$AAm?$AA?5?$AAp?$AAe@ 00000000000cc468     UefiShellDebug1CommandsLib:Pci.obj
 0002:0000c498       ??_C@_1CI@BAKBKHNI@?$AAK?$AAe?$AAy?$AAb?$AAo?$AAa?$AAr?$AAd?$AA?5?$AAc?$AAo?$AAn?$AAt?$AAr?$AAo@ 00000000000cc498     UefiShellDebug1CommandsLib:Pci.obj
 0002:0000c4c0       ??_C@_1CA@KMFJBDH@?$AAD?$AAi?$AAg?$AAi?$AAt?$AAi?$AAz?$AAe?$AAr?$AA?5?$AA?$CI?$AAp?$AAe?$AAn?$AA?$CJ@ 00000000000cc4c0     UefiShellDebug1CommandsLib:Pci.obj
 0002:0000c4e0       ??_C@_1CC@FCDLEDHK@?$AAM?$AAo?$AAu?$AAs?$AAe?$AA?5?$AAc?$AAo?$AAn?$AAt?$AAr?$AAo?$AAl?$AAl?$AAe@ 00000000000cc4e0     UefiShellDebug1CommandsLib:Pci.obj
 0002:0000c508       ??_C@_1CG@DBNALJHF@?$AAS?$AAc?$AAa?$AAn?$AAn?$AAe?$AAr?$AA?5?$AAc?$AAo?$AAn?$AAt?$AAr?$AAo?$AAl@ 00000000000cc508     UefiShellDebug1CommandsLib:Pci.obj
 0002:0000c530       ??_C@_1CI@JKMDFCJL@?$AAG?$AAa?$AAm?$AAe?$AAp?$AAo?$AAr?$AAt?$AA?5?$AAc?$AAo?$AAn?$AAt?$AAr?$AAo@ 00000000000cc530     UefiShellDebug1CommandsLib:Pci.obj
 0002:0000c558       ??_C@_1CO@PNNLGBCE@?$AAO?$AAt?$AAh?$AAe?$AAr?$AA?5?$AAi?$AAn?$AAp?$AAu?$AAt?$AA?5?$AAc?$AAo?$AAn@ 00000000000cc558     UefiShellDebug1CommandsLib:Pci.obj
 0002:0000c588       ??_C@_1DA@BIIEBDGB@?$AAG?$AAe?$AAn?$AAe?$AAr?$AAi?$AAc?$AA?5?$AAd?$AAo?$AAc?$AAk?$AAi?$AAn?$AAg@ 00000000000cc588     UefiShellDebug1CommandsLib:Pci.obj
 0002:0000c5b8       ??_C@_1DM@GALPNCIO@?$AAO?$AAt?$AAh?$AAe?$AAr?$AA?5?$AAt?$AAy?$AAp?$AAe?$AA?5?$AAo?$AAf?$AA?5?$AAd@ 00000000000cc5b8     UefiShellDebug1CommandsLib:Pci.obj
 0002:0000c5f8       ??_C@_17KMPGFGLF@?$AA3?$AA8?$AA6@ 00000000000cc5f8     UefiShellDebug1CommandsLib:Pci.obj
 0002:0000c600       ??_C@_17KGDDFPKM@?$AA4?$AA8?$AA6@ 00000000000cc600     UefiShellDebug1CommandsLib:Pci.obj
 0002:0000c608       ??_C@_1BA@LAKFAPEC@?$AAP?$AAe?$AAn?$AAt?$AAi?$AAu?$AAm@ 00000000000cc608     UefiShellDebug1CommandsLib:Pci.obj
 0002:0000c618       ??_C@_1M@CPFKKKDA@?$AAA?$AAl?$AAp?$AAh?$AAa@ 00000000000cc618     UefiShellDebug1CommandsLib:Pci.obj
 0002:0000c628       ??_C@_1BA@NBCIJJH@?$AAP?$AAo?$AAw?$AAe?$AAr?$AAP?$AAC@ 00000000000cc628     UefiShellDebug1CommandsLib:Pci.obj
 0002:0000c638       ??_C@_19JENFGKOE@?$AAM?$AAI?$AAP?$AAS@ 00000000000cc638     UefiShellDebug1CommandsLib:Pci.obj
 0002:0000c648       ??_C@_1BK@NEHJAFMH@?$AAC?$AAo?$AA?9?$AAp?$AAr?$AAo?$AAc?$AAe?$AAs?$AAs?$AAo?$AAr@ 00000000000cc648     UefiShellDebug1CommandsLib:Pci.obj
 0002:0000c668       ??_C@_1CA@GFOGEFGB@?$AAO?$AAt?$AAh?$AAe?$AAr?$AA?5?$AAp?$AAr?$AAo?$AAc?$AAe?$AAs?$AAs?$AAo?$AAr@ 00000000000cc668     UefiShellDebug1CommandsLib:Pci.obj
 0002:0000c688       ??_C@_1BE@DKFKNFJE@?$AAI?$AAE?$AAE?$AAE?$AA?5?$AA1?$AA3?$AA9?$AA4@ 00000000000cc688     UefiShellDebug1CommandsLib:Pci.obj
 0002:0000c6a0       ??_C@_1BG@OFHNADDF@?$AAA?$AAC?$AAC?$AAE?$AAS?$AAS?$AA?4?$AAb?$AAu?$AAs@ 00000000000cc6a0     UefiShellDebug1CommandsLib:Pci.obj
 0002:0000c6b8       ??_C@_17OIMGJBLC@?$AAS?$AAS?$AAA@ 00000000000cc6b8     UefiShellDebug1CommandsLib:Pci.obj
 0002:0000c6c0       ??_C@_1BM@FLLLFMPO@?$AAF?$AAi?$AAb?$AAr?$AAe?$AA?5?$AAC?$AAh?$AAa?$AAn?$AAn?$AAe?$AAl@ 00000000000cc6c0     UefiShellDebug1CommandsLib:Pci.obj
 0002:0000c6e0       ??_C@_1CM@OLOJIGK@?$AAS?$AAy?$AAs?$AAt?$AAe?$AAm?$AA?5?$AAM?$AAa?$AAn?$AAa?$AAg?$AAe?$AAm?$AAe@ 00000000000cc6e0     UefiShellDebug1CommandsLib:Pci.obj
 0002:0000c710       ??_C@_1BG@PKILJGBI@?$AAI?$AAn?$AAf?$AAi?$AAn?$AAi?$AAB?$AAa?$AAn?$AAd@ 00000000000cc710     UefiShellDebug1CommandsLib:Pci.obj
 0002:0000c728       ??_C@_19HOCGEGCA@?$AAI?$AAP?$AAM?$AAI@ 00000000000cc728     UefiShellDebug1CommandsLib:Pci.obj
 0002:0000c740       ??_C@_1EM@LAEBEEFJ@?$AAS?$AAE?$AAR?$AAC?$AAO?$AAS?$AA?5?$AAI?$AAn?$AAt?$AAe?$AAr?$AAf?$AAa?$AAc@ 00000000000cc740     UefiShellDebug1CommandsLib:Pci.obj
 0002:0000c790       ??_C@_1O@IIICKMFI@?$AAC?$AAA?$AAN?$AAb?$AAu?$AAs@ 00000000000cc790     UefiShellDebug1CommandsLib:Pci.obj
 0002:0000c7a0       ??_C@_1BO@FPNLADDK@?$AAO?$AAt?$AAh?$AAe?$AAr?$AA?5?$AAb?$AAu?$AAs?$AA?5?$AAt?$AAy?$AAp?$AAe@ 00000000000cc7a0     UefiShellDebug1CommandsLib:Pci.obj
 0002:0000c7c0       ??_C@_1DG@DBOMLJPI@?$AAi?$AAR?$AAD?$AAA?$AA?5?$AAc?$AAo?$AAm?$AAp?$AAa?$AAt?$AAi?$AAb?$AAl?$AAe@ 00000000000cc7c0     UefiShellDebug1CommandsLib:Pci.obj
 0002:0000c7f8       ??_C@_1BM@FGMCDKAO@?$AAR?$AAF?$AA?5?$AAc?$AAo?$AAn?$AAt?$AAr?$AAo?$AAl?$AAl?$AAe?$AAr@ 00000000000cc7f8     UefiShellDebug1CommandsLib:Pci.obj
 0002:0000c818       ??_C@_1BE@BGEOEKA@?$AAB?$AAr?$AAo?$AAa?$AAd?$AAb?$AAa?$AAn?$AAd@ 00000000000cc818     UefiShellDebug1CommandsLib:Pci.obj
 0002:0000c830       ??_C@_1DG@HAKEKOOP@?$AAE?$AAt?$AAh?$AAe?$AAr?$AAn?$AAe?$AAt?$AA?5?$AA?$CI?$AA8?$AA0?$AA2?$AA?4?$AA1@ 00000000000cc830     UefiShellDebug1CommandsLib:Pci.obj
 0002:0000c868       ??_C@_1DK@LKPANDDE@?$AAE?$AAt?$AAh?$AAe?$AAr?$AAn?$AAe?$AAt?$AA?5?$AA?$CI?$AA8?$AA0?$AA2?$AA?4?$AA1@ 00000000000cc868     UefiShellDebug1CommandsLib:Pci.obj
 0002:0000c8b0       ??_C@_1EE@PIAOLOPJ@?$AAO?$AAt?$AAh?$AAe?$AAr?$AA?5?$AAt?$AAy?$AAp?$AAe?$AA?5?$AAo?$AAf?$AA?5?$AAw@ 00000000000cc8b0     UefiShellDebug1CommandsLib:Pci.obj
 0002:0000c8f8       ??_C@_1CC@MJHFFKLA@?$AAI?$AA2?$AAO?$AA?5?$AAA?$AAr?$AAc?$AAh?$AAi?$AAt?$AAe?$AAc?$AAt?$AAu?$AAr@ 00000000000cc8f8     UefiShellDebug1CommandsLib:Pci.obj
 0002:0000c91c       ??_C@_15DHEEEEMD@?$AAT?$AAV@ 00000000000cc91c     UefiShellDebug1CommandsLib:Pci.obj
 0002:0000c928       ??_C@_1M@CHJDJLFF@?$AAA?$AAu?$AAd?$AAi?$AAo@ 00000000000cc928     UefiShellDebug1CommandsLib:Pci.obj
 0002:0000c938       ??_C@_1M@DKLMFINE@?$AAV?$AAo?$AAi?$AAc?$AAe@ 00000000000cc938     UefiShellDebug1CommandsLib:Pci.obj
 0002:0000c948       ??_C@_19IEEMEPMH@?$AAD?$AAa?$AAt?$AAa@ 00000000000cc948     UefiShellDebug1CommandsLib:Pci.obj
 0002:0000c960       ??_C@_1FC@PHCKLFJE@?$AAO?$AAt?$AAh?$AAe?$AAr?$AA?5?$AAs?$AAa?$AAt?$AAe?$AAl?$AAl?$AAi?$AAt?$AAe@ 00000000000cc960     UefiShellDebug1CommandsLib:Pci.obj
 0002:0000c9c0       ??_C@_1EI@GIMDOGOI@?$AAN?$AAe?$AAt?$AAw?$AAo?$AAr?$AAk?$AA?5?$AA?$CG?$AA?5?$AAc?$AAo?$AAm?$AAp?$AAu@ 00000000000cc9c0     UefiShellDebug1CommandsLib:Pci.obj
 0002:0000ca08       ??_C@_1DM@IIOOLDOK@?$AAE?$AAn?$AAt?$AAe?$AAr?$AAt?$AAa?$AAi?$AAn?$AAm?$AAe?$AAn?$AAt?$AA?5?$AAE@ 00000000000cca08     UefiShellDebug1CommandsLib:Pci.obj
 0002:0000ca48       ??_C@_1CM@JNEDPPDM@?$AAO?$AAt?$AAh?$AAe?$AAr?$AA?5?$AAE?$AAn?$AAc?$AAr?$AAy?$AAp?$AAt?$AA?1?$AAD@ 00000000000cca48     UefiShellDebug1CommandsLib:Pci.obj
 0002:0000ca78       ??_C@_1BK@OAGPPFHN@?$AAD?$AAP?$AAI?$AAO?$AA?5?$AAm?$AAo?$AAd?$AAu?$AAl?$AAe?$AAs@ 00000000000cca78     UefiShellDebug1CommandsLib:Pci.obj
 0002:0000ca98       ??_C@_1CK@LCFFEOGH@?$AAP?$AAe?$AAr?$AAf?$AAo?$AAr?$AAm?$AAa?$AAn?$AAc?$AAe?$AA?5?$AAC?$AAo?$AAu@ 00000000000cca98     UefiShellDebug1CommandsLib:Pci.obj
 0002:0000cad0       ??_C@_1JC@NCFHMIHP@?$AAC?$AAo?$AAm?$AAm?$AAu?$AAn?$AAi?$AAc?$AAa?$AAt?$AAi?$AAo?$AAn?$AAs?$AA?5@ 00000000000ccad0     UefiShellDebug1CommandsLib:Pci.obj
 0002:0000cb68       ??_C@_1CA@JGEMEBBN@?$AAM?$AAa?$AAn?$AAa?$AAg?$AAe?$AAm?$AAe?$AAn?$AAt?$AA?5?$AAc?$AAa?$AAr?$AAd@ 00000000000ccb68     UefiShellDebug1CommandsLib:Pci.obj
 0002:0000cb88       ??_C@_1DG@DKBFJFCP@?$AAO?$AAt?$AAh?$AAe?$AAr?$AA?5?$AAD?$AAA?$AAQ?$AA?5?$AA?$CG?$AA?5?$AAS?$AAP?$AA?5@ 00000000000ccb88     UefiShellDebug1CommandsLib:Pci.obj
 0002:0000cbc0       ??_C@_1CO@NDPDJMEK@?$AAP?$AAr?$AAo?$AAc?$AAe?$AAs?$AAs?$AAi?$AAn?$AAg?$AA?5?$AAA?$AAc?$AAc?$AAe@ 00000000000ccbc0     UefiShellDebug1CommandsLib:Pci.obj
 0002:0000cbf0       ??_C@_1EO@GLBMBJBC@?$AAN?$AAo?$AAn?$AA?9?$AAE?$AAs?$AAs?$AAe?$AAn?$AAt?$AAi?$AAa?$AAl?$AA?5?$AAI@ 00000000000ccbf0     UefiShellDebug1CommandsLib:Pci.obj
 0002:0000cc40       ??_C@_1CA@LOKELNGO@?$AAS?$AAC?$AAS?$AAI?$AA?5?$AAc?$AAo?$AAn?$AAt?$AAr?$AAo?$AAl?$AAl?$AAe?$AAr@ 00000000000ccc40     UefiShellDebug1CommandsLib:Pci.obj
 0002:0000cc60       ??_C@_1EE@BFEKJLPP@?$AAS?$AAC?$AAS?$AAI?$AA?5?$AAs?$AAt?$AAo?$AAr?$AAa?$AAg?$AAe?$AA?5?$AAd?$AAe@ 00000000000ccc60     UefiShellDebug1CommandsLib:Pci.obj
 0002:0000cca8       ??_C@_1DM@BJOLKNOM@?$AAS?$AAC?$AAS?$AAI?$AA?5?$AAc?$AAo?$AAn?$AAt?$AAr?$AAo?$AAl?$AAl?$AAe?$AAr@ 00000000000ccca8     UefiShellDebug1CommandsLib:Pci.obj
 0002:0000ccf0       ??_C@_1GC@PCIOGEHB@?$AAS?$AAC?$AAS?$AAI?$AA?5?$AAs?$AAt?$AAo?$AAr?$AAa?$AAg?$AAe?$AA?5?$AAd?$AAe@ 00000000000cccf0     UefiShellDebug1CommandsLib:Pci.obj
 0002:0000cd60       ??_C@_1EG@FADCFPJB@?$AAS?$AAC?$AAS?$AAI?$AA?5?$AAs?$AAt?$AAo?$AAr?$AAa?$AAg?$AAe?$AA?5?$AAd?$AAe@ 00000000000ccd60     UefiShellDebug1CommandsLib:Pci.obj
 0002:0000cda8       ??_C@_1BG@GFFPFKKJ@?$AAO?$AAM?$AA?9?$AAp?$AAr?$AAi?$AAm?$AAa?$AAr?$AAy@ 00000000000ccda8     UefiShellDebug1CommandsLib:Pci.obj
 0002:0000cdc0       ??_C@_1BG@FONPODPB@?$AAP?$AAI?$AA?9?$AAp?$AAr?$AAi?$AAm?$AAa?$AAr?$AAy@ 00000000000ccdc0     UefiShellDebug1CommandsLib:Pci.obj
 0002:0000cdd8       ??_C@_1BM@FDOGPGGG@?$AAO?$AAM?$AA?1?$AAP?$AAI?$AA?9?$AAp?$AAr?$AAi?$AAm?$AAa?$AAr?$AAy@ 00000000000ccdd8     UefiShellDebug1CommandsLib:Pci.obj
 0002:0000cdf8       ??_C@_1BK@IDONELAO@?$AAO?$AAM?$AA?9?$AAs?$AAe?$AAc?$AAo?$AAn?$AAd?$AAa?$AAr?$AAy@ 00000000000ccdf8     UefiShellDebug1CommandsLib:Pci.obj
 0002:0000ce18       ??_C@_1DC@HICNPOMK@?$AAO?$AAM?$AA?9?$AAp?$AAr?$AAi?$AAm?$AAa?$AAr?$AAy?$AA?0?$AA?5?$AAO?$AAM?$AA?9@ 00000000000cce18     UefiShellDebug1CommandsLib:Pci.obj
 0002:0000ce50       ??_C@_1DC@HABNGELM@?$AAP?$AAI?$AA?9?$AAp?$AAr?$AAi?$AAm?$AAa?$AAr?$AAy?$AA?0?$AA?5?$AAO?$AAM?$AA?9@ 00000000000cce50     UefiShellDebug1CommandsLib:Pci.obj
 0002:0000ce88       ??_C@_1DI@BICDKEO@?$AAO?$AAM?$AA?1?$AAP?$AAI?$AA?9?$AAp?$AAr?$AAi?$AAm?$AAa?$AAr?$AAy?$AA?0?$AA?5@ 00000000000cce88     UefiShellDebug1CommandsLib:Pci.obj
 0002:0000cec0       ??_C@_1DC@DGJDGNHH@?$AAO?$AAM?$AA?9?$AAp?$AAr?$AAi?$AAm?$AAa?$AAr?$AAy?$AA?0?$AA?5?$AAP?$AAI?$AA?9@ 00000000000ccec0     UefiShellDebug1CommandsLib:Pci.obj
 0002:0000cef8       ??_C@_1DC@DOKDPHAB@?$AAP?$AAI?$AA?9?$AAp?$AAr?$AAi?$AAm?$AAa?$AAr?$AAy?$AA?0?$AA?5?$AAP?$AAI?$AA?9@ 00000000000ccef8     UefiShellDebug1CommandsLib:Pci.obj
 0002:0000cf30       ??_C@_1DI@EPDMKJPD@?$AAO?$AAM?$AA?1?$AAP?$AAI?$AA?9?$AAp?$AAr?$AAi?$AAm?$AAa?$AAr?$AAy?$AA?0?$AA?5@ 00000000000ccf30     UefiShellDebug1CommandsLib:Pci.obj
 0002:0000cf68       ??_C@_1DI@BKJODIMD@?$AAO?$AAM?$AA?9?$AAp?$AAr?$AAi?$AAm?$AAa?$AAr?$AAy?$AA?0?$AA?5?$AAO?$AAM?$AA?1@ 00000000000ccf68     UefiShellDebug1CommandsLib:Pci.obj
 0002:0000cfa0       ??_C@_1DI@KCGLEALH@?$AAP?$AAI?$AA?9?$AAp?$AAr?$AAi?$AAm?$AAa?$AAr?$AAy?$AA?0?$AA?5?$AAO?$AAM?$AA?1@ 00000000000ccfa0     UefiShellDebug1CommandsLib:Pci.obj
 0002:0000cfd8       ??_C@_1DO@MNACHKJK@?$AAO?$AAM?$AA?1?$AAP?$AAI?$AA?9?$AAp?$AAr?$AAi?$AAm?$AAa?$AAr?$AAy?$AA?0?$AA?5@ 00000000000ccfd8     UefiShellDebug1CommandsLib:Pci.obj
 0002:0000d018       ??_C@_1CG@PPNKKIGM@?$AAM?$AAa?$AAs?$AAt?$AAe?$AAr?$AA?0?$AA?5?$AAO?$AAM?$AA?9?$AAp?$AAr?$AAi?$AAm@ 00000000000cd018     UefiShellDebug1CommandsLib:Pci.obj
 0002:0000d040       ??_C@_1CG@MEFKBBDE@?$AAM?$AAa?$AAs?$AAt?$AAe?$AAr?$AA?0?$AA?5?$AAP?$AAI?$AA?9?$AAp?$AAr?$AAi?$AAm@ 00000000000cd040     UefiShellDebug1CommandsLib:Pci.obj
 0002:0000d068       ??_C@_1CM@KDEABHD@?$AAM?$AAa?$AAs?$AAt?$AAe?$AAr?$AA?0?$AA?5?$AAO?$AAM?$AA?1?$AAP?$AAI?$AA?9?$AAp@ 00000000000cd068     UefiShellDebug1CommandsLib:Pci.obj
 0002:0000d098       ??_C@_1CK@CCBAOENA@?$AAM?$AAa?$AAs?$AAt?$AAe?$AAr?$AA?0?$AA?5?$AAO?$AAM?$AA?9?$AAs?$AAe?$AAc?$AAo@ 00000000000cd098     UefiShellDebug1CommandsLib:Pci.obj
 0002:0000d0d0       ??_C@_1EC@BNMCFFBJ@?$AAM?$AAa?$AAs?$AAt?$AAe?$AAr?$AA?0?$AA?5?$AAO?$AAM?$AA?9?$AAp?$AAr?$AAi?$AAm@ 00000000000cd0d0     UefiShellDebug1CommandsLib:Pci.obj
 0002:0000d120       ??_C@_1EC@BFPCMPGP@?$AAM?$AAa?$AAs?$AAt?$AAe?$AAr?$AA?0?$AA?5?$AAP?$AAI?$AA?9?$AAp?$AAr?$AAi?$AAm@ 00000000000cd120     UefiShellDebug1CommandsLib:Pci.obj
 0002:0000d170       ??_C@_1EI@FCNPKCON@?$AAM?$AAa?$AAs?$AAt?$AAe?$AAr?$AA?0?$AA?5?$AAO?$AAM?$AA?1?$AAP?$AAI?$AA?9?$AAp@ 00000000000cd170     UefiShellDebug1CommandsLib:Pci.obj
 0002:0000d1c0       ??_C@_1EC@FDHMMGKE@?$AAM?$AAa?$AAs?$AAt?$AAe?$AAr?$AA?0?$AA?5?$AAO?$AAM?$AA?9?$AAp?$AAr?$AAi?$AAm@ 00000000000cd1c0     UefiShellDebug1CommandsLib:Pci.obj
 0002:0000d210       ??_C@_1EC@FLEMFMNC@?$AAM?$AAa?$AAs?$AAt?$AAe?$AAr?$AA?0?$AA?5?$AAP?$AAI?$AA?9?$AAp?$AAr?$AAi?$AAm@ 00000000000cd210     UefiShellDebug1CommandsLib:Pci.obj
 0002:0000d260       ??_C@_1EI@BMGBDBFA@?$AAM?$AAa?$AAs?$AAt?$AAe?$AAr?$AA?0?$AA?5?$AAO?$AAM?$AA?1?$AAP?$AAI?$AA?9?$AAp@ 00000000000cd260     UefiShellDebug1CommandsLib:Pci.obj
 0002:0000d2b0       ??_C@_1EI@EJMDKAGA@?$AAM?$AAa?$AAs?$AAt?$AAe?$AAr?$AA?0?$AA?5?$AAO?$AAM?$AA?9?$AAp?$AAr?$AAi?$AAm@ 00000000000cd2b0     UefiShellDebug1CommandsLib:Pci.obj
 0002:0000d300       ??_C@_1EI@PBDGNIBE@?$AAM?$AAa?$AAs?$AAt?$AAe?$AAr?$AA?0?$AA?5?$AAP?$AAI?$AA?9?$AAp?$AAr?$AAi?$AAm@ 00000000000cd300     UefiShellDebug1CommandsLib:Pci.obj
 0002:0000d350       ??_C@_1EO@OEGBDCJN@?$AAM?$AAa?$AAs?$AAt?$AAe?$AAr?$AA?0?$AA?5?$AAO?$AAM?$AA?1?$AAP?$AAI?$AA?9?$AAp@ 00000000000cd350     UefiShellDebug1CommandsLib:Pci.obj
 0002:0000d3a0       ??_C@_1CA@KDAMFDGL@?$AAS?$AAi?$AAn?$AAg?$AAl?$AAe?$AA?5?$AAs?$AAt?$AAe?$AAp?$AAp?$AAi?$AAn?$AAg@ 00000000000cd3a0     UefiShellDebug1CommandsLib:Pci.obj
 0002:0000d3c0       ??_C@_1CK@LBNIIJOF@?$AAC?$AAo?$AAn?$AAt?$AAi?$AAn?$AAu?$AAo?$AAu?$AAs?$AA?5?$AAo?$AAp?$AAe?$AAr@ 00000000000cd3c0     UefiShellDebug1CommandsLib:Pci.obj
 0002:0000d3f0       ??_C@_19PIKFENDK@?$AAA?$AAH?$AAC?$AAI@ 00000000000cd3f0     UefiShellDebug1CommandsLib:Pci.obj
 0002:0000d400       ??_C@_1CG@LEHKELII@?$AAS?$AAe?$AAr?$AAi?$AAa?$AAl?$AA?5?$AAS?$AAt?$AAo?$AAr?$AAa?$AAg?$AAe?$AA?5@ 00000000000cd400     UefiShellDebug1CommandsLib:Pci.obj
 0002:0000d428       ??_C@_1BC@GJKECLHO@?$AAO?$AAb?$AAs?$AAo?$AAl?$AAe?$AAt?$AAe@ 00000000000cd428     UefiShellDebug1CommandsLib:Pci.obj
 0002:0000d440       ??_C@_1O@IJMMOBJI@?$AAN?$AAV?$AAM?$AAH?$AAC?$AAI@ 00000000000cd440     UefiShellDebug1CommandsLib:Pci.obj
 0002:0000d450       ??_C@_1BI@OAKFAAAF@?$AAN?$AAV?$AAM?$AA?5?$AAE?$AAx?$AAp?$AAr?$AAe?$AAs?$AAs@ 00000000000cd450     UefiShellDebug1CommandsLib:Pci.obj
 0002:0000d468       ??_C@_1O@JFDJLKLO@?$AAU?$AAF?$AAS?$AAH?$AAC?$AAI@ 00000000000cd468     UefiShellDebug1CommandsLib:Pci.obj
 0002:0000d478       ??_C@_1BO@LDKLHGIO@?$AAV?$AAG?$AAA?$AA?5?$AAc?$AAo?$AAm?$AAp?$AAa?$AAt?$AAi?$AAb?$AAl?$AAe@ 00000000000cd478     UefiShellDebug1CommandsLib:Pci.obj
 0002:0000d498       ??_C@_1CA@LKBFLGHB@?$AA8?$AA5?$AA1?$AA4?$AA?5?$AAc?$AAo?$AAm?$AAp?$AAa?$AAt?$AAi?$AAb?$AAl?$AAe@ 00000000000cd498     UefiShellDebug1CommandsLib:Pci.obj
 0002:0000d4b8       ??_C@_1CG@BDOIBFMC@?$AAS?$AAu?$AAb?$AAt?$AAr?$AAa?$AAc?$AAt?$AAi?$AAv?$AAe?$AA?5?$AAd?$AAe?$AAc@ 00000000000cd4b8     UefiShellDebug1CommandsLib:Pci.obj
 0002:0000d4e0       ??_C@_1GM@BAGIKEEJ@?$AAP?$AAr?$AAi?$AAm?$AAa?$AAr?$AAy?$AA?5?$AAP?$AAC?$AAI?$AA?5?$AAb?$AAu?$AAs@ 00000000000cd4e0     UefiShellDebug1CommandsLib:Pci.obj
 0002:0000d550       ??_C@_1HA@EIOBAMFG@?$AAS?$AAe?$AAc?$AAo?$AAn?$AAd?$AAa?$AAr?$AAy?$AA?5?$AAP?$AAC?$AAI?$AA?5?$AAb@ 00000000000cd550     UefiShellDebug1CommandsLib:Pci.obj
 0002:0000d5c0       ??_C@_1O@KKPPJBFG@?$AAC?$AAu?$AAs?$AAt?$AAo?$AAm@ 00000000000cd5c0     UefiShellDebug1CommandsLib:Pci.obj
 0002:0000d5d0       ??_C@_1CO@KMFHKOFL@?$AAA?$AAS?$AAI?$AA?9?$AAS?$AAI?$AAG?$AA?5?$AAD?$AAe?$AAf?$AAi?$AAn?$AAe?$AAd@ 00000000000cd5d0     UefiShellDebug1CommandsLib:Pci.obj
 0002:0000d600       ??_C@_1CM@BOFGGGIA@?$AAG?$AAe?$AAn?$AAe?$AAr?$AAi?$AAc?$AA?5?$AAX?$AAT?$AA?9?$AAc?$AAo?$AAm?$AAp@ 00000000000cd600     UefiShellDebug1CommandsLib:Pci.obj
 0002:0000d630       ??_C@_1CC@CIGAJBCK@?$AA1?$AA6?$AA4?$AA5?$AA0?$AA?9?$AAc?$AAo?$AAm?$AAp?$AAa?$AAt?$AAi?$AAb?$AAl@ 00000000000cd630     UefiShellDebug1CommandsLib:Pci.obj
 0002:0000d658       ??_C@_1CC@BEAAHCCC@?$AA1?$AA6?$AA5?$AA5?$AA0?$AA?9?$AAc?$AAo?$AAm?$AAp?$AAa?$AAt?$AAi?$AAb?$AAl@ 00000000000cd658     UefiShellDebug1CommandsLib:Pci.obj
 0002:0000d680       ??_C@_1CC@FAKBFHDK@?$AA1?$AA6?$AA6?$AA5?$AA0?$AA?9?$AAc?$AAo?$AAm?$AAp?$AAa?$AAt?$AAi?$AAb?$AAl@ 00000000000cd680     UefiShellDebug1CommandsLib:Pci.obj
 0002:0000d6a8       ??_C@_1CC@GMMBLEDC@?$AA1?$AA6?$AA7?$AA5?$AA0?$AA?9?$AAc?$AAo?$AAm?$AAp?$AAa?$AAt?$AAi?$AAb?$AAl@ 00000000000cd6a8     UefiShellDebug1CommandsLib:Pci.obj
 0002:0000d6d0       ??_C@_1CC@OBJFADAL@?$AA1?$AA6?$AA8?$AA5?$AA0?$AA?9?$AAc?$AAo?$AAm?$AAp?$AAa?$AAt?$AAi?$AAb?$AAl@ 00000000000cd6d0     UefiShellDebug1CommandsLib:Pci.obj
 0002:0000d6f8       ??_C@_1CC@NNPFOAAD@?$AA1?$AA6?$AA9?$AA5?$AA0?$AA?9?$AAc?$AAo?$AAm?$AAp?$AAa?$AAt?$AAi?$AAb?$AAl@ 00000000000cd6f8     UefiShellDebug1CommandsLib:Pci.obj
 0002:0000d720       ??_C@_1BO@IFLLGKJH@?$AAB?$AAi?$AA?9?$AAd?$AAi?$AAr?$AAe?$AAc?$AAt?$AAi?$AAo?$AAn?$AAa?$AAl@ 00000000000cd720     UefiShellDebug1CommandsLib:Pci.obj
 0002:0000d740       ??_C@_1CE@MAJJBDCC@?$AAE?$AAC?$AAP?$AA?5?$AA1?$AA?4?$AAX?$AA?9?$AAc?$AAo?$AAm?$AAp?$AAl?$AAi?$AAa@ 00000000000cd740     UefiShellDebug1CommandsLib:Pci.obj
 0002:0000d768       ??_C@_1BE@DNKMAGKP@?$AAI?$AAE?$AAE?$AAE?$AA?5?$AA1?$AA2?$AA8?$AA4@ 00000000000cd768     UefiShellDebug1CommandsLib:Pci.obj
 0002:0000d780       ??_C@_1EI@FJLDGOLD@?$AAI?$AAE?$AAE?$AAE?$AA?5?$AA1?$AA2?$AA8?$AA4?$AA?5?$AAt?$AAa?$AAr?$AAg?$AAe@ 00000000000cd780     UefiShellDebug1CommandsLib:Pci.obj
 0002:0000d7c8       ??_C@_1BA@NGANLLNB@?$AAG?$AAe?$AAn?$AAe?$AAr?$AAi?$AAc@ 00000000000cd7c8     UefiShellDebug1CommandsLib:Pci.obj
 0002:0000d7d8       ??_C@_1CO@OBFAMHI@?$AAH?$AAa?$AAy?$AAe?$AAs?$AA?9?$AAc?$AAo?$AAm?$AAp?$AAa?$AAt?$AAi?$AAb?$AAl@ 00000000000cd7d8     UefiShellDebug1CommandsLib:Pci.obj
 0002:0000d808       ??_C@_1CO@MCLPAMOG@?$AAH?$AAa?$AAy?$AAe?$AAs?$AA?9?$AAc?$AAo?$AAm?$AAp?$AAa?$AAt?$AAi?$AAb?$AAl@ 00000000000cd808     UefiShellDebug1CommandsLib:Pci.obj
 0002:0000d838       ??_C@_1CO@EMDAALAF@?$AAH?$AAa?$AAy?$AAe?$AAs?$AA?9?$AAc?$AAo?$AAm?$AAp?$AAa?$AAt?$AAi?$AAb?$AAl@ 00000000000cd838     UefiShellDebug1CommandsLib:Pci.obj
 0002:0000d868       ??_C@_1CO@IAJKALJL@?$AAH?$AAa?$AAy?$AAe?$AAs?$AA?9?$AAc?$AAo?$AAm?$AAp?$AAa?$AAt?$AAi?$AAb?$AAl@ 00000000000cd868     UefiShellDebug1CommandsLib:Pci.obj
 0002:0000d898       ??_C@_1BK@FEJNPFJI@?$AAG?$AAe?$AAn?$AAe?$AAr?$AAi?$AAc?$AA?5?$AA8?$AA2?$AA5?$AA9@ 00000000000cd898     UefiShellDebug1CommandsLib:Pci.obj
 0002:0000d8b8       ??_C@_17FLNLMFB@?$AAI?$AAS?$AAA@ 00000000000cd8b8     UefiShellDebug1CommandsLib:Pci.obj
 0002:0000d8c0       ??_C@_19PLIGMHKK@?$AAE?$AAI?$AAS?$AAA@ 00000000000cd8c0     UefiShellDebug1CommandsLib:Pci.obj
 0002:0000d8d0       ??_C@_1BA@GKPFOHFO@?$AAI?$AAO?$AA?5?$AAA?$AAP?$AAI?$AAC@ 00000000000cd8d0     UefiShellDebug1CommandsLib:Pci.obj
 0002:0000d8e0       ??_C@_1EA@DHDEDKEO@?$AAI?$AAO?$AA?$CI?$AAx?$AA?$CJ?$AA?5?$AAA?$AAP?$AAI?$AAC?$AA?5?$AAi?$AAn?$AAt?$AAe@ 00000000000cd8e0     UefiShellDebug1CommandsLib:Pci.obj
 0002:0000d920       ??_C@_1BK@GCBLGBLG@?$AAG?$AAe?$AAn?$AAe?$AAr?$AAi?$AAc?$AA?5?$AA8?$AA2?$AA3?$AA7@ 00000000000cd920     UefiShellDebug1CommandsLib:Pci.obj
 0002:0000d940       ??_C@_1BK@KGPHCNEF@?$AAG?$AAe?$AAn?$AAe?$AAr?$AAi?$AAc?$AA?5?$AA8?$AA2?$AA5?$AA4@ 00000000000cd940     UefiShellDebug1CommandsLib:Pci.obj
 0002:0000d960       ??_C@_1DA@CHHIFNOJ@?$AAU?$AAs?$AAi?$AAn?$AAg?$AA?5?$AA1?$AA3?$AA9?$AA4?$AA?5?$AAO?$AAp?$AAe?$AAn@ 00000000000cd960     UefiShellDebug1CommandsLib:Pci.obj
 0002:0000d990       ??_C@_19NGOAGMKI@?$AAU?$AAH?$AAC?$AAI@ 00000000000cd990     UefiShellDebug1CommandsLib:Pci.obj
 0002:0000d9a0       ??_C@_19OGGMHNIJ@?$AAO?$AAH?$AAC?$AAI@ 00000000000cd9a0     UefiShellDebug1CommandsLib:Pci.obj
 0002:0000d9b0       ??_C@_19PBEOONEA@?$AAE?$AAH?$AAC?$AAI@ 00000000000cd9b0     UefiShellDebug1CommandsLib:Pci.obj
 0002:0000d9c0       ??_C@_19GMEDOEMI@?$AAx?$AAH?$AAC?$AAI@ 00000000000cd9c0     UefiShellDebug1CommandsLib:Pci.obj
 0002:0000d9d0       ??_C@_1EE@DFNHODEM@?$AAN?$AAo?$AA?5?$AAs?$AAp?$AAe?$AAc?$AAi?$AAf?$AAi?$AAc?$AA?5?$AAp?$AAr?$AAo@ 00000000000cd9d0     UefiShellDebug1CommandsLib:Pci.obj
 0002:0000da18       ??_C@_1CM@KHPKJIHG@?$AA?$CI?$AAN?$AAo?$AAt?$AA?5?$AAH?$AAo?$AAs?$AAt?$AA?5?$AAC?$AAo?$AAn?$AAt?$AAr@ 00000000000cda18     UefiShellDebug1CommandsLib:Pci.obj
 0002:0000da48       ??_C@_19FNDINBIJ@?$AAS?$AAM?$AAI?$AAC@ 00000000000cda48     UefiShellDebug1CommandsLib:Pci.obj
 0002:0000da58       ??_C@_1DE@JKDCGLGM@?$AAK?$AAe?$AAy?$AAb?$AAo?$AAa?$AAr?$AAd?$AA?5?$AAC?$AAo?$AAn?$AAt?$AAr?$AAo@ 00000000000cda58     UefiShellDebug1CommandsLib:Pci.obj
 0002:0000da90       ??_C@_1BO@NEKAJCNL@?$AAB?$AAl?$AAo?$AAc?$AAk?$AA?5?$AAT?$AAr?$AAa?$AAn?$AAs?$AAf?$AAe?$AAr@ 00000000000cda90     UefiShellDebug1CommandsLib:Pci.obj
 0002:0000dab0       ??_C@_1CO@JPLPKLME@?$AAC?$AAo?$AAn?$AAs?$AAu?$AAm?$AAe?$AAr?$AA?5?$AAI?$AAR?$AA?5?$AAc?$AAo?$AAn@ 00000000000cdab0     UefiShellDebug1CommandsLib:Pci.obj
 0002:0000dae0       ??_C@_1CK@HPJMCFFA@?$AAU?$AAW?$AAB?$AA?5?$AAR?$AAa?$AAd?$AAi?$AAo?$AA?5?$AAc?$AAo?$AAn?$AAt?$AAr@ 00000000000cdae0     UefiShellDebug1CommandsLib:Pci.obj
 0002:0000db10       ??_C@_1DG@ENMJNAED@?$AAM?$AAe?$AAs?$AAs?$AAa?$AAg?$AAe?$AA?5?$AAF?$AAI?$AAF?$AAO?$AA?5?$AAa?$AAt@ 00000000000cdb10     UefiShellDebug1CommandsLib:Pci.obj
 0002:0000db48       ??_C@_1BE@FIGOEEEG@?$AAU?$AAN?$AAD?$AAE?$AAF?$AAI?$AAN?$AAE?$AAD@ 00000000000cdb48     UefiShellDebug1CommandsLib:Pci.obj
 0002:0000db60       ??_C@_1BK@BKCDPFHG@?$AA?$CF?$AAs?$AA?5?$AA?9?$AA?5?$AA?$CF?$AAs?$AA?5?$AA?9?$AA?5?$AA?$CF?$AAs@ 00000000000cdb60     UefiShellDebug1CommandsLib:Pci.obj
 0002:0000db80       ??_C@_1BA@JNCDCOGG@?$AA?$CF?$AAs?$AA?5?$AA?9?$AA?5?$AA?$CF?$AAs@ 00000000000cdb80     UefiShellDebug1CommandsLib:Pci.obj
 0002:0000db90       ??_C@_17IJAEJBBF@?$AA?9?$AAe?$AAc@ 00000000000cdb90     UefiShellDebug1CommandsLib:Pci.obj
 0002:0000db98       ??_C@_1CK@LGAIPNNI@?$AAP?$AAC?$AAI?$AA?5?$AAE?$AAx?$AAp?$AAr?$AAe?$AAs?$AAs?$AA?5?$AAE?$AAn?$AAd@ 00000000000cdb98     UefiShellDebug1CommandsLib:Pci.obj
 0002:0000dbc8       ??_C@_1DI@NBAABCOO@?$AAL?$AAe?$AAg?$AAa?$AAc?$AAy?$AA?5?$AAP?$AAC?$AAI?$AA?5?$AAE?$AAx?$AAp?$AAr@ 00000000000cdbc8     UefiShellDebug1CommandsLib:Pci.obj
 0002:0000dc00       ??_C@_1BK@NFFICGLM@?$AAU?$AAn?$AAk?$AAn?$AAo?$AAw?$AAn?$AA?5?$AAT?$AAy?$AAp?$AAe@ 00000000000cdc00     UefiShellDebug1CommandsLib:Pci.obj
 0002:0000dc20       ??_C@_1BK@CGOANFNA@?$AAU?$AAn?$AAk?$AAn?$AAo?$AAn?$AAw?$AA?5?$AAT?$AAy?$AAp?$AAe@ 00000000000cdc20     UefiShellDebug1CommandsLib:Pci.obj
 0002:0000dc40       ??_C@_1EM@KJGCONCC@?$AAR?$AAo?$AAo?$AAt?$AA?5?$AAP?$AAo?$AAr?$AAt?$AA?5?$AAo?$AAf?$AA?5?$AAP?$AAC@ 00000000000cdc40     UefiShellDebug1CommandsLib:Pci.obj
 0002:0000dc90       ??_C@_1EI@DOOOOBJL@?$AAU?$AAp?$AAs?$AAt?$AAr?$AAe?$AAa?$AAm?$AA?5?$AAP?$AAo?$AAr?$AAt?$AA?5?$AAo@ 00000000000cdc90     UefiShellDebug1CommandsLib:Pci.obj
 0002:0000dce0       ??_C@_1EM@LHMEPGPD@?$AAD?$AAo?$AAw?$AAn?$AAs?$AAt?$AAr?$AAe?$AAa?$AAm?$AA?5?$AAP?$AAo?$AAr?$AAt@ 00000000000cdce0     UefiShellDebug1CommandsLib:Pci.obj
 0002:0000dd30       ??_C@_1EA@IGKOLDOG@?$AAP?$AAC?$AAI?$AA?5?$AAE?$AAx?$AAp?$AAr?$AAe?$AAs?$AAs?$AA?5?$AAt?$AAo?$AA?5@ 00000000000cdd30     UefiShellDebug1CommandsLib:Pci.obj
 0002:0000dd70       ??_C@_1EA@KFIDJNJK@?$AAP?$AAC?$AAI?$AA?1?$AAP?$AAC?$AAI?$AA?9?$AAX?$AA?5?$AAt?$AAo?$AA?5?$AAP?$AAC@ 00000000000cdd70     UefiShellDebug1CommandsLib:Pci.obj
 0002:0000ddb0       ??_C@_1EC@DNMCNNFH@?$AAR?$AAo?$AAo?$AAt?$AA?5?$AAC?$AAo?$AAm?$AAp?$AAl?$AAe?$AAx?$AA?5?$AAI?$AAn@ 00000000000cddb0     UefiShellDebug1CommandsLib:Pci.obj
 0002:0000ddf8       ??_C@_1BO@IAHCGMHK@?$AAL?$AAe?$AAs?$AAs?$AA?5?$AAt?$AAh?$AAa?$AAn?$AA?5?$AA6?$AA4?$AAn?$AAs@ 00000000000cddf8     UefiShellDebug1CommandsLib:Pci.obj
 0002:0000de18       ??_C@_1DA@HJJJPCKH@?$AA6?$AA4?$AAn?$AAs?$AA?5?$AAt?$AAo?$AA?5?$AAl?$AAe?$AAs?$AAs?$AA?5?$AAt?$AAh@ 00000000000cde18     UefiShellDebug1CommandsLib:Pci.obj
 0002:0000de48       ??_C@_1DC@HICECCOG@?$AA1?$AA2?$AA8?$AAn?$AAs?$AA?5?$AAt?$AAo?$AA?5?$AAl?$AAe?$AAs?$AAs?$AA?5?$AAt@ 00000000000cde48     UefiShellDebug1CommandsLib:Pci.obj
 0002:0000de80       ??_C@_1DC@PFEAEAJO@?$AA2?$AA5?$AA6?$AAn?$AAs?$AA?5?$AAt?$AAo?$AA?5?$AAl?$AAe?$AAs?$AAs?$AA?5?$AAt@ 00000000000cde80     UefiShellDebug1CommandsLib:Pci.obj
 0002:0000deb8       ??_C@_1CO@FDINLBAE@?$AA5?$AA1?$AA2?$AAn?$AAs?$AA?5?$AAt?$AAo?$AA?5?$AAl?$AAe?$AAs?$AAs?$AA?5?$AAt@ 00000000000cdeb8     UefiShellDebug1CommandsLib:Pci.obj
 0002:0000dee8       ??_C@_1CK@DFGAJBII@?$AA1?$AAu?$AAs?$AA?5?$AAt?$AAo?$AA?5?$AAl?$AAe?$AAs?$AAs?$AA?5?$AAt?$AAh?$AAa@ 00000000000cdee8     UefiShellDebug1CommandsLib:Pci.obj
 0002:0000df18       ??_C@_1BA@MBKFBMOB@?$AA2?$AAu?$AAs?$AA?9?$AA4?$AAu?$AAs@ 00000000000cdf18     UefiShellDebug1CommandsLib:Pci.obj
 0002:0000df28       ??_C@_1BM@IHLKEDHF@?$AAM?$AAo?$AAr?$AAe?$AA?5?$AAt?$AAh?$AAa?$AAn?$AA?5?$AA4?$AAu?$AAs@ 00000000000cdf28     UefiShellDebug1CommandsLib:Pci.obj
 0002:0000df48       ??_C@_1BM@NEKPKDDJ@?$AAL?$AAe?$AAs?$AAs?$AA?5?$AAt?$AAh?$AAa?$AAn?$AA?5?$AA1?$AAu?$AAs@ 00000000000cdf48     UefiShellDebug1CommandsLib:Pci.obj
 0002:0000df68       ??_C@_1CK@MLDEBDHM@?$AA2?$AAu?$AAs?$AA?5?$AAt?$AAo?$AA?5?$AAl?$AAe?$AAs?$AAs?$AA?5?$AAt?$AAh?$AAa@ 00000000000cdf68     UefiShellDebug1CommandsLib:Pci.obj
 0002:0000df98       ??_C@_1CK@OMOMBANF@?$AA4?$AAu?$AAs?$AA?5?$AAt?$AAo?$AA?5?$AAl?$AAe?$AAs?$AAs?$AA?5?$AAt?$AAh?$AAa@ 00000000000cdf98     UefiShellDebug1CommandsLib:Pci.obj
 0002:0000dfc8       ??_C@_1CM@DHLMOLKA@?$AA8?$AAu?$AAs?$AA?5?$AAt?$AAo?$AA?5?$AAl?$AAe?$AAs?$AAs?$AA?5?$AAt?$AAh?$AAa@ 00000000000cdfc8     UefiShellDebug1CommandsLib:Pci.obj
 0002:0000dff8       ??_C@_1CO@FGMGHCAD@?$AA1?$AA6?$AAu?$AAs?$AA?5?$AAt?$AAo?$AA?5?$AAl?$AAe?$AAs?$AAs?$AA?5?$AAt?$AAh@ 00000000000cdff8     UefiShellDebug1CommandsLib:Pci.obj
 0002:0000e028       ??_C@_1BE@CACIEDEC@?$AA3?$AA2?$AAu?$AAs?$AA?9?$AA6?$AA4?$AAu?$AAs@ 00000000000ce028     UefiShellDebug1CommandsLib:Pci.obj
 0002:0000e040       ??_C@_1BO@PDIMOEAC@?$AAM?$AAo?$AAr?$AAe?$AA?5?$AAt?$AAh?$AAa?$AAn?$AA?5?$AA6?$AA4?$AAu?$AAs@ 00000000000ce040     UefiShellDebug1CommandsLib:Pci.obj
 0002:0000e060       ??_C@_1BC@FGCJDNHA@?$AAD?$AAi?$AAs?$AAa?$AAb?$AAl?$AAe?$AAd@ 00000000000ce060     UefiShellDebug1CommandsLib:Pci.obj
 0002:0000e078       ??_C@_1CE@MOLMINKE@?$AAL?$AA0?$AAs?$AA?5?$AAE?$AAn?$AAt?$AAr?$AAy?$AA?5?$AAE?$AAn?$AAa?$AAb?$AAl@ 00000000000ce078     UefiShellDebug1CommandsLib:Pci.obj
 0002:0000e0a0       ??_C@_1CC@EGKEAOOB@?$AAL?$AA1?$AA?5?$AAE?$AAn?$AAt?$AAr?$AAy?$AA?5?$AAE?$AAn?$AAa?$AAb?$AAl?$AAe@ 00000000000ce0a0     UefiShellDebug1CommandsLib:Pci.obj
 0002:0000e0c8       ??_C@_1DC@OOCMPFKO@?$AAL?$AA0?$AAs?$AA?5?$AAa?$AAn?$AAd?$AA?5?$AAL?$AA1?$AA?5?$AAE?$AAn?$AAt?$AAr@ 00000000000ce0c8     UefiShellDebug1CommandsLib:Pci.obj
 0002:0000e100       ??_C@_19NNEJIBDF@?$AA1?$AA?4?$AA0?$AAx@ 00000000000ce100     UefiShellDebug1CommandsLib:Pci.obj
 0002:0000e110       ??_C@_19PJNHDJKO@?$AA0?$AA?4?$AA1?$AAx@ 00000000000ce110     UefiShellDebug1CommandsLib:Pci.obj
 0002:0000e120       ??_C@_1M@CFPHDDPB@?$AA0?$AA?4?$AA0?$AA1?$AAx@ 00000000000ce120     UefiShellDebug1CommandsLib:Pci.obj
 0002:0000e130       ??_C@_1O@PIABEHFE@?$AA0?$AA?4?$AA0?$AA0?$AA1?$AAx@ 00000000000ce130     UefiShellDebug1CommandsLib:Pci.obj
 0002:0000e140       ??_C@_1BC@BIAHJJFB@?$AAR?$AAe?$AAs?$AAe?$AAr?$AAv?$AAe?$AAd@ 00000000000ce140     UefiShellDebug1CommandsLib:Pci.obj
 0002:0000e154       ??_C@_15GLMKGGNF@?$AAO?$AAn@ 00000000000ce154     UefiShellDebug1CommandsLib:Pci.obj
 0002:0000e160       ??_C@_1M@ICNEFBLJ@?$AAB?$AAl?$AAi?$AAn?$AAk@ 00000000000ce160     UefiShellDebug1CommandsLib:Pci.obj
 0002:0000e170       ??_C@_17KKIALEEP@?$AAO?$AAf?$AAf@ 00000000000ce170     UefiShellDebug1CommandsLib:Pci.obj
 0002:0000e180       ??_C@_0EI@POHLCEJN@f?3?2uefiworkspace?2edk2?2ShellPkg?2@ 00000000000ce180     UefiShellDebug1CommandsLib:Pci.obj
 0002:0000e1d0       ??_C@_1JI@DIBCOKEL@?$AA?$AN?$AA?6?$AA?$CF?$AAH?$AAS?$AAt?$AAa?$AAr?$AAt?$AA?5?$AAd?$AAu?$AAm?$AAp?$AAi@ 00000000000ce1d0     UefiShellDebug1CommandsLib:Pci.obj
 0002:0000e270       ??_C@_1GC@IOBLCMJB@?$AA?5?$AA?5?$AAC?$AAa?$AAp?$AAa?$AAb?$AAi?$AAl?$AAi?$AAt?$AAy?$AA?5?$AAV?$AAe@ 00000000000ce270     UefiShellDebug1CommandsLib:Pci.obj
 0002:0000e2e0       ??_C@_1FK@OIGKJCNB@?$AA?5?$AA?5?$AAD?$AAe?$AAv?$AAi?$AAc?$AAe?$AA?1?$AAP?$AAo?$AAr?$AAt?$AAT?$AAy@ 00000000000ce2e0     UefiShellDebug1CommandsLib:Pci.obj
 0002:0000e340       ??_C@_1FK@KEMDJDCE@?$AA?5?$AA?5?$AAS?$AAl?$AAo?$AAt?$AA?5?$AAI?$AAm?$AAp?$AAl?$AAe?$AAm?$AAe?$AAn@ 00000000000ce340     UefiShellDebug1CommandsLib:Pci.obj
 0002:0000e3a0       ??_C@_1GC@FONILIJO@?$AA?5?$AA?5?$AAI?$AAn?$AAt?$AAe?$AAr?$AAr?$AAu?$AAp?$AAt?$AA?5?$AAM?$AAe?$AAs@ 00000000000ce3a0     UefiShellDebug1CommandsLib:Pci.obj
 0002:0000e410       ??_C@_1FK@NPFDPGMM@?$AA?5?$AA?5?$AAM?$AAa?$AAx?$AA_?$AAP?$AAa?$AAy?$AAl?$AAo?$AAa?$AAd?$AA_?$AAS@ 00000000000ce410     UefiShellDebug1CommandsLib:Pci.obj
 0002:0000e470       ??_C@_1BO@OLMPP@?$AA?$CF?$AAE?$AA?$CF?$AAd?$AA?5?$AAb?$AAy?$AAt?$AAe?$AAs?$AA?$CF?$AAN?$AA?$AN?$AA?6@ 00000000000ce470     UefiShellDebug1CommandsLib:Pci.obj
 0002:0000e490       ??_C@_1BM@CDEMNAKC@?$AA?$CF?$AAE?$AAU?$AAn?$AAk?$AAn?$AAo?$AAw?$AAn?$AA?$CF?$AAN?$AA?$AN?$AA?6@ 00000000000ce490     UefiShellDebug1CommandsLib:Pci.obj
 0002:0000e4b0       ??_C@_1GK@FMJEGDJO@?$AA?5?$AA?5?$AAP?$AAh?$AAa?$AAn?$AAt?$AAo?$AAm?$AA?5?$AAF?$AAu?$AAn?$AAc?$AAt@ 00000000000ce4b0     UefiShellDebug1CommandsLib:Pci.obj
 0002:0000e520       ??_C@_1JK@GDJHHFPD@?$AA?5?$AA?5?$AAE?$AAx?$AAt?$AAe?$AAn?$AAd?$AAe?$AAd?$AA?5?$AAT?$AAa?$AAg?$AA?5@ 00000000000ce520     UefiShellDebug1CommandsLib:Pci.obj
 0002:0000e5c0       ??_C@_1FK@DEGMCBMF@?$AA?5?$AA?5?$AAE?$AAn?$AAd?$AAp?$AAo?$AAi?$AAn?$AAt?$AA?5?$AAL?$AA0?$AAs?$AA?5@ 00000000000ce5c0     UefiShellDebug1CommandsLib:Pci.obj
 0002:0000e620       ??_C@_1CO@KHCIHDMD@?$AA?$CF?$AAE?$AAM?$AAa?$AAx?$AAi?$AAm?$AAu?$AAm?$AA?5?$AAo?$AAf?$AA?5?$AA?$CF?$AAd@ 00000000000ce620     UefiShellDebug1CommandsLib:Pci.obj
 0002:0000e650       ??_C@_1CO@IOKCHEEC@?$AA?$CF?$AAE?$AAM?$AAa?$AAx?$AAi?$AAm?$AAu?$AAm?$AA?5?$AAo?$AAf?$AA?5?$AA?$CF?$AAd@ 00000000000ce650     UefiShellDebug1CommandsLib:Pci.obj
 0002:0000e680       ??_C@_1BO@DEAGGBCC@?$AA?$CF?$AAE?$AAN?$AAo?$AA?5?$AAl?$AAi?$AAm?$AAi?$AAt?$AA?$CF?$AAN?$AA?$AN?$AA?6@ 00000000000ce680     UefiShellDebug1CommandsLib:Pci.obj
 0002:0000e6a0       ??_C@_1FK@IEAAEIBG@?$AA?5?$AA?5?$AAE?$AAn?$AAd?$AAp?$AAo?$AAi?$AAn?$AAt?$AA?5?$AAL?$AA1?$AA?5?$AAA@ 00000000000ce6a0     UefiShellDebug1CommandsLib:Pci.obj
 0002:0000e700       ??_C@_1GK@GIGLEIEC@?$AA?5?$AA?5?$AAR?$AAo?$AAl?$AAe?$AA?9?$AAb?$AAa?$AAs?$AAe?$AAd?$AA?5?$AAE?$AAr@ 00000000000ce700     UefiShellDebug1CommandsLib:Pci.obj
 0002:0000e770       ??_C@_1HC@CBDBOADF@?$AA?5?$AA?5?$AAC?$AAa?$AAp?$AAt?$AAu?$AAr?$AAe?$AAd?$AA?5?$AAS?$AAl?$AAo?$AAt@ 00000000000ce770     UefiShellDebug1CommandsLib:Pci.obj
 0002:0000e7f0       ??_C@_1GK@NGJPMHJI@?$AA?5?$AA?5?$AAC?$AAa?$AAp?$AAt?$AAu?$AAr?$AAe?$AAd?$AA?5?$AAS?$AAl?$AAo?$AAt@ 00000000000ce7f0     UefiShellDebug1CommandsLib:Pci.obj
 0002:0000e860       ??_C@_1GK@JIFHJGKP@?$AA?5?$AA?5?$AAF?$AAu?$AAn?$AAc?$AAt?$AAi?$AAo?$AAn?$AA?5?$AAL?$AAe?$AAv?$AAe@ 00000000000ce860     UefiShellDebug1CommandsLib:Pci.obj
 0002:0000e8d0       ??_C@_1GK@FGJNFMLD@?$AA?5?$AA?5?$AAC?$AAo?$AAr?$AAr?$AAe?$AAc?$AAt?$AAa?$AAb?$AAl?$AAe?$AA?5?$AAE@ 00000000000ce8d0     UefiShellDebug1CommandsLib:Pci.obj
 0002:0000e940       ??_C@_1GK@ENPGOHN@?$AA?5?$AA?5?$AAN?$AAo?$AAn?$AA?9?$AAF?$AAa?$AAt?$AAa?$AAl?$AA?5?$AAE?$AAr?$AAr@ 00000000000ce940     UefiShellDebug1CommandsLib:Pci.obj
 0002:0000e9b0       ??_C@_1GK@KNGICADE@?$AA?5?$AA?5?$AAF?$AAa?$AAt?$AAa?$AAl?$AA?5?$AAE?$AAr?$AAr?$AAo?$AAr?$AA?5?$AAR@ 00000000000ce9b0     UefiShellDebug1CommandsLib:Pci.obj
 0002:0000ea20       ??_C@_1GK@PEFNOOJJ@?$AA?5?$AA?5?$AAU?$AAn?$AAs?$AAu?$AAp?$AAp?$AAo?$AAr?$AAt?$AAe?$AAd?$AA?5?$AAR@ 00000000000cea20     UefiShellDebug1CommandsLib:Pci.obj
 0002:0000ea90       ??_C@_1GK@KNAFJEEN@?$AA?5?$AA?5?$AAE?$AAn?$AAa?$AAb?$AAl?$AAe?$AA?5?$AAR?$AAe?$AAl?$AAa?$AAx?$AAe@ 00000000000cea90     UefiShellDebug1CommandsLib:Pci.obj
 0002:0000eb00       ??_C@_1FK@DOIMONG@?$AA?5?$AA?5?$AAM?$AAa?$AAx?$AA_?$AAP?$AAa?$AAy?$AAl?$AAo?$AAa?$AAd?$AA_?$AAS@ 00000000000ceb00     UefiShellDebug1CommandsLib:Pci.obj
 0002:0000eb60       ??_C@_1GK@NDFLOBEB@?$AA?5?$AA?5?$AAE?$AAx?$AAt?$AAe?$AAn?$AAd?$AAe?$AAd?$AA?5?$AAT?$AAa?$AAg?$AA?5@ 00000000000ceb60     UefiShellDebug1CommandsLib:Pci.obj
 0002:0000ebd0       ??_C@_1GK@JOCEMCGI@?$AA?5?$AA?5?$AAP?$AAh?$AAa?$AAn?$AAt?$AAo?$AAm?$AA?5?$AAF?$AAu?$AAn?$AAc?$AAt@ 00000000000cebd0     UefiShellDebug1CommandsLib:Pci.obj
 0002:0000ec40       ??_C@_1GK@DIPPPKNF@?$AA?5?$AA?5?$AAA?$AAu?$AAx?$AAi?$AAl?$AAi?$AAa?$AAr?$AAy?$AA?5?$AA?$CI?$AAA?$AAU@ 00000000000cec40     UefiShellDebug1CommandsLib:Pci.obj
 0002:0000ecb0       ??_C@_1GK@BHBAOJJF@?$AA?5?$AA?5?$AAE?$AAn?$AAa?$AAb?$AAl?$AAe?$AA?5?$AAN?$AAo?$AA?5?$AAS?$AAn?$AAo@ 00000000000cecb0     UefiShellDebug1CommandsLib:Pci.obj
 0002:0000ed20       ??_C@_1FK@LLANKGGK@?$AA?5?$AA?5?$AAM?$AAa?$AAx?$AA_?$AAR?$AAe?$AAa?$AAd?$AA_?$AAR?$AAe?$AAq?$AAu@ 00000000000ced20     UefiShellDebug1CommandsLib:Pci.obj
 0002:0000ed80       ??_C@_1GG@OFHJCJFD@?$AA?5?$AA?5?$AAB?$AAr?$AAi?$AAd?$AAg?$AAe?$AA?5?$AAC?$AAo?$AAn?$AAf?$AAi?$AAg@ 00000000000ced80     UefiShellDebug1CommandsLib:Pci.obj
 0002:0000edf0       ??_C@_1GK@BINMDEJF@?$AA?5?$AA?5?$AAC?$AAo?$AAr?$AAr?$AAe?$AAc?$AAt?$AAa?$AAb?$AAl?$AAe?$AA?5?$AAE@ 00000000000cedf0     UefiShellDebug1CommandsLib:Pci.obj
 0002:0000ee60       ??_C@_1GK@EDPIDOEM@?$AA?5?$AA?5?$AAN?$AAo?$AAn?$AA?9?$AAF?$AAa?$AAt?$AAa?$AAl?$AA?5?$AAE?$AAr?$AAr@ 00000000000cee60     UefiShellDebug1CommandsLib:Pci.obj
 0002:0000eed0       ??_C@_1GK@MNNNPGMB@?$AA?5?$AA?5?$AAF?$AAa?$AAt?$AAa?$AAl?$AA?5?$AAE?$AAr?$AAr?$AAo?$AAr?$AA?5?$AAD@ 00000000000ceed0     UefiShellDebug1CommandsLib:Pci.obj
 0002:0000ef40       ??_C@_1GK@BJCBKOPC@?$AA?5?$AA?5?$AAU?$AAn?$AAs?$AAu?$AAp?$AAp?$AAo?$AAr?$AAt?$AAe?$AAd?$AA?5?$AAR@ 00000000000cef40     UefiShellDebug1CommandsLib:Pci.obj
 0002:0000efb0       ??_C@_1GK@HPMFLNAP@?$AA?5?$AA?5?$AAA?$AAU?$AAX?$AA?5?$AAP?$AAo?$AAw?$AAe?$AAr?$AA?5?$AAD?$AAe?$AAt@ 00000000000cefb0     UefiShellDebug1CommandsLib:Pci.obj
 0002:0000f020       ??_C@_1GK@LEJACGLB@?$AA?5?$AA?5?$AAT?$AAr?$AAa?$AAn?$AAs?$AAa?$AAc?$AAt?$AAi?$AAo?$AAn?$AAs?$AA?5@ 00000000000cf020     UefiShellDebug1CommandsLib:Pci.obj
 0002:0000f090       ??_C@_1BC@MMFGJKJK@?$AA2?$AA?4?$AA5?$AA?5?$AAG?$AAT?$AA?1?$AAs@ 00000000000cf090     UefiShellDebug1CommandsLib:Pci.obj
 0002:0000f0a8       ??_C@_1BC@KJNLPOJD@?$AA5?$AA?4?$AA0?$AA?5?$AAG?$AAT?$AA?1?$AAs@ 00000000000cf0a8     UefiShellDebug1CommandsLib:Pci.obj
 0002:0000f0c0       ??_C@_1BC@FKHADBHI@?$AA8?$AA?4?$AA0?$AA?5?$AAG?$AAT?$AA?1?$AAs@ 00000000000cf0c0     UefiShellDebug1CommandsLib:Pci.obj
 0002:0000f0d8       ??_C@_1BE@LEMOLHFJ@?$AA1?$AA6?$AA?4?$AA0?$AA?5?$AAG?$AAT?$AA?1?$AAs@ 00000000000cf0d8     UefiShellDebug1CommandsLib:Pci.obj
 0002:0000f0f0       ??_C@_1BE@HFKIBGND@?$AA3?$AA2?$AA?4?$AA0?$AA?5?$AAG?$AAT?$AA?1?$AAs@ 00000000000cf0f0     UefiShellDebug1CommandsLib:Pci.obj
 0002:0000f110       ??_C@_1HO@BFOKIJPF@?$AA?5?$AA?5?$AAM?$AAa?$AAx?$AAi?$AAm?$AAu?$AAm?$AA?5?$AAL?$AAi?$AAn?$AAk?$AA?5@ 00000000000cf110     UefiShellDebug1CommandsLib:Pci.obj
 0002:0000f190       ??_C@_1IA@FKPHADIH@?$AA?5?$AA?5?$AAM?$AAa?$AAx?$AAi?$AAm?$AAu?$AAm?$AA?5?$AAL?$AAi?$AAn?$AAk?$AA?5@ 00000000000cf190     UefiShellDebug1CommandsLib:Pci.obj
 0002:0000f210       ??_C@_17LLDFHKAN@?$AAN?$AAo?$AAt@ 00000000000cf210     UefiShellDebug1CommandsLib:Pci.obj
 0002:0000f218       ??_C@_17JJBPPPOL@?$AAL?$AA0?$AAs@ 00000000000cf218     UefiShellDebug1CommandsLib:Pci.obj
 0002:0000f220       ??_C@_15HODAALIP@?$AAL?$AA1@ 00000000000cf220     UefiShellDebug1CommandsLib:Pci.obj
 0002:0000f228       ??_C@_1BG@HHFHFDGH@?$AAL?$AA0?$AAs?$AA?5?$AAa?$AAn?$AAd?$AA?5?$AAL?$AA1@ 00000000000cf228     UefiShellDebug1CommandsLib:Pci.obj
 0002:0000f240       ??_C@_1JC@POMDGFJL@?$AA?5?$AA?5?$AAA?$AAc?$AAt?$AAi?$AAv?$AAe?$AA?5?$AAS?$AAt?$AAa?$AAt?$AAe?$AA?5@ 00000000000cf240     UefiShellDebug1CommandsLib:Pci.obj
 0002:0000f2e0       ??_C@_1HO@NKEIDOOB@?$AA?5?$AA?5?$AAL?$AA0?$AAs?$AA?5?$AAE?$AAx?$AAi?$AAt?$AA?5?$AAL?$AAa?$AAt?$AAe@ 00000000000cf2e0     UefiShellDebug1CommandsLib:Pci.obj
 0002:0000f360       ??_C@_1HO@BLGJHOAB@?$AA?5?$AA?5?$AAL?$AA1?$AA?5?$AAE?$AAx?$AAi?$AAt?$AA?5?$AAL?$AAa?$AAt?$AAe?$AAn@ 00000000000cf360     UefiShellDebug1CommandsLib:Pci.obj
 0002:0000f3e0       ??_C@_1HO@HGACLBBN@?$AA?5?$AA?5?$AAC?$AAl?$AAo?$AAc?$AAk?$AA?5?$AAP?$AAo?$AAw?$AAe?$AAr?$AA?5?$AAM@ 00000000000cf3e0     UefiShellDebug1CommandsLib:Pci.obj
 0002:0000f460       ??_C@_1HO@MGNBADFC@?$AA?5?$AA?5?$AAS?$AAu?$AAr?$AAp?$AAr?$AAi?$AAs?$AAe?$AA?5?$AAD?$AAo?$AAw?$AAn@ 00000000000cf460     UefiShellDebug1CommandsLib:Pci.obj
 0002:0000f4e0       ??_C@_1HO@EKMMKHE@?$AA?5?$AA?5?$AAD?$AAa?$AAt?$AAa?$AA?5?$AAL?$AAi?$AAn?$AAk?$AA?5?$AAL?$AAa?$AAy@ 00000000000cf4e0     UefiShellDebug1CommandsLib:Pci.obj
 0002:0000f560       ??_C@_1HO@BLBMJKEI@?$AA?5?$AA?5?$AAL?$AAi?$AAn?$AAk?$AA?5?$AAB?$AAa?$AAn?$AAd?$AAw?$AAi?$AAd?$AAt@ 00000000000cf560     UefiShellDebug1CommandsLib:Pci.obj
 0002:0000f5e0       ??_C@_1IG@BGGCJOF@?$AA?5?$AA?5?$AAP?$AAo?$AAr?$AAt?$AA?5?$AAN?$AAu?$AAm?$AAb?$AAe?$AAr?$AA?$CI?$AA3@ 00000000000cf5e0     UefiShellDebug1CommandsLib:Pci.obj
 0002:0000f670       ??_C@_1HO@PGCJOKAE@?$AA?5?$AA?5?$AAA?$AAc?$AAt?$AAi?$AAv?$AAe?$AA?5?$AAS?$AAt?$AAa?$AAt?$AAe?$AA?5@ 00000000000cf670     UefiShellDebug1CommandsLib:Pci.obj
 0002:0000f6f0       ??_C@_1II@IFDMMLML@?$AA?5?$AA?5?$AAR?$AAe?$AAa?$AAd?$AA?5?$AAC?$AAo?$AAm?$AAp?$AAl?$AAe?$AAt?$AAi@ 00000000000cf6f0     UefiShellDebug1CommandsLib:Pci.obj
 0002:0000f780       ??_C@_1HO@KENJMJBG@?$AA?5?$AA?5?$AAL?$AAi?$AAn?$AAk?$AA?5?$AAD?$AAi?$AAs?$AAa?$AAb?$AAl?$AAe?$AA?$CI@ 00000000000cf780     UefiShellDebug1CommandsLib:Pci.obj
 0002:0000f800       ??_C@_1HO@EOPOHPHO@?$AA?5?$AA?5?$AAC?$AAo?$AAm?$AAm?$AAo?$AAn?$AA?5?$AAC?$AAl?$AAo?$AAc?$AAk?$AA?5@ 00000000000cf800     UefiShellDebug1CommandsLib:Pci.obj
 0002:0000f880       ??_C@_1HO@PCFCBCBK@?$AA?5?$AA?5?$AAE?$AAx?$AAt?$AAe?$AAn?$AAd?$AAe?$AAd?$AA?5?$AAS?$AAy?$AAn?$AAc@ 00000000000cf880     UefiShellDebug1CommandsLib:Pci.obj
 0002:0000f900       ??_C@_1HO@ONMDCMJB@?$AA?5?$AA?5?$AAE?$AAn?$AAa?$AAb?$AAl?$AAe?$AA?5?$AAC?$AAl?$AAo?$AAc?$AAk?$AA?5@ 00000000000cf900     UefiShellDebug1CommandsLib:Pci.obj
 0002:0000f980       ??_C@_1HO@KLHLOFFG@?$AA?5?$AA?5?$AAH?$AAa?$AAr?$AAd?$AAw?$AAa?$AAr?$AAe?$AA?5?$AAA?$AAu?$AAt?$AAo@ 00000000000cf980     UefiShellDebug1CommandsLib:Pci.obj
 0002:0000fa00       ??_C@_1HO@OLNOLBIG@?$AA?5?$AA?5?$AAL?$AAi?$AAn?$AAk?$AA?5?$AAB?$AAa?$AAn?$AAd?$AAw?$AAi?$AAd?$AAt@ 00000000000cfa00     UefiShellDebug1CommandsLib:Pci.obj
 0002:0000fa80       ??_C@_1HO@CKJDBHKB@?$AA?5?$AA?5?$AAL?$AAi?$AAn?$AAk?$AA?5?$AAA?$AAu?$AAt?$AAo?$AAn?$AAo?$AAm?$AAo@ 00000000000cfa80     UefiShellDebug1CommandsLib:Pci.obj
 0002:0000fb00       ??_C@_1HO@FACFEDDH@?$AA?5?$AA?5?$AAC?$AAu?$AAr?$AAr?$AAe?$AAn?$AAt?$AA?5?$AAL?$AAi?$AAn?$AAk?$AA?5@ 00000000000cfb00     UefiShellDebug1CommandsLib:Pci.obj
 0002:0000fb80       ??_C@_1IA@FLJDNCHJ@?$AA?5?$AA?5?$AAN?$AAe?$AAg?$AAo?$AAt?$AAi?$AAa?$AAt?$AAe?$AAd?$AA?5?$AAL?$AAi@ 00000000000cfb80     UefiShellDebug1CommandsLib:Pci.obj
 0002:0000fc00       ??_C@_1HO@GEMKBANG@?$AA?5?$AA?5?$AAL?$AAi?$AAn?$AAk?$AA?5?$AAT?$AAr?$AAa?$AAi?$AAn?$AAi?$AAn?$AAg@ 00000000000cfc00     UefiShellDebug1CommandsLib:Pci.obj
 0002:0000fc80       ??_C@_1HO@EJKKKOMM@?$AA?5?$AA?5?$AAS?$AAl?$AAo?$AAt?$AA?5?$AAC?$AAl?$AAo?$AAc?$AAk?$AA?5?$AAC?$AAo@ 00000000000cfc80     UefiShellDebug1CommandsLib:Pci.obj
 0002:0000fd00       ??_C@_1HO@OCIHIJDB@?$AA?5?$AA?5?$AAD?$AAa?$AAt?$AAa?$AA?5?$AAL?$AAi?$AAn?$AAk?$AA?5?$AAL?$AAa?$AAy@ 00000000000cfd00     UefiShellDebug1CommandsLib:Pci.obj
 0002:0000fd80       ??_C@_1HO@GNJLEODF@?$AA?5?$AA?5?$AAL?$AAi?$AAn?$AAk?$AA?5?$AAB?$AAa?$AAn?$AAd?$AAw?$AAi?$AAd?$AAt@ 00000000000cfd80     UefiShellDebug1CommandsLib:Pci.obj
 0002:0000fe00       ??_C@_1HO@IJPBBAJC@?$AA?5?$AA?5?$AAL?$AAi?$AAn?$AAk?$AA?5?$AAA?$AAu?$AAt?$AAo?$AAn?$AAo?$AAm?$AAo@ 00000000000cfe00     UefiShellDebug1CommandsLib:Pci.obj
 0002:0000fe80       ??_C@_1HO@JJFLBGML@?$AA?5?$AA?5?$AAA?$AAt?$AAt?$AAe?$AAn?$AAt?$AAi?$AAo?$AAn?$AA?5?$AAB?$AAu?$AAt@ 00000000000cfe80     UefiShellDebug1CommandsLib:Pci.obj
 0002:0000ff00       ??_C@_1HO@IEGGKKNI@?$AA?5?$AA?5?$AAP?$AAo?$AAw?$AAe?$AAr?$AA?5?$AAC?$AAo?$AAn?$AAt?$AAr?$AAo?$AAl@ 00000000000cff00     UefiShellDebug1CommandsLib:Pci.obj
 0002:0000ff80       ??_C@_1HO@JLADNJFD@?$AA?5?$AA?5?$AAM?$AAR?$AAL?$AA?5?$AAS?$AAe?$AAn?$AAs?$AAo?$AAr?$AA?5?$AAP?$AAr@ 00000000000cff80     UefiShellDebug1CommandsLib:Pci.obj
 0002:00010000       ??_C@_1HO@DIFAEIHC@?$AA?5?$AA?5?$AAA?$AAt?$AAt?$AAe?$AAn?$AAt?$AAi?$AAo?$AAn?$AA?5?$AAI?$AAn?$AAd@ 00000000000d0000     UefiShellDebug1CommandsLib:Pci.obj
 0002:00010080       ??_C@_1HO@BCFFALPG@?$AA?5?$AA?5?$AAP?$AAo?$AAw?$AAe?$AAr?$AA?5?$AAI?$AAn?$AAd?$AAi?$AAc?$AAa?$AAt@ 00000000000d0080     UefiShellDebug1CommandsLib:Pci.obj
 0002:00010100       ??_C@_1HO@MCHNEOFL@?$AA?5?$AA?5?$AAH?$AAo?$AAt?$AA?9?$AAP?$AAl?$AAu?$AAg?$AA?5?$AAS?$AAu?$AAr?$AAp@ 00000000000d0100     UefiShellDebug1CommandsLib:Pci.obj
 0002:00010180       ??_C@_1HO@GGDJFIAL@?$AA?5?$AA?5?$AAH?$AAo?$AAt?$AA?9?$AAP?$AAl?$AAu?$AAg?$AA?5?$AAC?$AAa?$AAp?$AAa@ 00000000000d0180     UefiShellDebug1CommandsLib:Pci.obj
 0002:00010200       ??_C@_1IG@ELHKLOAO@?$AA?5?$AA?5?$AAS?$AAl?$AAo?$AAt?$AA?5?$AAP?$AAo?$AAw?$AAe?$AAr?$AA?5?$AAL?$AAi@ 00000000000d0200     UefiShellDebug1CommandsLib:Pci.obj
 0002:00010290       ??_C@_1HO@POKCLING@?$AA?5?$AA?5?$AAS?$AAl?$AAo?$AAt?$AA?5?$AAP?$AAo?$AAw?$AAe?$AAr?$AA?5?$AAL?$AAi@ 00000000000d0290     UefiShellDebug1CommandsLib:Pci.obj
 0002:00010310       ??_C@_1HO@LPCJLOLK@?$AA?5?$AA?5?$AAE?$AAl?$AAe?$AAc?$AAt?$AAr?$AAo?$AAm?$AAe?$AAc?$AAh?$AAa?$AAn@ 00000000000d0310     UefiShellDebug1CommandsLib:Pci.obj
 0002:00010390       ??_C@_1HO@CHMPHHCK@?$AA?5?$AA?5?$AAN?$AAo?$AA?5?$AAC?$AAo?$AAm?$AAm?$AAa?$AAn?$AAd?$AA?5?$AAC?$AAo@ 00000000000d0390     UefiShellDebug1CommandsLib:Pci.obj
 0002:00010410       ??_C@_1HO@FFMFLOGE@?$AA?5?$AA?5?$AAP?$AAh?$AAy?$AAs?$AAi?$AAc?$AAa?$AAl?$AA?5?$AAS?$AAl?$AAo?$AAt@ 00000000000d0410     UefiShellDebug1CommandsLib:Pci.obj
 0002:00010490       ??_C@_1HO@CHENGLMM@?$AA?5?$AA?5?$AAA?$AAt?$AAt?$AAe?$AAn?$AAt?$AAi?$AAo?$AAn?$AA?5?$AAB?$AAu?$AAt@ 00000000000d0490     UefiShellDebug1CommandsLib:Pci.obj
 0002:00010510       ??_C@_1HO@IMMNLBNA@?$AA?5?$AA?5?$AAP?$AAo?$AAw?$AAe?$AAr?$AA?5?$AAF?$AAa?$AAu?$AAl?$AAt?$AA?5?$AAD@ 00000000000d0510     UefiShellDebug1CommandsLib:Pci.obj
 0002:00010590       ??_C@_1HO@OOACDIEJ@?$AA?5?$AA?5?$AAM?$AAR?$AAL?$AA?5?$AAS?$AAe?$AAn?$AAs?$AAo?$AAr?$AA?5?$AAC?$AAh@ 00000000000d0590     UefiShellDebug1CommandsLib:Pci.obj
 0002:00010610       ??_C@_1HO@NFCLABLC@?$AA?5?$AA?5?$AAP?$AAr?$AAe?$AAs?$AAe?$AAn?$AAc?$AAe?$AA?5?$AAD?$AAe?$AAt?$AAe@ 00000000000d0610     UefiShellDebug1CommandsLib:Pci.obj
 0002:00010690       ??_C@_1HO@CBGCGHCH@?$AA?5?$AA?5?$AAC?$AAo?$AAm?$AAm?$AAa?$AAn?$AAd?$AA?5?$AAC?$AAo?$AAm?$AAp?$AAl@ 00000000000d0690     UefiShellDebug1CommandsLib:Pci.obj
 0002:00010710       ??_C@_1HO@OFHDEMPC@?$AA?5?$AA?5?$AAH?$AAo?$AAt?$AA?9?$AAP?$AAl?$AAu?$AAg?$AA?5?$AAI?$AAn?$AAt?$AAe@ 00000000000d0710     UefiShellDebug1CommandsLib:Pci.obj
 0002:00010790       ??_C@_1HO@CBADMLH@?$AA?5?$AA?5?$AAA?$AAt?$AAt?$AAe?$AAn?$AAt?$AAi?$AAo?$AAn?$AA?5?$AAI?$AAn?$AAd@ 00000000000d0790     UefiShellDebug1CommandsLib:Pci.obj
 0002:00010810       ??_C@_1HO@LPIMLJDE@?$AA?5?$AA?5?$AAP?$AAo?$AAw?$AAe?$AAr?$AA?5?$AAI?$AAn?$AAd?$AAi?$AAc?$AAa?$AAt@ 00000000000d0810     UefiShellDebug1CommandsLib:Pci.obj
 0002:00010890       ??_C@_1HO@LKCCCMED@?$AA?5?$AA?5?$AAP?$AAo?$AAw?$AAe?$AAr?$AA?5?$AAC?$AAo?$AAn?$AAt?$AAr?$AAo?$AAl@ 00000000000d0890     UefiShellDebug1CommandsLib:Pci.obj
 0002:00010910       ??_C@_1BA@EGOAMDOM@?$AAO?$AAf?$AAf?$AA?$CF?$AAN?$AA?$AN?$AA?6@ 00000000000d0910     UefiShellDebug1CommandsLib:Pci.obj
 0002:00010920       ??_C@_1O@LOEKJBNI@?$AAO?$AAn?$AA?$CF?$AAN?$AA?$AN?$AA?6@ 00000000000d0920     UefiShellDebug1CommandsLib:Pci.obj
 0002:00010930       ??_C@_1HO@LFHFGPOF@?$AA?5?$AA?5?$AAE?$AAl?$AAe?$AAc?$AAt?$AAr?$AAo?$AAm?$AAe?$AAc?$AAh?$AAa?$AAn@ 00000000000d0930     UefiShellDebug1CommandsLib:Pci.obj
 0002:000109b0       ??_C@_1HO@PLMJPIOI@?$AA?5?$AA?5?$AAD?$AAa?$AAt?$AAa?$AA?5?$AAL?$AAi?$AAn?$AAk?$AA?5?$AAL?$AAa?$AAy@ 00000000000d09b0     UefiShellDebug1CommandsLib:Pci.obj
 0002:00010a30       ??_C@_1GE@ODBNHABI@?$AA?5?$AA?5?$AAA?$AAt?$AAt?$AAe?$AAn?$AAt?$AAi?$AAo?$AAn?$AA?5?$AAB?$AAu?$AAt@ 00000000000d0a30     UefiShellDebug1CommandsLib:Pci.obj
 0002:00010aa0       ??_C@_1GE@DDHGKGBN@?$AA?5?$AA?5?$AAP?$AAo?$AAw?$AAe?$AAr?$AA?5?$AAF?$AAa?$AAu?$AAl?$AAt?$AA?5?$AAD@ 00000000000d0aa0     UefiShellDebug1CommandsLib:Pci.obj
 0002:00010b10       ??_C@_1GE@MLGNJMHN@?$AA?5?$AA?5?$AAM?$AAR?$AAL?$AA?5?$AAS?$AAe?$AAn?$AAs?$AAo?$AAr?$AA?5?$AAC?$AAh@ 00000000000d0b10     UefiShellDebug1CommandsLib:Pci.obj
 0002:00010b80       ??_C@_1GE@EJGOJMEO@?$AA?5?$AA?5?$AAP?$AAr?$AAe?$AAs?$AAe?$AAn?$AAc?$AAe?$AA?5?$AAD?$AAe?$AAt?$AAe@ 00000000000d0b80     UefiShellDebug1CommandsLib:Pci.obj
 0002:00010bf0       ??_C@_1GE@MAOPPEGL@?$AA?5?$AA?5?$AAC?$AAo?$AAm?$AAm?$AAa?$AAn?$AAd?$AA?5?$AAC?$AAo?$AAm?$AAp?$AAl@ 00000000000d0bf0     UefiShellDebug1CommandsLib:Pci.obj
 0002:00010c60       ??_C@_1GA@PBCKMNIP@?$AA?5?$AA?5?$AAM?$AAR?$AAL?$AA?5?$AAS?$AAe?$AAn?$AAs?$AAo?$AAr?$AA?5?$AAS?$AAt@ 00000000000d0c60     UefiShellDebug1CommandsLib:Pci.obj
 0002:00010cc0       ??_C@_1BI@EGGCEED@?$AA?5?$AAO?$AAp?$AAe?$AAn?$AAe?$AAd?$AA?$CF?$AAN?$AA?$AN?$AA?6@ 00000000000d0cc0     UefiShellDebug1CommandsLib:Pci.obj
 0002:00010cd8       ??_C@_1BI@CPJMLOMF@?$AA?5?$AAC?$AAl?$AAo?$AAs?$AAe?$AAd?$AA?$CF?$AAN?$AA?$AN?$AA?6@ 00000000000d0cd8     UefiShellDebug1CommandsLib:Pci.obj
 0002:00010cf0       ??_C@_1FE@IDHMEKEC@?$AA?5?$AA?5?$AAP?$AAr?$AAe?$AAs?$AAe?$AAn?$AAc?$AAe?$AA?5?$AAD?$AAe?$AAt?$AAe@ 00000000000d0cf0     UefiShellDebug1CommandsLib:Pci.obj
 0002:00010d48       ??_C@_1DG@HDMNCNJO@?$AA?$CF?$AAE?$AAC?$AAa?$AAr?$AAd?$AA?5?$AAP?$AAr?$AAe?$AAs?$AAe?$AAn?$AAt?$AA?5@ 00000000000d0d48     UefiShellDebug1CommandsLib:Pci.obj
 0002:00010d80       ??_C@_1CC@JDGBFIHB@?$AA?$CF?$AAE?$AAS?$AAl?$AAo?$AAt?$AA?5?$AAE?$AAm?$AAp?$AAt?$AAy?$AA?$CF?$AAN?$AA?$AN@ 00000000000d0d80     UefiShellDebug1CommandsLib:Pci.obj
 0002:00010db0       ??_C@_1JA@FGMPOLDD@?$AA?5?$AA?5?$AAE?$AAl?$AAe?$AAc?$AAt?$AAr?$AAo?$AAm?$AAe?$AAc?$AAh?$AAa?$AAn@ 00000000000d0db0     UefiShellDebug1CommandsLib:Pci.obj
 0002:00010e40       ??_C@_1BI@HMKJPJJJ@?$AAE?$AAn?$AAg?$AAa?$AAg?$AAe?$AAd?$AA?$CF?$AAN?$AA?$AN?$AA?6@ 00000000000d0e40     UefiShellDebug1CommandsLib:Pci.obj
 0002:00010e58       ??_C@_1BO@IMCIBJBI@?$AAD?$AAi?$AAs?$AAe?$AAn?$AAg?$AAa?$AAg?$AAe?$AAd?$AA?$CF?$AAN?$AA?$AN?$AA?6@ 00000000000d0e58     UefiShellDebug1CommandsLib:Pci.obj
 0002:00010e80       ??_C@_1GE@IGGKHOAG@?$AA?5?$AA?5?$AAD?$AAa?$AAt?$AAa?$AA?5?$AAL?$AAi?$AAn?$AAk?$AA?5?$AAL?$AAa?$AAy@ 00000000000d0e80     UefiShellDebug1CommandsLib:Pci.obj
 0002:00010ef0       ??_C@_1HC@JBPDHMHJ@?$AA?5?$AA?5?$AAS?$AAy?$AAs?$AAt?$AAe?$AAm?$AA?5?$AAE?$AAr?$AAr?$AAo?$AAr?$AA?5@ 00000000000d0ef0     UefiShellDebug1CommandsLib:Pci.obj
 0002:00010f70       ??_C@_1HC@JLDOKAK@?$AA?5?$AA?5?$AAS?$AAy?$AAs?$AAt?$AAe?$AAm?$AA?5?$AAE?$AAr?$AAr?$AAo?$AAr?$AA?5@ 00000000000d0f70     UefiShellDebug1CommandsLib:Pci.obj
 0002:00010ff0       ??_C@_1HC@NCFIIDHK@?$AA?5?$AA?5?$AAS?$AAy?$AAs?$AAt?$AAe?$AAm?$AA?5?$AAE?$AAr?$AAr?$AAo?$AAr?$AA?5@ 00000000000d0ff0     UefiShellDebug1CommandsLib:Pci.obj
 0002:00011070       ??_C@_1HC@PBPODCFJ@?$AA?5?$AA?5?$AAP?$AAM?$AAE?$AA?5?$AAI?$AAn?$AAt?$AAe?$AAr?$AAr?$AAu?$AAp?$AAt@ 00000000000d1070     UefiShellDebug1CommandsLib:Pci.obj
 0002:000110f0       ??_C@_1HC@JCCDDEEI@?$AA?5?$AA?5?$AAC?$AAR?$AAS?$AA?5?$AAS?$AAo?$AAf?$AAt?$AAw?$AAa?$AAr?$AAe?$AA?5@ 00000000000d10f0     UefiShellDebug1CommandsLib:Pci.obj
 0002:00011170       ??_C@_1HC@OIKKOENE@?$AA?5?$AA?5?$AAC?$AAR?$AAS?$AA?5?$AAS?$AAo?$AAf?$AAt?$AAw?$AAa?$AAr?$AAe?$AA?5@ 00000000000d1170     UefiShellDebug1CommandsLib:Pci.obj
 0002:000111f0       ??_C@_1HK@BNFJOPIN@?$AA?5?$AA?5?$AAP?$AAM?$AAE?$AA?5?$AAR?$AAe?$AAq?$AAu?$AAe?$AAs?$AAt?$AAe?$AAr@ 00000000000d11f0     UefiShellDebug1CommandsLib:Pci.obj
 0002:00011270       ??_C@_1HC@JILFODAC@?$AA?5?$AA?5?$AAP?$AAM?$AAE?$AA?5?$AAS?$AAt?$AAa?$AAt?$AAu?$AAs?$AA?$CI?$AA1?$AA6@ 00000000000d1270     UefiShellDebug1CommandsLib:Pci.obj
 0002:000112f0       ??_C@_1HC@BBKGBKAD@?$AA?5?$AA?5?$AAP?$AAM?$AAE?$AA?5?$AAP?$AAe?$AAn?$AAd?$AAi?$AAn?$AAg?$AA?$CI?$AA1@ 00000000000d12f0     UefiShellDebug1CommandsLib:Pci.obj
 0002:00011370       ??_C@_1JK@KBMBBAMM@?$AAU?$AAn?$AAk?$AAn?$AAo?$AAw?$AAn?$AA?5?$AAP?$AAC?$AAI?$AAe?$AA?5?$AAe?$AAx@ 00000000000d1370     UefiShellDebug1CommandsLib:Pci.obj
 0002:00011410       ??_C@_1FK@DDPMPKMG@?$AA?$AN?$AA?6?$AAP?$AAc?$AAi?$AA?5?$AAE?$AAx?$AAp?$AAr?$AAe?$AAs?$AAs?$AA?5?$AAd@ 00000000000d1410     UefiShellDebug1CommandsLib:Pci.obj
 0002:000114b0       ??_C@_0FE@KKOPAKB@f?3?2uefiworkspace?2edk2?2ShellPkg?2@ 00000000000d14b0     UefiShellDebug1CommandsLib:HexEdit.obj
 0002:00011508       ??_C@_17PMBBFJPC@?$AAb?$AAi?$AAn@ 00000000000d1508     UefiShellDebug1CommandsLib:HexEdit.obj
 0002:00011550       ??_C@_0EL@EPMHDHHL@f?3?2uefiworkspace?2edk2?2ShellPkg?2@ 00000000000d1550     UefiShellDebug1CommandsLib:MemMap.obj
 0002:000115a0       ??_C@_0N@NCOLDFBP@Version?5?$DN?$DN?51@ 00000000000d15a0     UefiShellDebug1CommandsLib:MemMap.obj
 0002:00011830       ??_C@_1FE@DLJCFBIL@?$AA?5?$AA?5?$AAB?$AAl?$AAo?$AAc?$AAk?$AAS?$AAi?$AAz?$AAe?$AA?3?$AA?5?$AA0?$AAx@ 00000000000d1830     UefiShellDebug1CommandsLib:Dblk.obj
 0002:00011888       ??_C@_1BA@LKDHDFCB@?$AAB?$AAl?$AAo?$AAc?$AAk?$AAI?$AAo@ 00000000000d1888     UefiShellDebug1CommandsLib:Dblk.obj
 0002:000118a0       ??_C@_0EJ@IEDFPOCN@f?3?2uefiworkspace?2edk2?2ShellPkg?2@ 00000000000d18a0     UefiShellDebug1CommandsLib:Dblk.obj
 0002:000118f0       ??_C@_1BA@GHOECOCL@?$AAD?$AAe?$AAf?$AAa?$AAu?$AAl?$AAt@ 00000000000d18f0     UefiShellDebug1CommandsLib:SerMode.obj
 0002:00011900       ??_C@_0EM@IOIJFEKG@f?3?2uefiworkspace?2edk2?2ShellPkg?2@ 00000000000d1900     UefiShellDebug1CommandsLib:SerMode.obj
 0002:00011950       ??_C@_0FC@CKMIJJIA@f?3?2uefiworkspace?2edk2?2ShellPkg?2@ 00000000000d1950     UefiShellDebug1CommandsLib:EfiDecompress.obj
 0002:000119a8       ??_C@_0BK@PNCMJJKN@TempParam?5?$CB?$DN?5?$CI?$CIvoid?5?$CK?$CJ?50?$CJ@ 00000000000d19a8     UefiShellDebug1CommandsLib:EfiDecompress.obj
 0002:000119c8       ??_C@_0BK@KMBEJKOP@Temp64Bit?5?$DM?$DN?5?$CIUINT32?$CJ?$CI?91?$CJ@ 00000000000d19c8     UefiShellDebug1CommandsLib:EfiDecompress.obj
 0002:000119f0       ??_C@_0FA@POJNBLFJ@f?3?2uefiworkspace?2edk2?2ShellPkg?2@ 00000000000d19f0     UefiShellDebug1CommandsLib:EfiCompress.obj
 0002:00011a40       ??_C@_19HMENBLLE@?$AA?9?$AAm?$AAe?$AAm@ 00000000000d1a40     UefiShellDebug1CommandsLib:Mm.obj
 0002:00011a50       ??_C@_17LEBAOONG@?$AA?9?$AAi?$AAo@ 00000000000d1a50     UefiShellDebug1CommandsLib:Mm.obj
 0002:00011a58       ??_C@_19MCMIELAE@?$AA?9?$AAp?$AAc?$AAi@ 00000000000d1a58     UefiShellDebug1CommandsLib:Mm.obj
 0002:00011a68       ??_C@_1M@IJJKJIOF@?$AA?9?$AAp?$AAc?$AAi?$AAe@ 00000000000d1a68     UefiShellDebug1CommandsLib:Mm.obj
 0002:00011a78       ??_C@_0CA@PIKCEAPG@PciRootBridgeIo?5?$CB?$DN?5?$CI?$CIvoid?5?$CK?$CJ?50?$CJ@ 00000000000d1a78     UefiShellDebug1CommandsLib:Mm.obj
 0002:00011aa0       ??_C@_0EH@DDCJFFHH@f?3?2uefiworkspace?2edk2?2ShellPkg?2@ 00000000000d1aa0     UefiShellDebug1CommandsLib:Mm.obj
 0002:00011ae8       mShellMmAccessTypeStr      00000000000d1ae8     UefiShellDebug1CommandsLib:Mm.obj
 0002:00011af8       mShellMmCpuIoWidth         00000000000d1af8     UefiShellDebug1CommandsLib:Mm.obj
 0002:00011af8       mShellMmRootBridgeIoWidth  00000000000d1af8     UefiShellDebug1CommandsLib:Mm.obj
 0002:00011b20       mShellMmMaxNumber          00000000000d1b20     UefiShellDebug1CommandsLib:Mm.obj
 0002:00011bf0       ??_C@_1CA@EBDIENLF@?$AA?$CF?$AAs?$AA?3?$AA?5?$AA?$CF?$AAs?$AA?$AN?$AA?6?$AA?5?$AA?5?$AA?$CF?$AA0?$AA8?$AAx?$AA?3@ 00000000000d1bf0     UefiShellDebug1CommandsLib:Comp.obj
 0002:00011c10       ??_C@_1M@FHJLFHFE@?$AA?5?$AA?$CF?$AA0?$AA2?$AAx@ 00000000000d1c10     UefiShellDebug1CommandsLib:Comp.obj
 0002:00011c20       ??_C@_1M@OCBDMJIC@?$AA?5?$AA?5?$AA?5?$AA?5?$AA?$CK@ 00000000000d1c20     UefiShellDebug1CommandsLib:Comp.obj
 0002:00011c30       ??_C@_17CBEIKNLC@?$AA?$CK?$AA?$AN?$AA?6@ 00000000000d1c30     UefiShellDebug1CommandsLib:Comp.obj
 0002:00011c40       ??_C@_0EJ@EHHECKFD@f?3?2uefiworkspace?2edk2?2ShellPkg?2@ 00000000000d1c40     UefiShellDebug1CommandsLib:Comp.obj
 0002:00011c90       ??_C@_17IIFKAHCJ@?$AAa?$AAl?$AAl@ 00000000000d1c90     UefiShellDebug1CommandsLib:Comp.obj
 0002:00011c98       ??_C@_1M@OBGMLAOD@?$AAF?$AAi?$AAl?$AAe?$AA1@ 00000000000d1c98     UefiShellDebug1CommandsLib:Comp.obj
 0002:00011ca8       ??_C@_1M@PDNJBPAN@?$AAF?$AAi?$AAl?$AAe?$AA2@ 00000000000d1ca8     UefiShellDebug1CommandsLib:Comp.obj
 0002:00011cf0       ??_C@_0FK@MHKMMLEE@f?3?2uefiworkspace?2edk2?2ShellPkg?2@ 00000000000d1cf0     UefiShellDebug1CommandsLib:SmbiosView.obj
 0002:00011d4c       ??_C@_04BPEHKPLM@_SM_@     00000000000d1d4c     UefiShellDebug1CommandsLib:SmbiosView.obj
 0002:00011d60       ??_C@_1HG@KNFKCNDJ@?$AA?$DN?$AA?$DN?$AA?$DN?$AA?$DN?$AA?$DN?$AA?$DN?$AA?$DN?$AA?$DN?$AA?$DN?$AA?$DN?$AA?$DN?$AA?$DN?$AA?$DN?$AA?$DN?$AA?$DN@ 00000000000d1d60     UefiShellDebug1CommandsLib:SmbiosView.obj
 0002:00011dd8       ??_C@_15IABLJNFO@?$AA?6?$AA?6@ 00000000000d1dd8     UefiShellDebug1CommandsLib:SmbiosView.obj
 0002:00011de0       ??_C@_1HI@EMMFGAEE@?$AA?6?$AA?$DN?$AA?$DN?$AA?$DN?$AA?$DN?$AA?$DN?$AA?$DN?$AA?$DN?$AA?$DN?$AA?$DN?$AA?$DN?$AA?$DN?$AA?$DN?$AA?$DN?$AA?$DN@ 00000000000d1de0     UefiShellDebug1CommandsLib:SmbiosView.obj
 0002:00011e58       ??_C@_05LOCGMLNH@_SM3_@    00000000000d1e58     UefiShellDebug1CommandsLib:SmbiosView.obj
 0002:00011e60       ??_C@_1HO@HGFGHOFN@?$AA?6?$AA?$DN?$AA?$DN?$AA?$DN?$AA?$DN?$AA?$DN?$AA?$DN?$AA?$DN?$AA?$DN?$AA?$DN?$AA?$DN?$AA?$DN?$AA?$DN?$AA?$DN?$AA?$DN@ 00000000000d1e60     UefiShellDebug1CommandsLib:SmbiosView.obj
 0002:00011ee0       ??_C@_1HM@CMIKLHNP@?$AA?$DN?$AA?$DN?$AA?$DN?$AA?$DN?$AA?$DN?$AA?$DN?$AA?$DN?$AA?$DN?$AA?$DN?$AA?$DN?$AA?$DN?$AA?$DN?$AA?$DN?$AA?$DN?$AA?$DN@ 00000000000d1ee0     UefiShellDebug1CommandsLib:SmbiosView.obj
 0002:00011f60       ??_C@_1BE@GCIKONEG@?$AAS?$AAH?$AAO?$AAW?$AA_?$AAN?$AAO?$AAN?$AAE@ 00000000000d1f60     UefiShellDebug1CommandsLib:SmbiosView.obj
 0002:00011f78       ??_C@_1BK@GPGPOAOK@?$AAS?$AAH?$AAO?$AAW?$AA_?$AAO?$AAU?$AAT?$AAL?$AAI?$AAN?$AAE@ 00000000000d1f78     UefiShellDebug1CommandsLib:SmbiosView.obj
 0002:00011f98       ??_C@_1BI@IGCEHADI@?$AAS?$AAH?$AAO?$AAW?$AA_?$AAN?$AAO?$AAR?$AAM?$AAA?$AAL@ 00000000000d1f98     UefiShellDebug1CommandsLib:SmbiosView.obj
 0002:00011fb0       ??_C@_1BI@IMGKFKH@?$AAS?$AAH?$AAO?$AAW?$AA_?$AAD?$AAE?$AAT?$AAA?$AAI?$AAL@ 00000000000d1fb0     UefiShellDebug1CommandsLib:SmbiosView.obj
 0002:00011fc8       ??_C@_1BC@OAJPGKLN@?$AAS?$AAH?$AAO?$AAW?$AA_?$AAA?$AAL?$AAL@ 00000000000d1fc8     UefiShellDebug1CommandsLib:SmbiosView.obj
 0002:00011fe0       ??_C@_1BO@MEBFNKNC@?$AAU?$AAn?$AAd?$AAe?$AAf?$AAi?$AAn?$AAe?$AAd?$AA?5?$AAt?$AAy?$AAp?$AAe@ 00000000000d1fe0     UefiShellDebug1CommandsLib:SmbiosView.obj
 0002:00012050       ??_C@_0EP@FKOIKDFD@f?3?2uefiworkspace?2edk2?2ShellPkg?2@ 00000000000d2050     UefiShellDebug1CommandsLib:LoadPciRom.obj
 0002:000120a0       ??_C@_0L@FFCHGHLE@loadpcirom@ 00000000000d20a0     UefiShellDebug1CommandsLib:LoadPciRom.obj
 0002:000120b0       ??_C@_1O@GODHEIDH@?$AA?$CF?$AAs?$AA?$FL?$AA?$CF?$AAd?$AA?$FN@ 00000000000d20b0     UefiShellDebug1CommandsLib:LoadPciRom.obj
 0002:000120e0       ??_C@_0EM@HGIOHAEM@f?3?2uefiworkspace?2edk2?2ShellPkg?2@ 00000000000d20e0     UefiShellDebug1CommandsLib:SetSize.obj
 0002:00012130       ??_C@_17OFPFGFPE@?$AA?$CL?$AAN?$AAV@ 00000000000d2130     UefiShellDebug1CommandsLib:DmpStore.obj
 0002:00012138       ??_C@_1O@PDJDFCIH@?$AA?$CL?$AAR?$AAT?$AA?$CL?$AAB?$AAS@ 00000000000d2138     UefiShellDebug1CommandsLib:DmpStore.obj
 0002:00012148       ??_C@_17KFOJFFLN@?$AA?$CL?$AAB?$AAS@ 00000000000d2148     UefiShellDebug1CommandsLib:DmpStore.obj
 0002:00012150       ??_C@_17LMMOBBLO@?$AA?$CL?$AAH?$AAR@ 00000000000d2150     UefiShellDebug1CommandsLib:DmpStore.obj
 0002:00012158       ??_C@_17KMBPLAEE@?$AA?$CL?$AAA?$AAW@ 00000000000d2158     UefiShellDebug1CommandsLib:DmpStore.obj
 0002:00012160       ??_C@_17LOKKBPKK@?$AA?$CL?$AAA?$AAT@ 00000000000d2160     UefiShellDebug1CommandsLib:DmpStore.obj
 0002:00012168       ??_C@_1BA@EOKOFGEP@?$AAI?$AAn?$AAv?$AAa?$AAl?$AAi?$AAd@ 00000000000d2168     UefiShellDebug1CommandsLib:DmpStore.obj
 0002:00012180       ??_C@_0EN@ELLPJPAE@f?3?2uefiworkspace?2edk2?2ShellPkg?2@ 00000000000d2180     UefiShellDebug1CommandsLib:DmpStore.obj
 0002:000121d0       ??_C@_0DI@CCDCGIJK@?$CIBufferSize?5?$CK?52?5?$CL?51?$CJ?5?$CK?5sizeof?5?$CI@ 00000000000d21d0     UefiShellDebug1CommandsLib:DmpStore.obj
 0002:00012208       ??_C@_19LEFBDIFG@?$AA?9?$AAa?$AAl?$AAl@ 00000000000d2208     UefiShellDebug1CommandsLib:DmpStore.obj
 0002:00012218       ??_C@_1M@EOIAFNLN@?$AA?9?$AAg?$AAu?$AAi?$AAd@ 00000000000d2218     UefiShellDebug1CommandsLib:DmpStore.obj
 0002:00012228       ??_C@_1BC@PGLKLMOO@?$AA?9?$AAl?$AA?5?$AAo?$AAr?$AA?5?$AA?9?$AAs@ 00000000000d2228     UefiShellDebug1CommandsLib:DmpStore.obj
 0002:000122b0       ??_C@_17MEBIPGDC@?$AA?9?$AAb?$AAs@ 00000000000d22b0     UefiShellDebug1CommandsLib:SetVar.obj
 0002:000122b8       ??_C@_17FKBJMMBA@?$AA?9?$AAr?$AAt@ 00000000000d22b8     UefiShellDebug1CommandsLib:SetVar.obj
 0002:000122c0       ??_C@_17IEAEMGHL@?$AA?9?$AAn?$AAv@ 00000000000d22c0     UefiShellDebug1CommandsLib:SetVar.obj
 0002:000122c8       ??_C@_15KHFHDPFH@?$AA?9?$AA?9@ 00000000000d22c8     UefiShellDebug1CommandsLib:SetVar.obj
 0002:000122d0       ??_C@_02DKCKIIND@?$CFs@    00000000000d22d0     UefiShellDebug1CommandsLib:SetVar.obj
 0002:000122d8       ??_C@_0BJ@BGGCNBNB@TempData?5?$CB?$DN?5?$CI?$CIvoid?5?$CK?$CJ?50?$CJ@ 00000000000d22d8     UefiShellDebug1CommandsLib:SetVar.obj
 0002:00012300       ??_C@_0EL@BKJLENFG@f?3?2uefiworkspace?2edk2?2ShellPkg?2@ 00000000000d2300     UefiShellDebug1CommandsLib:SetVar.obj
 0002:00012350       ??_C@_1M@OMOAGDNC@?$AA?$CF?$AA0?$AA2?$AAx?$AA?5@ 00000000000d2350     UefiShellDebug1CommandsLib:SetVar.obj
 0002:000123b0       ??_C@_0EO@BJOGJGKD@f?3?2uefiworkspace?2edk2?2ShellPkg?2@ 00000000000d23b0     UefiShellDebug1CommandsLib:Edit.obj
 0002:00012400       ??_C@_0EJ@HNJMJENC@f?3?2uefiworkspace?2edk2?2ShellPkg?2@ 00000000000d2400     UefiShellDebug1CommandsLib:Mode.obj
 0002:00012450       ??_C@_1O@GIECLFAB@?$AA?$CF?$AAE?$AA?$CF?$AAs?$AA?$CF?$AAN@ 00000000000d2450     UefiShellDebug1CommandsLib:MainHexEditor.obj
 0002:00012460       ??_C@_1BO@CAEDEPBC@?$AAG?$AAo?$AA?5?$AAT?$AAo?$AA?5?$AAO?$AAf?$AAf?$AAs?$AAe?$AAt?$AA?3?$AA?5@ 00000000000d2460     UefiShellDebug1CommandsLib:MainHexEditor.obj
 0002:00012480       ??_C@_1BO@COIEEELA@?$AAI?$AAn?$AAv?$AAa?$AAl?$AAi?$AAd?$AA?5?$AAO?$AAf?$AAf?$AAs?$AAe?$AAt@ 00000000000d2480     UefiShellDebug1CommandsLib:MainHexEditor.obj
 0002:000124a0       ??_C@_1HG@FPDDGJIB@?$AAD?$AAa?$AAn?$AAg?$AAe?$AAr?$AAo?$AAu?$AAs?$AA?5?$AAt?$AAo?$AA?5?$AAs?$AAa@ 00000000000d24a0     UefiShellDebug1CommandsLib:MainHexEditor.obj
 0002:00012518       ??_C@_1DK@LMKJFHLE@?$AAB?$AAu?$AAf?$AAf?$AAe?$AAr?$AAS?$AAa?$AAv?$AAe?$AA?3?$AA?5?$AAP?$AAr?$AAo@ 00000000000d2518     UefiShellDebug1CommandsLib:MainHexEditor.obj
 0002:00012558       ??_C@_1CG@NJHNCLOJ@?$AAF?$AAi?$AAl?$AAe?$AA?5?$AAt?$AAo?$AA?5?$AAS?$AAa?$AAv?$AAe?$AA?3?$AA?5?$AA?$FL@ 00000000000d2558     UefiShellDebug1CommandsLib:MainHexEditor.obj
 0002:00012580       ??_C@_1CE@PAJDEKJB@?$AAI?$AAn?$AAv?$AAa?$AAl?$AAi?$AAd?$AA?5?$AAF?$AAi?$AAl?$AAe?$AA?5?$AAN?$AAa@ 00000000000d2580     UefiShellDebug1CommandsLib:MainHexEditor.obj
 0002:000125a8       ??_C@_1BM@HDPINFLL@?$AAA?$AAc?$AAc?$AAe?$AAs?$AAs?$AA?5?$AAD?$AAe?$AAn?$AAi?$AAe?$AAd@ 00000000000d25a8     UefiShellDebug1CommandsLib:MainHexEditor.obj
 0002:000125d0       ??_C@_1FE@GJKODLCN@?$AAF?$AAi?$AAl?$AAe?$AA?5?$AAe?$AAx?$AAi?$AAs?$AAt?$AAs?$AA?4?$AA?5?$AAO?$AAv@ 00000000000d25d0     UefiShellDebug1CommandsLib:MainHexEditor.obj
 0002:00012628       ??_C@_1CI@CKMNKNGO@?$AAI?$AAn?$AAv?$AAa?$AAl?$AAi?$AAd?$AA?5?$AAB?$AAl?$AAo?$AAc?$AAk?$AA?5?$AAS@ 00000000000d2628     UefiShellDebug1CommandsLib:MainHexEditor.obj
 0002:00012650       ??_C@_1CE@EGEFGBDB@?$AAI?$AAn?$AAv?$AAa?$AAl?$AAi?$AAd?$AA?5?$AAB?$AAl?$AAo?$AAc?$AAk?$AA?5?$AAE@ 00000000000d2650     UefiShellDebug1CommandsLib:MainHexEditor.obj
 0002:00012678       ??_C@_1CK@NPEDAFHE@?$AAN?$AAo?$AA?5?$AAB?$AAl?$AAo?$AAc?$AAk?$AA?5?$AAi?$AAs?$AA?5?$AAS?$AAe?$AAl@ 00000000000d2678     UefiShellDebug1CommandsLib:MainHexEditor.obj
 0002:000126a8       ??_C@_1CC@EMEHDNOH@?$AAN?$AAo?$AAt?$AAh?$AAi?$AAn?$AAg?$AA?5?$AAt?$AAo?$AA?5?$AAP?$AAa?$AAs?$AAt@ 00000000000d26a8     UefiShellDebug1CommandsLib:MainHexEditor.obj
 0002:000126d0       ??_C@_1FC@OIPNEKNP@?$AAB?$AAu?$AAf?$AAf?$AAe?$AAr?$AA?5?$AAm?$AAo?$AAd?$AAi?$AAf?$AAi?$AAe?$AAd@ 00000000000d26d0     UefiShellDebug1CommandsLib:MainHexEditor.obj
 0002:00012728       ??_C@_1CI@PPPODMPB@?$AAF?$AAi?$AAl?$AAe?$AA?5?$AAN?$AAa?$AAm?$AAe?$AA?5?$AAt?$AAo?$AA?5?$AAO?$AAp@ 00000000000d2728     UefiShellDebug1CommandsLib:MainHexEditor.obj
 0002:00012750       ??_C@_1CO@DPNHKEEI@?$AAB?$AAl?$AAo?$AAc?$AAk?$AA?5?$AAD?$AAe?$AAv?$AAi?$AAc?$AAe?$AA?5?$AAt?$AAo@ 00000000000d2750     UefiShellDebug1CommandsLib:MainHexEditor.obj
 0002:00012780       ??_C@_1CE@LPNEOONB@?$AAF?$AAi?$AAr?$AAs?$AAt?$AA?5?$AAB?$AAl?$AAo?$AAc?$AAk?$AA?5?$AAN?$AAo?$AA?4@ 00000000000d2780     UefiShellDebug1CommandsLib:MainHexEditor.obj
 0002:000127a8       ??_C@_1CG@DGHIFMFN@?$AAN?$AAu?$AAm?$AAb?$AAe?$AAr?$AA?5?$AAo?$AAf?$AA?5?$AAB?$AAl?$AAo?$AAc?$AAk@ 00000000000d27a8     UefiShellDebug1CommandsLib:MainHexEditor.obj
 0002:000127d0       ??_C@_1CE@CFGOJKIA@?$AAS?$AAt?$AAa?$AAr?$AAt?$AAi?$AAn?$AAg?$AA?5?$AAO?$AAf?$AAf?$AAs?$AAe?$AAt@ 00000000000d27d0     UefiShellDebug1CommandsLib:MainHexEditor.obj
 0002:000127f8       ??_C@_1BM@CIHHBIME@?$AAB?$AAu?$AAf?$AAf?$AAe?$AAr?$AA?5?$AAS?$AAi?$AAz?$AAe?$AA?3?$AA?5@ 00000000000d27f8     UefiShellDebug1CommandsLib:MainHexEditor.obj
 0002:00012818       ??_C@_1CE@EKGFFJHF@?$AAI?$AAn?$AAv?$AAa?$AAl?$AAi?$AAd?$AA?5?$AAp?$AAa?$AAr?$AAa?$AAm?$AAe?$AAt@ 00000000000d2818     UefiShellDebug1CommandsLib:MainHexEditor.obj
 0002:00012840       ??_C@_1CG@CCBIICDO@?$AAR?$AAe?$AAa?$AAd?$AA?5?$AAD?$AAe?$AAv?$AAi?$AAc?$AAe?$AA?5?$AAE?$AAr?$AAr@ 00000000000d2840     UefiShellDebug1CommandsLib:MainHexEditor.obj
 0002:00012868       ??_C@_1BK@OCMNPPO@?$AAU?$AAE?$AAF?$AAI?$AA?5?$AAH?$AAE?$AAX?$AAE?$AAD?$AAI?$AAT@ 00000000000d2868     UefiShellDebug1CommandsLib:MainHexEditor.obj
 0002:00012890       ??_C@_0FK@JEFMIHHL@f?3?2uefiworkspace?2edk2?2ShellPkg?2@ 00000000000d2890     UefiShellDebug1CommandsLib:MainHexEditor.obj
 0002:000128f0       ??_C@_1DA@GGLHBKOP@?$AAI?$AAn?$AAv?$AAa?$AAl?$AAi?$AAd?$AA?5?$AAM?$AAo?$AAu?$AAs?$AAe?$AA?5?$AAM@ 00000000000d28f0     UefiShellDebug1CommandsLib:MainHexEditor.obj
 0002:00012920       ??_C@_1CA@DIEHGKLA@?$AAU?$AAn?$AAk?$AAn?$AAo?$AAw?$AAn?$AA?5?$AAC?$AAo?$AAm?$AAm?$AAa?$AAn?$AAd@ 00000000000d2920     UefiShellDebug1CommandsLib:MainHexEditor.obj
 0002:00012940       ??_C@_1CM@BMOMFGJM@?$AAD?$AAi?$AAs?$AAk?$AA?5?$AAE?$AAr?$AAr?$AAo?$AAr?$AA?4?$AA?5?$AAT?$AAr?$AAy@ 00000000000d2940     UefiShellDebug1CommandsLib:MainHexEditor.obj
 0002:00012970       ??_C@_1FK@DGMBPBDL@?$AAD?$AAi?$AAs?$AAk?$AA?1?$AAM?$AAe?$AAm?$AA?5?$AAB?$AAu?$AAf?$AAf?$AAe?$AAr@ 00000000000d2970     UefiShellDebug1CommandsLib:MainHexEditor.obj
 0002:000129d0       HexEditorMenuItems         00000000000d29d0     UefiShellDebug1CommandsLib:MainHexEditor.obj
 0002:00012a80       ??_C@_13NOLLCAOD@?$AA?$AA@ 00000000000d2a80     UefiShellDebug1CommandsLib:EditStatusBar.obj
 0002:00012a88       ??_C@_1CA@EIJGJGPK@?$AA?5?$AA?$CF?$AAd?$AA?0?$AA?$CF?$AAd?$AA?5?$AA?5?$AA?5?$AA?5?$AA?5?$AA?5?$AA?5?$AA?$CF?$AAs@ 00000000000d2a88     UefiShellDebug1CommandsLib:EditStatusBar.obj
 0002:00012aa8       ??_C@_19IELFGNPI@?$AA?5?$AA?5?$AA?$CF?$AAs@ 00000000000d2aa8     UefiShellDebug1CommandsLib:EditStatusBar.obj
 0002:00012ab8       ??_C@_17EAOFDCAA@?$AAI?$AAN?$AAS@ 00000000000d2ab8     UefiShellDebug1CommandsLib:EditStatusBar.obj
 0002:00012ac0       ??_C@_1CI@GJADLICD@?$AA?$HM?$AA?$CF?$AAs?$AA?$HM?$AA?5?$AA?5?$AA?5?$AAH?$AAe?$AAl?$AAp?$AA?3?$AA?5?$AAC?$AAt@ 00000000000d2ac0     UefiShellDebug1CommandsLib:EditStatusBar.obj
 0002:00012ae8       ??_C@_17NBLDNMBE@?$AAO?$AAV?$AAR@ 00000000000d2ae8     UefiShellDebug1CommandsLib:EditStatusBar.obj
 0002:00012af0       ??_C@_19KDMGDCHB@?$AA?$CF?$AA8?$AAX?$AA?5@ 00000000000d2af0     UefiShellDebug1CommandsLib:BufferImage.obj
 0002:00012b00       ??_C@_17GMAIGMDG@?$AA?$CF?$AAx?$AA?5@ 00000000000d2b00     UefiShellDebug1CommandsLib:BufferImage.obj
 0002:00012b08       ??_C@_19GNCKHPDA@?$AA?$CF?$AAx?$AA?5?$AA?5@ 00000000000d2b08     UefiShellDebug1CommandsLib:BufferImage.obj
 0002:00012b18       ??_C@_19NMAFMAH@?$AA?5?$AA?5?$AA?5?$AA?5@ 00000000000d2b18     UefiShellDebug1CommandsLib:BufferImage.obj
 0002:00012b28       ??_C@_17MEDFOIMI@?$AA?5?$AA?5?$AA?5@ 00000000000d2b28     UefiShellDebug1CommandsLib:BufferImage.obj
 0002:00012b30       ??_C@_15LHNHECKK@?$AA?$CF?$AAx@ 00000000000d2b30     UefiShellDebug1CommandsLib:BufferImage.obj
 0002:00012b40       ??_C@_0FI@LAHIBOIP@f?3?2uefiworkspace?2edk2?2ShellPkg?2@ 00000000000d2b40     UefiShellDebug1CommandsLib:BufferImage.obj
 0002:00012b98       ??_C@_0CC@BIMOOGMB@?$CILoopVar3?$CL2?$CJ?5?$DM?5?$CI2?5?$CK?5?$CI16?5?$CL?53?$CJ?5?9?5@ 00000000000d2b98     UefiShellDebug1CommandsLib:Compress.obj
 0002:00012bc0       ??_C@_0EN@MGFOKNIG@f?3?2uefiworkspace?2edk2?2ShellPkg?2@ 00000000000d2bc0     UefiShellDebug1CommandsLib:Compress.obj
 0002:00012c10       ??_C@_0BI@DNEPNPFI@?$CILoopVar3?$CL2?$CJ?5?$DM?5?$CI16?5?$CL?53?$CJ@ 00000000000d2c10     UefiShellDebug1CommandsLib:Compress.obj
 0002:00012c28       ??_C@_1BI@HGBJBAKG@?$AAV?$AAe?$AAn?$AAd?$AAo?$AAr?$AA?3?$AA?5?$AA?$CF?$AAa?$AA?6@ 00000000000d2c28     UefiShellDebug1CommandsLib:PrintInfo.obj
 0002:00012c40       ??_C@_1CE@KJFHFJLB@?$AAB?$AAI?$AAO?$AAS?$AA?5?$AAV?$AAe?$AAr?$AAs?$AAi?$AAo?$AAn?$AA?3?$AA?5?$AA?$CF@ 00000000000d2c40     UefiShellDebug1CommandsLib:PrintInfo.obj
 0002:00012c70       ??_C@_1EK@DPFHFGHG@?$AAB?$AAI?$AAO?$AAS?$AA?5?$AAS?$AAt?$AAa?$AAr?$AAt?$AAi?$AAn?$AAg?$AA?5?$AAA@ 00000000000d2c70     UefiShellDebug1CommandsLib:PrintInfo.obj
 0002:00012cc0       ??_C@_1CO@BCGFMJKD@?$AAB?$AAI?$AAO?$AAS?$AA?5?$AAR?$AAe?$AAl?$AAe?$AAa?$AAs?$AAe?$AA?5?$AAD?$AAa@ 00000000000d2cc0     UefiShellDebug1CommandsLib:PrintInfo.obj
 0002:00012cf0       ??_C@_1DO@OEJOMCOI@?$AAS?$AAy?$AAs?$AAt?$AAe?$AAm?$AA?5?$AAB?$AAI?$AAO?$AAS?$AA?5?$AAM?$AAa?$AAj@ 00000000000d2cf0     UefiShellDebug1CommandsLib:PrintInfo.obj
 0002:00012d30       ??_C@_1DO@GDHDHBO@?$AAS?$AAy?$AAs?$AAt?$AAe?$AAm?$AA?5?$AAB?$AAI?$AAO?$AAS?$AA?5?$AAM?$AAi?$AAn@ 00000000000d2d30     UefiShellDebug1CommandsLib:PrintInfo.obj
 0002:00012d70       ??_C@_1GA@HGMJHCHH@?$AAE?$AAm?$AAb?$AAe?$AAd?$AAd?$AAe?$AAd?$AA?5?$AAC?$AAo?$AAn?$AAt?$AAr?$AAo@ 00000000000d2d70     UefiShellDebug1CommandsLib:PrintInfo.obj
 0002:00012dd0       ??_C@_1GA@JEGAIHIB@?$AAE?$AAm?$AAb?$AAe?$AAd?$AAd?$AAe?$AAd?$AA?5?$AAC?$AAo?$AAn?$AAt?$AAr?$AAo@ 00000000000d2dd0     UefiShellDebug1CommandsLib:PrintInfo.obj
 0002:00012e30       ??_C@_15MMOGNHFI@?$AAM?$AAB@ 00000000000d2e30     UefiShellDebug1CommandsLib:PrintInfo.obj
 0002:00012e38       ??_C@_15GNHNPEDO@?$AAG?$AAB@ 00000000000d2e38     UefiShellDebug1CommandsLib:PrintInfo.obj
 0002:00012e40       ??_C@_0N@BBNLMPJO@Manufacturer@ 00000000000d2e40     UefiShellDebug1CommandsLib:PrintInfo.obj
 0002:00012e50       ??_C@_15JKMGFKLP@?$AA?$CF?$AAa@ 00000000000d2e50     UefiShellDebug1CommandsLib:PrintInfo.obj
 0002:00012e58       ??_C@_1M@CIOKLEIM@?$AA?3?$AA?5?$AA?$CF?$AAa?$AA?6@ 00000000000d2e58     UefiShellDebug1CommandsLib:PrintInfo.obj
 0002:00012e68       ??_C@_0M@MNPNDAHP@ProductName@ 00000000000d2e68     UefiShellDebug1CommandsLib:PrintInfo.obj
 0002:00012e78       ??_C@_07NGFJPNPN@Version@  00000000000d2e78     UefiShellDebug1CommandsLib:PrintInfo.obj
 0002:00012e80       ??_C@_0N@FPJJBBNM@SerialNumber@ 00000000000d2e80     UefiShellDebug1CommandsLib:PrintInfo.obj
 0002:00012e90       ??_C@_04NDFIEGPL@Uuid@     00000000000d2e90     UefiShellDebug1CommandsLib:PrintInfo.obj
 0002:00012e98       ??_C@_09ODBEMGCH@SKUNumber@ 00000000000d2e98     UefiShellDebug1CommandsLib:PrintInfo.obj
 0002:00012ea4       ??_C@_06BOFMEHLD@Family@   00000000000d2ea4     UefiShellDebug1CommandsLib:PrintInfo.obj
 0002:00012eb0       ??_C@_08FMONLMLE@AssetTag@ 00000000000d2eb0     UefiShellDebug1CommandsLib:PrintInfo.obj
 0002:00012ec0       ??_C@_0BC@OMHLHKAK@LocationInChassis@ 00000000000d2ec0     UefiShellDebug1CommandsLib:PrintInfo.obj
 0002:00012ed8       ??_C@_0O@CDHHDFJM@ChassisHandle@ 00000000000d2ed8     UefiShellDebug1CommandsLib:PrintInfo.obj
 0002:00012ee8       ??_C@_1BA@BDGGMDCP@?$AA?3?$AA?5?$AA0?$AAx?$AA?$CF?$AAx?$AA?6@ 00000000000d2ee8     UefiShellDebug1CommandsLib:PrintInfo.obj
 0002:00012ef8       ??_C@_04KOACHJEN@Type@     00000000000d2ef8     UefiShellDebug1CommandsLib:PrintInfo.obj
 0002:00012f00       ??_C@_1M@LAKNPEAB@?$AA?3?$AA?5?$AA?$CF?$AAu?$AA?6@ 00000000000d2f00     UefiShellDebug1CommandsLib:PrintInfo.obj
 0002:00012f10       ??_C@_0L@OBIIHLIL@OemDefined@ 00000000000d2f10     UefiShellDebug1CommandsLib:PrintInfo.obj
 0002:00012f1c       ??_C@_06HCAKHJJK@Height@   00000000000d2f1c     UefiShellDebug1CommandsLib:PrintInfo.obj
 0002:00012f28       ??_C@_0BD@KNMGNFOC@NumberofPowerCords@ 00000000000d2f28     UefiShellDebug1CommandsLib:PrintInfo.obj
 0002:00012f40       ??_C@_0BG@EPMALLNM@ContainedElementCount@ 00000000000d2f40     UefiShellDebug1CommandsLib:PrintInfo.obj
 0002:00012f58       ??_C@_0BN@JOCNKJCF@ContainedElementRecordLength@ 00000000000d2f58     UefiShellDebug1CommandsLib:PrintInfo.obj
 0002:00012f78       ??_C@_1M@OLEMGGOE@?$AA?$CF?$AA0?$AA2?$AAX?$AA?5@ 00000000000d2f78     UefiShellDebug1CommandsLib:PrintInfo.obj
 0002:00012f88       ??_C@_1DA@KGGOAIBL@?$AAS?$AAo?$AAc?$AAk?$AAe?$AAt?$AA?5?$AAD?$AAe?$AAs?$AAi?$AAg?$AAn?$AAa?$AAt@ 00000000000d2f88     UefiShellDebug1CommandsLib:PrintInfo.obj
 0002:00012fb8       ??_C@_1DI@ELBAAMBN@?$AAP?$AAr?$AAo?$AAc?$AAe?$AAs?$AAs?$AAo?$AAr?$AA?5?$AAM?$AAa?$AAn?$AAu?$AAf@ 00000000000d2fb8     UefiShellDebug1CommandsLib:PrintInfo.obj
 0002:00012ff0       ??_C@_1CO@GNIKGEEB@?$AAP?$AAr?$AAo?$AAc?$AAe?$AAs?$AAs?$AAo?$AAr?$AA?5?$AAV?$AAe?$AAr?$AAs?$AAi@ 00000000000d2ff0     UefiShellDebug1CommandsLib:PrintInfo.obj
 0002:00013020       ??_C@_1CI@NGCBDILH@?$AAE?$AAx?$AAt?$AAe?$AAr?$AAn?$AAa?$AAl?$AA?5?$AAC?$AAl?$AAo?$AAc?$AAk?$AA?3@ 00000000000d3020     UefiShellDebug1CommandsLib:PrintInfo.obj
 0002:00013048       ??_C@_1BO@HGKEKLIA@?$AAM?$AAa?$AAx?$AA?5?$AAS?$AAp?$AAe?$AAe?$AAd?$AA?3?$AA?5?$AA?$CF?$AAu?$AA?6@ 00000000000d3048     UefiShellDebug1CommandsLib:PrintInfo.obj
 0002:00013068       ??_C@_1CG@KGEENJA@?$AAC?$AAu?$AAr?$AAr?$AAe?$AAn?$AAt?$AA?5?$AAS?$AAp?$AAe?$AAe?$AAd?$AA?3?$AA?5@ 00000000000d3068     UefiShellDebug1CommandsLib:PrintInfo.obj
 0002:00013090       ??_C@_1CO@CCELLHEG@?$AAL?$AA1?$AA?5?$AAC?$AAa?$AAc?$AAh?$AAe?$AA?5?$AAH?$AAa?$AAn?$AAd?$AAl?$AAe@ 00000000000d3090     UefiShellDebug1CommandsLib:PrintInfo.obj
 0002:000130c0       ??_C@_1CO@FMDDPPOA@?$AAL?$AA2?$AA?5?$AAC?$AAa?$AAc?$AAh?$AAe?$AA?5?$AAH?$AAa?$AAn?$AAd?$AAl?$AAe@ 00000000000d30c0     UefiShellDebug1CommandsLib:PrintInfo.obj
 0002:000130f0       ??_C@_1CO@HGBLMHIC@?$AAL?$AA3?$AA?5?$AAC?$AAa?$AAc?$AAh?$AAe?$AA?5?$AAH?$AAa?$AAn?$AAd?$AAl?$AAe@ 00000000000d30f0     UefiShellDebug1CommandsLib:PrintInfo.obj
 0002:00013120       ??_C@_1CG@COOLGAOF@?$AAS?$AAe?$AAr?$AAi?$AAa?$AAl?$AA?5?$AAN?$AAu?$AAm?$AAb?$AAe?$AAr?$AA?3?$AA?5@ 00000000000d3120     UefiShellDebug1CommandsLib:PrintInfo.obj
 0002:00013148       ??_C@_1BO@FKDMAPGK@?$AAA?$AAs?$AAs?$AAe?$AAt?$AA?5?$AAT?$AAa?$AAg?$AA?3?$AA?5?$AA?$CF?$AAa?$AA?6@ 00000000000d3148     UefiShellDebug1CommandsLib:PrintInfo.obj
 0002:00013168       ??_C@_1CC@PAJEONFE@?$AAP?$AAa?$AAr?$AAt?$AA?5?$AAN?$AAu?$AAm?$AAb?$AAe?$AAr?$AA?3?$AA?5?$AA?$CF?$AAa@ 00000000000d3168     UefiShellDebug1CommandsLib:PrintInfo.obj
 0002:00013190       ??_C@_1CA@EGNOIHGB@?$AAC?$AAo?$AAr?$AAe?$AA?5?$AAC?$AAo?$AAu?$AAn?$AAt?$AA?3?$AA?5?$AA?$CF?$AAu?$AA?6@ 00000000000d3190     UefiShellDebug1CommandsLib:PrintInfo.obj
 0002:000131b0       ??_C@_1CE@GNJONLKG@?$AAC?$AAo?$AAr?$AAe?$AA?5?$AAE?$AAn?$AAa?$AAb?$AAl?$AAe?$AAd?$AA?3?$AA?5?$AA?$CF@ 00000000000d31b0     UefiShellDebug1CommandsLib:PrintInfo.obj
 0002:000131d8       ??_C@_1CE@JFFJBLPL@?$AAT?$AAh?$AAr?$AAe?$AAa?$AAd?$AA?5?$AAC?$AAo?$AAu?$AAn?$AAt?$AA?3?$AA?5?$AA?$CF@ 00000000000d31d8     UefiShellDebug1CommandsLib:PrintInfo.obj
 0002:00013200       ??_C@_1CE@EHBJNOEJ@?$AAC?$AAo?$AAr?$AAe?$AA?5?$AAC?$AAo?$AAu?$AAn?$AAt?$AA?5?$AA2?$AA?3?$AA?5?$AA?$CF@ 00000000000d3200     UefiShellDebug1CommandsLib:PrintInfo.obj
 0002:00013228       ??_C@_1CI@JFOAGJGH@?$AAC?$AAo?$AAr?$AAe?$AA?5?$AAE?$AAn?$AAa?$AAb?$AAl?$AAe?$AAd?$AA?5?$AA2?$AA?3@ 00000000000d3228     UefiShellDebug1CommandsLib:PrintInfo.obj
 0002:00013250       ??_C@_1CI@KPFBDPP@?$AAT?$AAh?$AAr?$AAe?$AAa?$AAd?$AA?5?$AAC?$AAo?$AAu?$AAn?$AAt?$AA?5?$AA2?$AA?3@ 00000000000d3250     UefiShellDebug1CommandsLib:PrintInfo.obj
 0002:00013278       ??_C@_0BI@HCBPJEAD@AssociatedMemorySlotNum@ 00000000000d3278     UefiShellDebug1CommandsLib:PrintInfo.obj
 0002:00013290       ??_C@_0BC@GCIFEBIL@SocketDesignation@ 00000000000d3290     UefiShellDebug1CommandsLib:PrintInfo.obj
 0002:000132a8       ??_C@_0N@ODNILEPO@CurrentSpeed@ 00000000000d32a8     UefiShellDebug1CommandsLib:PrintInfo.obj
 0002:000132b8       ??_C@_0BB@JDAJEIIK@MaximumCacheSize@ 00000000000d32b8     UefiShellDebug1CommandsLib:PrintInfo.obj
 0002:000132d0       ??_C@_0O@BJDNNDOA@InstalledSize@ 00000000000d32d0     UefiShellDebug1CommandsLib:PrintInfo.obj
 0002:000132e0       ??_C@_0BC@OLPHMDNB@SupportedSRAMType@ 00000000000d32e0     UefiShellDebug1CommandsLib:PrintInfo.obj
 0002:000132f8       ??_C@_0BA@CHMIDALO@CurrentSRAMType@ 00000000000d32f8     UefiShellDebug1CommandsLib:PrintInfo.obj
 0002:00013308       ??_C@_0L@GKCEABFB@CacheSpeed@ 00000000000d3308     UefiShellDebug1CommandsLib:PrintInfo.obj
 0002:00013318       ??_C@_0BC@OAIODHAH@MaximumCacheSize2@ 00000000000d3318     UefiShellDebug1CommandsLib:PrintInfo.obj
 0002:00013330       ??_C@_0P@ENGDILNK@InstalledSize2@ 00000000000d3330     UefiShellDebug1CommandsLib:PrintInfo.obj
 0002:00013340       ??_C@_0BM@JBGCGAG@InternalReferenceDesignator@ 00000000000d3340     UefiShellDebug1CommandsLib:PrintInfo.obj
 0002:00013360       ??_C@_1BE@ELLAGAB@?$AAI?$AAn?$AAt?$AAe?$AAr?$AAn?$AAa?$AAl?$AA?5@ 00000000000d3360     UefiShellDebug1CommandsLib:PrintInfo.obj
 0002:00013378       ??_C@_0BM@OAEDMMAI@ExternalReferenceDesignator@ 00000000000d3378     UefiShellDebug1CommandsLib:PrintInfo.obj
 0002:00013398       ??_C@_0BA@JKMEMADA@SlotDesignation@ 00000000000d3398     UefiShellDebug1CommandsLib:PrintInfo.obj
 0002:000133a8       ??_C@_0BA@BMLFAHJE@SegmentGroupNum@ 00000000000d33a8     UefiShellDebug1CommandsLib:PrintInfo.obj
 0002:000133b8       ??_C@_06KNDINCOD@BusNum@   00000000000d33b8     UefiShellDebug1CommandsLib:PrintInfo.obj
 0002:000133c0       ??_C@_0L@CPCJGBL@DevFuncNum@ 00000000000d33c0     UefiShellDebug1CommandsLib:PrintInfo.obj
 0002:000133d0       ??_C@_0N@EIPDDONP@DataBusWidth@ 00000000000d33d0     UefiShellDebug1CommandsLib:PrintInfo.obj
 0002:000133e0       ??_C@_0BC@HIAOFHP@PeerGroupingCount@ 00000000000d33e0     UefiShellDebug1CommandsLib:PrintInfo.obj
 0002:000133f8       ??_C@_1CA@MEEPCHDM@?$AAD?$AAe?$AAv?$AAi?$AAc?$AAe?$AA?5?$AAE?$AAn?$AAa?$AAb?$AAl?$AAe?$AAd?$AA?6@ 00000000000d33f8     UefiShellDebug1CommandsLib:PrintInfo.obj
 0002:00013418       ??_C@_1CC@MLJLHBNL@?$AAD?$AAe?$AAv?$AAi?$AAc?$AAe?$AA?5?$AAD?$AAi?$AAs?$AAa?$AAb?$AAl?$AAe?$AAd@ 00000000000d3418     UefiShellDebug1CommandsLib:PrintInfo.obj
 0002:00013440       ??_C@_17IHFOHADP@?$AA?$CF?$AAa?$AA?6@ 00000000000d3440     UefiShellDebug1CommandsLib:PrintInfo.obj
 0002:00013448       ??_C@_0M@MPGNKAIN@StringCount@ 00000000000d3448     UefiShellDebug1CommandsLib:PrintInfo.obj
 0002:00013458       ??_C@_0BF@JGHHIKJK@InstallableLanguages@ 00000000000d3458     UefiShellDebug1CommandsLib:PrintInfo.obj
 0002:00013470       ??_C@_05BOOEKJH@Flags@     00000000000d3470     UefiShellDebug1CommandsLib:PrintInfo.obj
 0002:00013478       ??_C@_08NKCLJDKG@Reserved@ 00000000000d3478     UefiShellDebug1CommandsLib:PrintInfo.obj
 0002:00013488       ??_C@_0BB@PDMACJCC@CurrentLanguages@ 00000000000d3488     UefiShellDebug1CommandsLib:PrintInfo.obj
 0002:000134a0       ??_C@_09DOCDJBIG@GroupName@ 00000000000d34a0     UefiShellDebug1CommandsLib:PrintInfo.obj
 0002:000134b0       ??_C@_1CC@IANCIAGE@?$AAI?$AAt?$AAe?$AAm?$AAT?$AAy?$AAp?$AAe?$AA?5?$AA?$CF?$AAu?$AA?3?$AA?5?$AA?$CF?$AAu@ 00000000000d34b0     UefiShellDebug1CommandsLib:PrintInfo.obj
 0002:000134d8       ??_C@_1CG@HBPOLCFH@?$AAI?$AAt?$AAe?$AAm?$AAH?$AAa?$AAn?$AAd?$AAl?$AAe?$AA?5?$AA?$CF?$AAu?$AA?3?$AA?5@ 00000000000d34d8     UefiShellDebug1CommandsLib:PrintInfo.obj
 0002:00013500       ??_C@_0O@HKDDDLBN@LogAreaLength@ 00000000000d3500     UefiShellDebug1CommandsLib:PrintInfo.obj
 0002:00013510       ??_C@_0BF@GDDPPJHL@LogHeaderStartOffset@ 00000000000d3510     UefiShellDebug1CommandsLib:PrintInfo.obj
 0002:00013528       ??_C@_0BD@CAPEPFNK@LogDataStartOffset@ 00000000000d3528     UefiShellDebug1CommandsLib:PrintInfo.obj
 0002:00013540       ??_C@_0BE@NOKFPJBG@AccessMethodAddress@ 00000000000d3540     UefiShellDebug1CommandsLib:PrintInfo.obj
 0002:00013558       ??_C@_0P@NPBNLBCA@LogChangeToken@ 00000000000d3558     UefiShellDebug1CommandsLib:PrintInfo.obj
 0002:00013568       ??_C@_0CE@KLHOMLO@NumberOfSupportedLogTypeDescrip@ 00000000000d3568     UefiShellDebug1CommandsLib:PrintInfo.obj
 0002:00013590       ??_C@_0BK@HHOAKNBO@LengthOfLogTypeDescriptor@ 00000000000d3590     UefiShellDebug1CommandsLib:PrintInfo.obj
 0002:000135b0       ??_C@_0BA@GDFDNLEE@MaximumCapacity@ 00000000000d35b0     UefiShellDebug1CommandsLib:PrintInfo.obj
 0002:000135c0       ??_C@_0BN@JFCNOMK@MemoryErrorInformationHandle@ 00000000000d35c0     UefiShellDebug1CommandsLib:PrintInfo.obj
 0002:000135e0       ??_C@_0BG@GGCPJPGF@NumberOfMemoryDevices@ 00000000000d35e0     UefiShellDebug1CommandsLib:PrintInfo.obj
 0002:000135f8       ??_C@_0BI@KHLPJKF@ExtendedMaximumCapacity@ 00000000000d35f8     UefiShellDebug1CommandsLib:PrintInfo.obj
 0002:00013610       ??_C@_1BC@MBNHMLHO@?$AA?3?$AA?5?$AA0?$AAx?$AA?$CF?$AAl?$AAx?$AA?6@ 00000000000d3610     UefiShellDebug1CommandsLib:PrintInfo.obj
 0002:00013630       ??_C@_1EI@NABGLLKB@?$AAP?$AAh?$AAy?$AAs?$AAi?$AAc?$AAa?$AAl?$AA?5?$AAM?$AAe?$AAm?$AAo?$AAr?$AAy@ 00000000000d3630     UefiShellDebug1CommandsLib:PrintInfo.obj
 0002:00013680       ??_C@_1EO@FIGCECHL@?$AAM?$AAe?$AAm?$AAo?$AAr?$AAy?$AA?5?$AAE?$AAr?$AAr?$AAo?$AAr?$AA?5?$AAI?$AAn@ 00000000000d3680     UefiShellDebug1CommandsLib:PrintInfo.obj
 0002:000136d0       ??_C@_1CG@LEIDDFGH@?$AAT?$AAo?$AAt?$AAa?$AAl?$AA?5?$AAW?$AAi?$AAd?$AAt?$AAh?$AA?3?$AA?5?$AA0?$AAx@ 00000000000d36d0     UefiShellDebug1CommandsLib:PrintInfo.obj
 0002:000136f8       ??_C@_1CE@OFIENBHE@?$AAD?$AAa?$AAt?$AAa?$AA?5?$AAW?$AAi?$AAd?$AAt?$AAh?$AA?3?$AA?5?$AA0?$AAx?$AA?$CF@ 00000000000d36f8     UefiShellDebug1CommandsLib:PrintInfo.obj
 0002:0001371c       ??_C@_04EBKMHHBE@Size@     00000000000d371c     UefiShellDebug1CommandsLib:PrintInfo.obj
 0002:00013728       ??_C@_1CE@KOOMJGOG@?$AAD?$AAe?$AAv?$AAi?$AAc?$AAe?$AA?5?$AAS?$AAe?$AAt?$AA?3?$AA?5?$AA0?$AAx?$AA?$CF@ 00000000000d3728     UefiShellDebug1CommandsLib:PrintInfo.obj
 0002:00013750       ??_C@_1CI@JNMNIHFL@?$AAD?$AAe?$AAv?$AAi?$AAc?$AAe?$AA?5?$AAL?$AAo?$AAc?$AAa?$AAt?$AAo?$AAr?$AA?3@ 00000000000d3750     UefiShellDebug1CommandsLib:PrintInfo.obj
 0002:00013778       ??_C@_1CE@JLONGHPJ@?$AAB?$AAa?$AAn?$AAk?$AA?5?$AAL?$AAo?$AAc?$AAa?$AAt?$AAo?$AAr?$AA?3?$AA?5?$AA?$CF@ 00000000000d3778     UefiShellDebug1CommandsLib:PrintInfo.obj
 0002:0001379c       ??_C@_05HOIAGEJD@Speed@    00000000000d379c     UefiShellDebug1CommandsLib:PrintInfo.obj
 0002:000137a8       ??_C@_0L@PLFFHFAH@Attributes@ 00000000000d37a8     UefiShellDebug1CommandsLib:PrintInfo.obj
 0002:000137b8       ??_C@_1CG@MMEDNAGI@?$AAE?$AAx?$AAt?$AAe?$AAn?$AAd?$AAe?$AAd?$AA?5?$AAS?$AAi?$AAz?$AAe?$AA?3?$AA?5@ 00000000000d37b8     UefiShellDebug1CommandsLib:PrintInfo.obj
 0002:000137e0       ??_C@_1DO@JMDAHFDH@?$AAC?$AAo?$AAn?$AAf?$AAi?$AAg?$AAu?$AAr?$AAe?$AAd?$AA?5?$AAM?$AAe?$AAm?$AAo@ 00000000000d37e0     UefiShellDebug1CommandsLib:PrintInfo.obj
 0002:00013820       ??_C@_1CK@DDLIHMEF@?$AAM?$AAi?$AAn?$AAi?$AAm?$AAu?$AAm?$AA?5?$AAv?$AAo?$AAl?$AAt?$AAa?$AAg?$AAe@ 00000000000d3820     UefiShellDebug1CommandsLib:PrintInfo.obj
 0002:00013850       ??_C@_1CK@GHKJAOBJ@?$AAM?$AAa?$AAx?$AAi?$AAm?$AAu?$AAm?$AA?5?$AAv?$AAo?$AAl?$AAt?$AAa?$AAg?$AAe@ 00000000000d3850     UefiShellDebug1CommandsLib:PrintInfo.obj
 0002:00013880       ??_C@_1DA@DDDCCOLD@?$AAC?$AAo?$AAn?$AAf?$AAi?$AAg?$AAu?$AAr?$AAe?$AAd?$AA?5?$AAv?$AAo?$AAl?$AAt@ 00000000000d3880     UefiShellDebug1CommandsLib:PrintInfo.obj
 0002:000138b0       ??_C@_1CM@FANBMOL@?$AAF?$AAi?$AAr?$AAm?$AAw?$AAa?$AAr?$AAe?$AA?5?$AAV?$AAe?$AAr?$AAs?$AAi?$AAo@ 00000000000d38b0     UefiShellDebug1CommandsLib:PrintInfo.obj
 0002:000138e0       ??_C@_1DM@PPCIDFBA@?$AAM?$AAo?$AAd?$AAu?$AAl?$AAe?$AA?5?$AAM?$AAa?$AAn?$AAu?$AAf?$AAa?$AAc?$AAt@ 00000000000d38e0     UefiShellDebug1CommandsLib:PrintInfo.obj
 0002:00013920       ??_C@_1DC@LELLJMOD@?$AAM?$AAo?$AAd?$AAu?$AAl?$AAe?$AA?5?$AAP?$AAr?$AAo?$AAd?$AAu?$AAc?$AAt?$AA?5@ 00000000000d3920     UefiShellDebug1CommandsLib:PrintInfo.obj
 0002:00013960       ??_C@_1GG@IKIEGKKL@?$AAM?$AAe?$AAm?$AAo?$AAr?$AAy?$AA?5?$AAS?$AAu?$AAb?$AAs?$AAy?$AAs?$AAt?$AAe@ 00000000000d3960     UefiShellDebug1CommandsLib:PrintInfo.obj
 0002:000139d0       ??_C@_1FM@HLKFJINL@?$AAM?$AAe?$AAm?$AAo?$AAr?$AAy?$AA?5?$AAS?$AAu?$AAb?$AAs?$AAy?$AAs?$AAt?$AAe@ 00000000000d39d0     UefiShellDebug1CommandsLib:PrintInfo.obj
 0002:00013a30       ??_C@_1DE@DGCEPNOI@?$AAN?$AAo?$AAn?$AA?9?$AAv?$AAo?$AAl?$AAa?$AAt?$AAi?$AAl?$AAe?$AA?5?$AAS?$AAi@ 00000000000d3a30     UefiShellDebug1CommandsLib:PrintInfo.obj
 0002:00013a68       ??_C@_1CM@BACFMPIO@?$AAV?$AAo?$AAl?$AAa?$AAt?$AAi?$AAl?$AAe?$AA?5?$AAS?$AAi?$AAz?$AAe?$AA?3?$AA?5@ 00000000000d3a68     UefiShellDebug1CommandsLib:PrintInfo.obj
 0002:00013a98       ??_C@_1CG@GBDMFEL@?$AAC?$AAa?$AAc?$AAh?$AAe?$AA?5?$AAS?$AAi?$AAz?$AAe?$AA?3?$AA?5?$AA0?$AAx?$AA?$CF@ 00000000000d3a98     UefiShellDebug1CommandsLib:PrintInfo.obj
 0002:00013ac0       ??_C@_1CK@IMOBOOBB@?$AAL?$AAo?$AAg?$AAi?$AAc?$AAa?$AAl?$AA?5?$AAS?$AAi?$AAz?$AAe?$AA?3?$AA?5?$AA0@ 00000000000d3ac0     UefiShellDebug1CommandsLib:PrintInfo.obj
 0002:00013af0       ??_C@_1CM@FNHKFMKN@?$AAE?$AAx?$AAt?$AAe?$AAn?$AAd?$AAe?$AAd?$AA?5?$AAS?$AAp?$AAe?$AAe?$AAd?$AA?3@ 00000000000d3af0     UefiShellDebug1CommandsLib:PrintInfo.obj
 0002:00013b20       ??_C@_1FA@BMOKCKKK@?$AAE?$AAx?$AAt?$AAe?$AAn?$AAd?$AAe?$AAd?$AA?5?$AAC?$AAo?$AAn?$AAf?$AAi?$AAg@ 00000000000d3b20     UefiShellDebug1CommandsLib:PrintInfo.obj
 0002:00013b70       ??_C@_0P@GKBOIFMJ@VendorSyndrome@ 00000000000d3b70     UefiShellDebug1CommandsLib:PrintInfo.obj
 0002:00013b80       ??_C@_0BI@GMHNBLK@MemoryArrayErrorAddress@ 00000000000d3b80     UefiShellDebug1CommandsLib:PrintInfo.obj
 0002:00013b98       ??_C@_0BD@BKOBIHDF@DeviceErrorAddress@ 00000000000d3b98     UefiShellDebug1CommandsLib:PrintInfo.obj
 0002:00013bb0       ??_C@_0BA@DBMDPLBE@ErrorResolution@ 00000000000d3bb0     UefiShellDebug1CommandsLib:PrintInfo.obj
 0002:00013bc0       ??_C@_0BA@JKJCLFJA@StartingAddress@ 00000000000d3bc0     UefiShellDebug1CommandsLib:PrintInfo.obj
 0002:00013bd0       ??_C@_0O@DMEOEBEF@EndingAddress@ 00000000000d3bd0     UefiShellDebug1CommandsLib:PrintInfo.obj
 0002:00013be0       ??_C@_0BC@DOCKMFPE@MemoryArrayHandle@ 00000000000d3be0     UefiShellDebug1CommandsLib:PrintInfo.obj
 0002:00013bf8       ??_C@_0P@HDALFGDK@PartitionWidth@ 00000000000d3bf8     UefiShellDebug1CommandsLib:PrintInfo.obj
 0002:00013c08       ??_C@_0BI@PDLKJHHB@ExtendedStartingAddress@ 00000000000d3c08     UefiShellDebug1CommandsLib:PrintInfo.obj
 0002:00013c20       ??_C@_0BG@GIFMFDDI@ExtendedEndingAddress@ 00000000000d3c20     UefiShellDebug1CommandsLib:PrintInfo.obj
 0002:00013c38       ??_C@_0BD@BEPOHNAH@MemoryDeviceHandle@ 00000000000d3c38     UefiShellDebug1CommandsLib:PrintInfo.obj
 0002:00013c50       ??_C@_0BP@CAGAFDLF@MemoryArrayMappedAddressHandle@ 00000000000d3c50     UefiShellDebug1CommandsLib:PrintInfo.obj
 0002:00013c70       ??_C@_0BF@PKKBLCDA@PartitionRowPosition@ 00000000000d3c70     UefiShellDebug1CommandsLib:PrintInfo.obj
 0002:00013c88       ??_C@_0BD@OOBFBMPB@InterleavePosition@ 00000000000d3c88     UefiShellDebug1CommandsLib:PrintInfo.obj
 0002:00013ca0       ??_C@_0BF@NJFOFALN@InterleavedDataDepth@ 00000000000d3ca0     UefiShellDebug1CommandsLib:PrintInfo.obj
 0002:00013cb8       ??_C@_0BA@EHILAMBM@NumberOfButtons@ 00000000000d3cb8     UefiShellDebug1CommandsLib:PrintInfo.obj
 0002:00013cc8       ??_C@_08KDOEBHGA@Location@ 00000000000d3cc8     UefiShellDebug1CommandsLib:PrintInfo.obj
 0002:00013cd8       ??_C@_0BA@EMGHNHBI@ManufactureDate@ 00000000000d3cd8     UefiShellDebug1CommandsLib:PrintInfo.obj
 0002:00013ce8       ??_C@_0L@FHIBJDML@DeviceName@ 00000000000d3ce8     UefiShellDebug1CommandsLib:PrintInfo.obj
 0002:00013cf8       ??_C@_0P@NAOAONJL@DeviceCapacity@ 00000000000d3cf8     UefiShellDebug1CommandsLib:PrintInfo.obj
 0002:00013d08       ??_C@_0O@PBABLEFL@DesignVoltage@ 00000000000d3d08     UefiShellDebug1CommandsLib:PrintInfo.obj
 0002:00013d18       ??_C@_0BC@OODDBNIJ@SBDSVersionNumber@ 00000000000d3d18     UefiShellDebug1CommandsLib:PrintInfo.obj
 0002:00013d30       ??_C@_0BK@BLDMGBHN@MaximumErrorInBatteryData@ 00000000000d3d30     UefiShellDebug1CommandsLib:PrintInfo.obj
 0002:00013d50       ??_C@_0BB@DCLMCCCP@SBDSSerialNumber@ 00000000000d3d50     UefiShellDebug1CommandsLib:PrintInfo.obj
 0002:00013d68       ??_C@_0BE@EJNLLEMJ@SBDSDeviceChemistry@ 00000000000d3d68     UefiShellDebug1CommandsLib:PrintInfo.obj
 0002:00013d80       ??_C@_0BJ@KCIBCEGB@DesignCapacityMultiplier@ 00000000000d3d80     UefiShellDebug1CommandsLib:PrintInfo.obj
 0002:00013da0       ??_C@_0M@DJFOKPBB@OEMSpecific@ 00000000000d3da0     UefiShellDebug1CommandsLib:PrintInfo.obj
 0002:00013db0       ??_C@_0L@NDDNCBN@ResetCount@ 00000000000d3db0     UefiShellDebug1CommandsLib:PrintInfo.obj
 0002:00013dc0       ??_C@_0L@ODMHPMJN@ResetLimit@ 00000000000d3dc0     UefiShellDebug1CommandsLib:PrintInfo.obj
 0002:00013dd0       ??_C@_0O@EGBCLEGG@TimerInterval@ 00000000000d3dd0     UefiShellDebug1CommandsLib:PrintInfo.obj
 0002:00013de0       ??_C@_07MKALMBDJ@Timeout@  00000000000d3de0     UefiShellDebug1CommandsLib:PrintInfo.obj
 0002:00013de8       ??_C@_0BK@LAOADDEK@NextScheduledPowerOnMonth@ 00000000000d3de8     UefiShellDebug1CommandsLib:PrintInfo.obj
 0002:00013e08       ??_C@_0BP@BFMGCEHK@NextScheduledPowerOnDayOfMonth@ 00000000000d3e08     UefiShellDebug1CommandsLib:PrintInfo.obj
 0002:00013e28       ??_C@_0BJ@PNALOFHH@NextScheduledPowerOnHour@ 00000000000d3e28     UefiShellDebug1CommandsLib:PrintInfo.obj
 0002:00013e48       ??_C@_0BL@PFOKAJDD@NextScheduledPowerOnMinute@ 00000000000d3e48     UefiShellDebug1CommandsLib:PrintInfo.obj
 0002:00013e68       ??_C@_0BL@HKFHEKHG@NextScheduledPowerOnSecond@ 00000000000d3e68     UefiShellDebug1CommandsLib:PrintInfo.obj
 0002:00013e88       ??_C@_0M@OHKMKKDH@Description@ 00000000000d3e88     UefiShellDebug1CommandsLib:PrintInfo.obj
 0002:00013e98       ??_C@_0N@DGPGOIBE@MaximumValue@ 00000000000d3e98     UefiShellDebug1CommandsLib:PrintInfo.obj
 0002:00013ea8       ??_C@_0N@HGLJJAGC@MinimumValue@ 00000000000d3ea8     UefiShellDebug1CommandsLib:PrintInfo.obj
 0002:00013eb8       ??_C@_0L@KGPBCGJE@Resolution@ 00000000000d3eb8     UefiShellDebug1CommandsLib:PrintInfo.obj
 0002:00013ec8       ??_C@_09BKMALBOE@Tolerance@ 00000000000d3ec8     UefiShellDebug1CommandsLib:PrintInfo.obj
 0002:00013ed8       ??_C@_08NLCOAFEI@Accuracy@ 00000000000d3ed8     UefiShellDebug1CommandsLib:PrintInfo.obj
 0002:00013ee8       ??_C@_0L@CMCEPKPI@OEMDefined@ 00000000000d3ee8     UefiShellDebug1CommandsLib:PrintInfo.obj
 0002:00013ef8       ??_C@_0N@NKKHDHON@NominalValue@ 00000000000d3ef8     UefiShellDebug1CommandsLib:PrintInfo.obj
 0002:00013f08       ??_C@_0BH@OAHLOFMP@TemperatureProbeHandle@ 00000000000d3f08     UefiShellDebug1CommandsLib:PrintInfo.obj
 0002:00013f20       ??_C@_0BB@JNADELBP@CoolingUnitGroup@ 00000000000d3f20     UefiShellDebug1CommandsLib:PrintInfo.obj
 0002:00013f38       ??_C@_0N@KPNPMFNH@NominalSpeed@ 00000000000d3f38     UefiShellDebug1CommandsLib:PrintInfo.obj
 0002:00013f48       ??_C@_0BB@PDMMMKBD@ManufacturerName@ 00000000000d3f48     UefiShellDebug1CommandsLib:PrintInfo.obj
 0002:00013f60       ??_C@_07EODJIPPN@Address@  00000000000d3f60     UefiShellDebug1CommandsLib:PrintInfo.obj
 0002:00013f68       ??_C@_0BH@JEDJGKMH@ManagementDeviceHandle@ 00000000000d3f68     UefiShellDebug1CommandsLib:PrintInfo.obj
 0002:00013f80       ??_C@_0BA@CPMLFEDK@ComponentHandle@ 00000000000d3f80     UefiShellDebug1CommandsLib:PrintInfo.obj
 0002:00013f90       ??_C@_0BA@JCNCODMC@ThresholdHandle@ 00000000000d3f90     UefiShellDebug1CommandsLib:PrintInfo.obj
 0002:00013fa0       ??_C@_0BK@LBKIMOJN@LowerThresholdNonCritical@ 00000000000d3fa0     UefiShellDebug1CommandsLib:PrintInfo.obj
 0002:00013fc0       ??_C@_0BK@CCJKGBMI@UpperThresholdNonCritical@ 00000000000d3fc0     UefiShellDebug1CommandsLib:PrintInfo.obj
 0002:00013fe0       ??_C@_0BH@NMAIJHFM@LowerThresholdCritical@ 00000000000d3fe0     UefiShellDebug1CommandsLib:PrintInfo.obj
 0002:00013ff8       ??_C@_0BH@FKDKGMLL@UpperThresholdCritical@ 00000000000d3ff8     UefiShellDebug1CommandsLib:PrintInfo.obj
 0002:00014010       ??_C@_0BN@CCIJPGKB@LowerThresholdNonRecoverable@ 00000000000d4010     UefiShellDebug1CommandsLib:PrintInfo.obj
 0002:00014030       ??_C@_0BN@KJLGOLMP@UpperThresholdNonRecoverable@ 00000000000d4030     UefiShellDebug1CommandsLib:PrintInfo.obj
 0002:00014050       ??_C@_0BD@HKIFACCD@MaximumChannelLoad@ 00000000000d4050     UefiShellDebug1CommandsLib:PrintInfo.obj
 0002:00014068       ??_C@_0BC@BPJKFOHI@MemoryDeviceCount@ 00000000000d4068     UefiShellDebug1CommandsLib:PrintInfo.obj
 0002:00014080       ??_C@_0BA@IILNCDHF@I2CSlaveAddress@ 00000000000d4080     UefiShellDebug1CommandsLib:PrintInfo.obj
 0002:00014090       ??_C@_0BH@MHJAAFFN@NVStorageDeviceAddress@ 00000000000d4090     UefiShellDebug1CommandsLib:PrintInfo.obj
 0002:000140a8       ??_C@_0M@BGEGAMBM@BaseAddress@ 00000000000d40a8     UefiShellDebug1CommandsLib:PrintInfo.obj
 0002:000140b8       ??_C@_0P@DONEEMPC@PowerUnitGroup@ 00000000000d40b8     UefiShellDebug1CommandsLib:PrintInfo.obj
 0002:000140c8       ??_C@_0P@PJJMPGNK@AssetTagNumber@ 00000000000d40c8     UefiShellDebug1CommandsLib:PrintInfo.obj
 0002:000140d8       ??_C@_0BA@NFKEAEEP@ModelPartNumber@ 00000000000d40d8     UefiShellDebug1CommandsLib:PrintInfo.obj
 0002:000140e8       ??_C@_0O@MEKHAACN@RevisionLevel@ 00000000000d40e8     UefiShellDebug1CommandsLib:PrintInfo.obj
 0002:000140f8       ??_C@_0BB@ELFGCFNP@MaxPowerCapacity@ 00000000000d40f8     UefiShellDebug1CommandsLib:PrintInfo.obj
 0002:00014110       ??_C@_0BI@BNPKKMKF@InputVoltageProbeHandle@ 00000000000d4110     UefiShellDebug1CommandsLib:PrintInfo.obj
 0002:00014128       ??_C@_0BE@GDEOIKLD@CoolingDeviceHandle@ 00000000000d4128     UefiShellDebug1CommandsLib:PrintInfo.obj
 0002:00014140       ??_C@_0BI@EEELGOPB@InputCurrentProbeHandle@ 00000000000d4140     UefiShellDebug1CommandsLib:PrintInfo.obj
 0002:00014158       ??_C@_0CF@LKIGLGMK@NumberOfAdditionalInformationEn@ 00000000000d4158     UefiShellDebug1CommandsLib:PrintInfo.obj
 0002:00014180       ??_C@_06ENNEIMBA@String@   00000000000d4180     UefiShellDebug1CommandsLib:PrintInfo.obj
 0002:00014188       ??_C@_05LPIJGKJ@Value@     00000000000d4188     UefiShellDebug1CommandsLib:PrintInfo.obj
 0002:00014190       ??_C@_1DG@NDDCIEGL@?$AAR?$AAe?$AAf?$AAe?$AAr?$AAe?$AAn?$AAc?$AAe?$AA?5?$AAD?$AAe?$AAs?$AAi?$AAg@ 00000000000d4190     UefiShellDebug1CommandsLib:PrintInfo.obj
 0002:000141c8       ??_C@_1DI@JDFNBLFB@?$AAD?$AAe?$AAv?$AAi?$AAc?$AAe?$AA?5?$AAT?$AAy?$AAp?$AAe?$AA?5?$AAI?$AAn?$AAs@ 00000000000d41c8     UefiShellDebug1CommandsLib:PrintInfo.obj
 0002:00014200       ??_C@_1DI@CDIBPEJH@?$AAS?$AAe?$AAg?$AAm?$AAe?$AAn?$AAt?$AA?5?$AAG?$AAr?$AAo?$AAu?$AAp?$AA?5?$AAN@ 00000000000d4200     UefiShellDebug1CommandsLib:PrintInfo.obj
 0002:00014238       ??_C@_1CE@GMPDEIJE@?$AAB?$AAu?$AAs?$AA?5?$AAN?$AAu?$AAm?$AAb?$AAe?$AAr?$AA?3?$AA?5?$AA0?$AAx?$AA?$CF@ 00000000000d4238     UefiShellDebug1CommandsLib:PrintInfo.obj
 0002:00014260       ??_C@_1DM@KOBIEGBB@?$AAD?$AAe?$AAv?$AAi?$AAc?$AAe?$AA?1?$AAF?$AAu?$AAn?$AAc?$AAt?$AAi?$AAo?$AAn@ 00000000000d4260     UefiShellDebug1CommandsLib:PrintInfo.obj
 0002:000142a0       ??_C@_0CA@GDHLOGDP@InterfaceTypeSpecificDataLength@ 00000000000d42a0     UefiShellDebug1CommandsLib:PrintInfo.obj
 0002:000142c0       ??_C@_0BK@CACHABEP@InterfaceTypeSpecificData@ 00000000000d42c0     UefiShellDebug1CommandsLib:PrintInfo.obj
 0002:000142e0       ??_C@_08PJFDLDED@VendorID@ 00000000000d42e0     UefiShellDebug1CommandsLib:PrintInfo.obj
 0002:000142f0       ??_C@_0BB@GAHCGLGG@MajorSpecVersion@ 00000000000d42f0     UefiShellDebug1CommandsLib:PrintInfo.obj
 0002:00014308       ??_C@_0BB@JJBNJBEK@MinorSpecVersion@ 00000000000d4308     UefiShellDebug1CommandsLib:PrintInfo.obj
 0002:00014320       ??_C@_0BB@EECEIOKK@FirmwareVersion1@ 00000000000d4320     UefiShellDebug1CommandsLib:PrintInfo.obj
 0002:00014338       ??_C@_0BB@GPAJNNGJ@FirmwareVersion2@ 00000000000d4338     UefiShellDebug1CommandsLib:PrintInfo.obj
 0002:00014350       ??_C@_0BG@JNJNBNKN@FirmwareComponentName@ 00000000000d4350     UefiShellDebug1CommandsLib:PrintInfo.obj
 0002:00014368       ??_C@_0BA@HBHNNJFG@FirmwareVersion@ 00000000000d4368     UefiShellDebug1CommandsLib:PrintInfo.obj
 0002:00014378       ??_C@_1CC@OEHHKNG@?$AAF?$AAr?$AAe?$AAe?$AA?9?$AAf?$AAo?$AAr?$AAm?$AA?5?$AAs?$AAt?$AAr?$AAi?$AAn@ 00000000000d4378     UefiShellDebug1CommandsLib:PrintInfo.obj
 0002:000143a0       ??_C@_1BI@JFMNGOOP@?$AAM?$AAA?$AAJ?$AAO?$AAR?$AA?4?$AAM?$AAI?$AAN?$AAO?$AAR@ 00000000000d43a0     UefiShellDebug1CommandsLib:PrintInfo.obj
 0002:000143b8       ??_C@_1DE@HJBDNGKH@?$AA3?$AA2?$AA?9?$AAb?$AAi?$AAt?$AA?5?$AAh?$AAe?$AAx?$AAa?$AAd?$AAe?$AAc?$AAi@ 00000000000d43b8     UefiShellDebug1CommandsLib:PrintInfo.obj
 0002:000143f0       ??_C@_1DE@MCNJIEHL@?$AA6?$AA4?$AA?9?$AAb?$AAi?$AAt?$AA?5?$AAh?$AAe?$AAx?$AAa?$AAd?$AAe?$AAc?$AAi@ 00000000000d43f0     UefiShellDebug1CommandsLib:PrintInfo.obj
 0002:00014428       ??_C@_1DC@KPBCCMGO@?$AAB?$AAI?$AAO?$AAS?$AA?5?$AAV?$AAe?$AAn?$AAd?$AAo?$AAr?$AA?1?$AAO?$AAE?$AAM@ 00000000000d4428     UefiShellDebug1CommandsLib:PrintInfo.obj
 0002:00014460       ??_C@_0L@JJLHCBE@FirmwareId@ 00000000000d4460     UefiShellDebug1CommandsLib:PrintInfo.obj
 0002:00014470       ??_C@_1CI@PNBLKJAO@?$AAR?$AAF?$AAC?$AA4?$AA1?$AA2?$AA2?$AA?5?$AAU?$AAU?$AAI?$AAD?$AA?5?$AAs?$AAt@ 00000000000d4470     UefiShellDebug1CommandsLib:PrintInfo.obj
 0002:00014498       ??_C@_0M@FEKFCCJH@ReleaseDate@ 00000000000d4498     UefiShellDebug1CommandsLib:PrintInfo.obj
 0002:000144a8       ??_C@_0BH@MPIKGCFJ@LowestSupportedVersion@ 00000000000d44a8     UefiShellDebug1CommandsLib:PrintInfo.obj
 0002:000144c0       ??_C@_09KBOOOOEB@ImageSize@ 00000000000d44c0     UefiShellDebug1CommandsLib:PrintInfo.obj
 0002:000144d0       ??_C@_0BJ@KOLPKIAL@AssociatedComponentCount@ 00000000000d44d0     UefiShellDebug1CommandsLib:PrintInfo.obj
 0002:000144f0       ??_C@_1BI@OMOKAPDO@?$AA?5?$AA?5?$AA?5?$AA?5?$AA0?$AAx?$AA?$CF?$AA0?$AA4?$AAX?$AA?5@ 00000000000d44f0     UefiShellDebug1CommandsLib:PrintInfo.obj
 0002:00014508       ??_C@_1CC@FJPPHPAG@?$AAU?$AAE?$AAF?$AAI?$AA?5?$AAd?$AAe?$AAv?$AAi?$AAc?$AAe?$AA?5?$AAp?$AAa?$AAt@ 00000000000d4508     UefiShellDebug1CommandsLib:PrintInfo.obj
 0002:00014530       ??_C@_1CI@KAOGHLPB@?$AAB?$AAI?$AAO?$AAS?$AA?5?$AAv?$AAe?$AAn?$AAd?$AAo?$AAr?$AA?5?$AAd?$AAe?$AAf@ 00000000000d4530     UefiShellDebug1CommandsLib:PrintInfo.obj
 0002:00014558       ??_C@_1BI@OAFAIEAN@?$AAO?$AAE?$AAM?$AA?5?$AAd?$AAe?$AAf?$AAi?$AAn?$AAe?$AAd@ 00000000000d4558     UefiShellDebug1CommandsLib:PrintInfo.obj
 0002:00014570       ??_C@_0BE@KBPLNGEK@StringPropertyValue@ 00000000000d4570     UefiShellDebug1CommandsLib:PrintInfo.obj
 0002:00014588       ??_C@_0N@BIIAKMAO@ParentHandle@ 00000000000d4588     UefiShellDebug1CommandsLib:PrintInfo.obj
 0002:00014598       ??_C@_1M@EMMHMJAC@?$AA0?$AAx?$AA?$CF?$AAx?$AA?6@ 00000000000d4598     UefiShellDebug1CommandsLib:PrintInfo.obj
 0002:000145a8       ??_C@_1M@BFEKLHEO@?$AA8?$AA0?$AA8?$AA6?$AA?6@ 00000000000d45a8     UefiShellDebug1CommandsLib:PrintInfo.obj
 0002:000145b8       ??_C@_1O@CFFCPEKH@?$AA8?$AA0?$AA2?$AA8?$AA6?$AA?6@ 00000000000d45b8     UefiShellDebug1CommandsLib:PrintInfo.obj
 0002:000145c8       ??_C@_1M@NOBGGEOL@?$AA8?$AA0?$AA8?$AA7?$AA?6@ 00000000000d45c8     UefiShellDebug1CommandsLib:PrintInfo.obj
 0002:000145d8       ??_C@_1O@OOAOCHAC@?$AA8?$AA0?$AA2?$AA8?$AA7?$AA?6@ 00000000000d45d8     UefiShellDebug1CommandsLib:PrintInfo.obj
 0002:000145e8       ??_C@_1O@BMMEMDM@?$AA8?$AA0?$AA3?$AA8?$AA7?$AA?6@ 00000000000d45e8     UefiShellDebug1CommandsLib:PrintInfo.obj
 0002:000145f8       ??_C@_1O@ODBAFHEF@?$AA8?$AA0?$AA4?$AA8?$AA7?$AA?6@ 00000000000d45f8     UefiShellDebug1CommandsLib:PrintInfo.obj
 0002:00014608       ??_C@_1BG@DBAGDDAO@?$AAM?$AA2?$AA?5?$AAF?$AAa?$AAm?$AAi?$AAl?$AAy?$AA?6@ 00000000000d4608     UefiShellDebug1CommandsLib:PrintInfo.obj
 0002:00014620       ??_C@_1CC@MPNELHD@?$AAI?$AAn?$AAt?$AAe?$AAl?$AA?5?$AAC?$AAe?$AAl?$AAe?$AAr?$AAo?$AAn?$AA?5?$AAM@ 00000000000d4620     UefiShellDebug1CommandsLib:PrintInfo.obj
 0002:00014648       ??_C@_1CI@IFPKFDMJ@?$AAI?$AAn?$AAt?$AAe?$AAl?$AA?5?$AAP?$AAe?$AAn?$AAt?$AAi?$AAu?$AAm?$AA?5?$AA4@ 00000000000d4648     UefiShellDebug1CommandsLib:PrintInfo.obj
 0002:00014670       ??_C@_1BG@ONMLJEEK@?$AAA?$AAM?$AAD?$AA?5?$AAD?$AAu?$AAr?$AAo?$AAn?$AA?6@ 00000000000d4670     UefiShellDebug1CommandsLib:PrintInfo.obj
 0002:00014688       ??_C@_1BG@NBKICNH@?$AAK?$AA6?$AA?5?$AAF?$AAa?$AAm?$AAi?$AAl?$AAy?$AA?6@ 00000000000d4688     UefiShellDebug1CommandsLib:PrintInfo.obj
 0002:000146a0       ??_C@_1M@OEEKOJFE@?$AAK?$AA6?$AA?9?$AA2?$AA?6@ 00000000000d46a0     UefiShellDebug1CommandsLib:PrintInfo.obj
 0002:000146b0       ??_C@_1M@CPBGDKPB@?$AAK?$AA6?$AA?9?$AA3?$AA?6@ 00000000000d46b0     UefiShellDebug1CommandsLib:PrintInfo.obj
 0002:000146c0       ??_C@_1DK@FOMJPGAK@?$AAA?$AAM?$AAD?$AA?5?$AAA?$AAl?$AAt?$AAh?$AAo?$AAn?$AA?5?$AAP?$AAr?$AAo?$AAc@ 00000000000d46c0     UefiShellDebug1CommandsLib:PrintInfo.obj
 0002:00014700       ??_C@_1CE@IEKOHBKD@?$AAA?$AAM?$AAD?$AA?5?$AA2?$AA9?$AA0?$AA0?$AA0?$AA?5?$AAF?$AAa?$AAm?$AAi?$AAl@ 00000000000d4700     UefiShellDebug1CommandsLib:PrintInfo.obj
 0002:00014728       ??_C@_1O@KEEMBADB@?$AAK?$AA6?$AA?9?$AA2?$AA?$CL?$AA?6@ 00000000000d4728     UefiShellDebug1CommandsLib:PrintInfo.obj
 0002:00014738       ??_C@_1BM@CMFDIAEL@?$AAP?$AAo?$AAw?$AAe?$AAr?$AA?5?$AAP?$AAC?$AA?5?$AA6?$AA2?$AA0?$AA?6@ 00000000000d4738     UefiShellDebug1CommandsLib:PrintInfo.obj
 0002:00014758       ??_C@_1BM@BKCFKOBO@?$AAP?$AAo?$AAw?$AAe?$AAr?$AA?5?$AAP?$AAC?$AA?5?$AA7?$AA0?$AA4?$AA?6@ 00000000000d4758     UefiShellDebug1CommandsLib:PrintInfo.obj
 0002:00014778       ??_C@_1BM@MJFEOCGM@?$AAP?$AAo?$AAw?$AAe?$AAr?$AA?5?$AAP?$AAC?$AA?5?$AA7?$AA5?$AA0?$AA?6@ 00000000000d4778     UefiShellDebug1CommandsLib:PrintInfo.obj
 0002:00014798       ??_C@_1DO@IMFJCMIO@?$AAI?$AAn?$AAt?$AAe?$AAl?$AA?$CI?$AAR?$AA?$CJ?$AA?5?$AAC?$AAo?$AAr?$AAe?$AA?$CI?$AAT@ 00000000000d4798     UefiShellDebug1CommandsLib:PrintInfo.obj
 0002:000147e0       ??_C@_1EA@FLOKOMLP@?$AAI?$AAn?$AAt?$AAe?$AAl?$AA?$CI?$AAR?$AA?$CJ?$AA?5?$AAC?$AAo?$AAr?$AAe?$AA?$CI?$AAT@ 00000000000d47e0     UefiShellDebug1CommandsLib:PrintInfo.obj
 0002:00014820       ??_C@_1EA@GEDEDBAO@?$AAI?$AAn?$AAt?$AAe?$AAl?$AA?$CI?$AAR?$AA?$CJ?$AA?5?$AAC?$AAo?$AAr?$AAe?$AA?$CI?$AAT@ 00000000000d4820     UefiShellDebug1CommandsLib:PrintInfo.obj
 0002:00014860       ??_C@_1EA@HBHOHKGB@?$AAI?$AAn?$AAt?$AAe?$AAl?$AA?$CI?$AAR?$AA?$CJ?$AA?5?$AAC?$AAo?$AAr?$AAe?$AA?$CI?$AAT@ 00000000000d4860     UefiShellDebug1CommandsLib:PrintInfo.obj
 0002:000148a0       ??_C@_1BK@EILJHJBO@?$AAA?$AAl?$AAp?$AAh?$AAa?$AA?5?$AA2?$AA1?$AA0?$AA6?$AA4?$AA?6@ 00000000000d48a0     UefiShellDebug1CommandsLib:PrintInfo.obj
 0002:000148c0       ??_C@_1BK@FHBNIBF@?$AAA?$AAl?$AAp?$AAh?$AAa?$AA?5?$AA2?$AA1?$AA0?$AA6?$AA6?$AA?6@ 00000000000d48c0     UefiShellDebug1CommandsLib:PrintInfo.obj
 0002:000148e0       ??_C@_1BK@KHHLBCCA@?$AAA?$AAl?$AAp?$AAh?$AAa?$AA?5?$AA2?$AA1?$AA1?$AA6?$AA4?$AA?6@ 00000000000d48e0     UefiShellDebug1CommandsLib:PrintInfo.obj
 0002:00014900       ??_C@_1BO@BJHODJPO@?$AAA?$AAl?$AAp?$AAh?$AAa?$AA?5?$AA2?$AA1?$AA1?$AA6?$AA4?$AAP?$AAC?$AA?6@ 00000000000d4900     UefiShellDebug1CommandsLib:PrintInfo.obj
 0002:00014920       ??_C@_1BM@GLLDONGM@?$AAA?$AAl?$AAp?$AAh?$AAa?$AA?5?$AA2?$AA1?$AA1?$AA6?$AA4?$AAa?$AA?6@ 00000000000d4920     UefiShellDebug1CommandsLib:PrintInfo.obj
 0002:00014940       ??_C@_1BK@EMEMKJCD@?$AAA?$AAl?$AAp?$AAh?$AAa?$AA?5?$AA2?$AA1?$AA2?$AA6?$AA4?$AA?6@ 00000000000d4940     UefiShellDebug1CommandsLib:PrintInfo.obj
 0002:00014960       ??_C@_1BK@KDIOMCBN@?$AAA?$AAl?$AAp?$AAh?$AAa?$AA?5?$AA2?$AA1?$AA3?$AA6?$AA4?$AA?6@ 00000000000d4960     UefiShellDebug1CommandsLib:PrintInfo.obj
 0002:00014980       ??_C@_1HC@BGNAJMPG@?$AAA?$AAM?$AAD?$AA?5?$AAT?$AAu?$AAr?$AAi?$AAo?$AAn?$AA?5?$AAI?$AAI?$AA?5?$AAU@ 00000000000d4980     UefiShellDebug1CommandsLib:PrintInfo.obj
 0002:00014a00       ??_C@_1GG@GHONLEP@?$AAA?$AAM?$AAD?$AA?5?$AAT?$AAu?$AAr?$AAi?$AAo?$AAn?$AA?5?$AAI?$AAI?$AA?5?$AAD@ 00000000000d4a00     UefiShellDebug1CommandsLib:PrintInfo.obj
 0002:00014a70       ??_C@_1FI@EDMINKLJ@?$AAA?$AAM?$AAD?$AA?5?$AAA?$AAl?$AAt?$AAh?$AAo?$AAn?$AA?5?$AAI?$AAI?$AA?5?$AAD@ 00000000000d4a70     UefiShellDebug1CommandsLib:PrintInfo.obj
 0002:00014ad0       ??_C@_1EG@KMMBGHAG@?$AAA?$AAM?$AAD?$AA?5?$AAO?$AAp?$AAt?$AAe?$AAr?$AAo?$AAn?$AA?5?$AA6?$AA1?$AA0@ 00000000000d4ad0     UefiShellDebug1CommandsLib:PrintInfo.obj
 0002:00014b20       ??_C@_1EG@FDFCFACA@?$AAA?$AAM?$AAD?$AA?5?$AAO?$AAp?$AAt?$AAe?$AAr?$AAo?$AAn?$AA?5?$AA4?$AA1?$AA0@ 00000000000d4b20     UefiShellDebug1CommandsLib:PrintInfo.obj
 0002:00014b70       ??_C@_1EG@NCLJCPKA@?$AAA?$AAM?$AAD?$AA?5?$AAO?$AAp?$AAt?$AAe?$AAr?$AAo?$AAn?$AA?5?$AA6?$AA2?$AA0@ 00000000000d4b70     UefiShellDebug1CommandsLib:PrintInfo.obj
 0002:00014bc0       ??_C@_1EG@CNCKBIIG@?$AAA?$AAM?$AAD?$AA?5?$AAO?$AAp?$AAt?$AAe?$AAr?$AAo?$AAn?$AA?5?$AA4?$AA2?$AA0@ 00000000000d4bc0     UefiShellDebug1CommandsLib:PrintInfo.obj
 0002:00014c08       ??_C@_1BI@MPPDNMDI@?$AAM?$AAI?$AAP?$AAS?$AA?5?$AAR?$AA4?$AA0?$AA0?$AA0?$AA?6@ 00000000000d4c08     UefiShellDebug1CommandsLib:PrintInfo.obj
 0002:00014c20       ??_C@_1BI@MLAGAMAF@?$AAM?$AAI?$AAP?$AAS?$AA?5?$AAR?$AA4?$AA2?$AA0?$AA0?$AA?6@ 00000000000d4c20     UefiShellDebug1CommandsLib:PrintInfo.obj
 0002:00014c38       ??_C@_1BI@MGBIHMEC@?$AAM?$AAI?$AAP?$AAS?$AA?5?$AAR?$AA4?$AA4?$AA0?$AA0?$AA?6@ 00000000000d4c38     UefiShellDebug1CommandsLib:PrintInfo.obj
 0002:00014c50       ??_C@_1BI@MCONKMHP@?$AAM?$AAI?$AAP?$AAS?$AA?5?$AAR?$AA4?$AA6?$AA0?$AA0?$AA?6@ 00000000000d4c50     UefiShellDebug1CommandsLib:PrintInfo.obj
 0002:00014c68       ??_C@_1BK@NGAFEHDF@?$AAM?$AAI?$AAP?$AAS?$AA?5?$AAR?$AA1?$AA0?$AA0?$AA0?$AA0?$AA?6@ 00000000000d4c68     UefiShellDebug1CommandsLib:PrintInfo.obj
 0002:00014c88       ??_C@_1DA@HPBBECC@?$AAA?$AAM?$AAD?$AA?5?$AAC?$AA?9?$AAS?$AAe?$AAr?$AAi?$AAe?$AAs?$AA?5?$AAP?$AAr@ 00000000000d4c88     UefiShellDebug1CommandsLib:PrintInfo.obj
 0002:00014cb8       ??_C@_1DA@FCIIHFDC@?$AAA?$AAM?$AAD?$AA?5?$AAE?$AA?9?$AAS?$AAe?$AAr?$AAi?$AAe?$AAs?$AA?5?$AAP?$AAr@ 00000000000d4cb8     UefiShellDebug1CommandsLib:PrintInfo.obj
 0002:00014ce8       ??_C@_1DA@ICAJDGON@?$AAA?$AAM?$AAD?$AA?5?$AAA?$AA?9?$AAS?$AAe?$AAr?$AAi?$AAe?$AAs?$AA?5?$AAP?$AAr@ 00000000000d4ce8     UefiShellDebug1CommandsLib:PrintInfo.obj
 0002:00014d18       ??_C@_1DA@NHHAFHPN@?$AAA?$AAM?$AAD?$AA?5?$AAG?$AA?9?$AAS?$AAe?$AAr?$AAi?$AAe?$AAs?$AA?5?$AAP?$AAr@ 00000000000d4d18     UefiShellDebug1CommandsLib:PrintInfo.obj
 0002:00014d48       ??_C@_1BI@CHKAHKIO@?$AAS?$AAu?$AAp?$AAe?$AAr?$AAS?$AAp?$AAa?$AAr?$AAc?$AA?6@ 00000000000d4d48     UefiShellDebug1CommandsLib:PrintInfo.obj
 0002:00014d60       ??_C@_1BO@LDJKINIJ@?$AAm?$AAi?$AAc?$AAr?$AAo?$AAS?$AAp?$AAa?$AAr?$AAc?$AA?5?$AAI?$AAI?$AA?6@ 00000000000d4d60     UefiShellDebug1CommandsLib:PrintInfo.obj
 0002:00014d80       ??_C@_1CC@MNCOKOHG@?$AAm?$AAi?$AAc?$AAr?$AAo?$AAS?$AAp?$AAa?$AAr?$AAc?$AA?5?$AAI?$AAI?$AAe?$AAp@ 00000000000d4d80     UefiShellDebug1CommandsLib:PrintInfo.obj
 0002:00014da8       ??_C@_1BI@NOIOBHBG@?$AAU?$AAl?$AAt?$AAr?$AAa?$AAS?$AAp?$AAa?$AAr?$AAc?$AA?6@ 00000000000d4da8     UefiShellDebug1CommandsLib:PrintInfo.obj
 0002:00014dc0       ??_C@_1BO@KEJJICDJ@?$AAU?$AAl?$AAt?$AAr?$AAa?$AAS?$AAp?$AAa?$AAr?$AAc?$AA?5?$AAI?$AAI?$AA?6@ 00000000000d4dc0     UefiShellDebug1CommandsLib:PrintInfo.obj
 0002:00014de0       ??_C@_1BO@IOMHKILF@?$AAU?$AAl?$AAt?$AAr?$AAa?$AAS?$AAp?$AAa?$AAr?$AAc?$AAI?$AAI?$AAi?$AA?6@ 00000000000d4de0     UefiShellDebug1CommandsLib:PrintInfo.obj
 0002:00014e00       ??_C@_1BO@IJGLKNID@?$AAU?$AAl?$AAt?$AAr?$AAa?$AAS?$AAp?$AAa?$AAr?$AAc?$AAI?$AAI?$AAI?$AA?6@ 00000000000d4e00     UefiShellDebug1CommandsLib:PrintInfo.obj
 0002:00014e20       ??_C@_1CA@FJBEAACG@?$AAU?$AAl?$AAt?$AAr?$AAa?$AAS?$AAp?$AAa?$AAr?$AAc?$AAI?$AAI?$AAI?$AAi?$AA?6@ 00000000000d4e20     UefiShellDebug1CommandsLib:PrintInfo.obj
 0002:00014e40       ??_C@_1M@PDGDINFF@?$AA6?$AA8?$AAx?$AAx?$AA?6@ 00000000000d4e40     UefiShellDebug1CommandsLib:PrintInfo.obj
 0002:00014e50       ??_C@_1O@OJIMPPEM@?$AA6?$AA8?$AA0?$AA0?$AA0?$AA?6@ 00000000000d4e50     UefiShellDebug1CommandsLib:PrintInfo.obj
 0002:00014e60       ??_C@_1O@CFCGPPNC@?$AA6?$AA8?$AA0?$AA1?$AA0?$AA?6@ 00000000000d4e60     UefiShellDebug1CommandsLib:PrintInfo.obj
 0002:00014e70       ??_C@_1O@KLKJPIDB@?$AA6?$AA8?$AA0?$AA2?$AA0?$AA?6@ 00000000000d4e70     UefiShellDebug1CommandsLib:PrintInfo.obj
 0002:00014e80       ??_C@_1O@GHADPIKP@?$AA6?$AA8?$AA0?$AA3?$AA0?$AA?6@ 00000000000d4e80     UefiShellDebug1CommandsLib:PrintInfo.obj
 0002:00014e90       ??_C@_1FM@FOHMLCBI@?$AAA?$AAM?$AAD?$AA?5?$AAA?$AAt?$AAh?$AAl?$AAo?$AAn?$AA?$CI?$AAT?$AAM?$AA?$CJ?$AA?5@ 00000000000d4e90     UefiShellDebug1CommandsLib:PrintInfo.obj
 0002:00014ef0       ??_C@_1FA@FKKGBNEM@?$AAA?$AAM?$AAD?$AA?5?$AAO?$AAp?$AAt?$AAe?$AAr?$AAo?$AAn?$AA?$CI?$AAT?$AAM?$AA?$CJ@ 00000000000d4ef0     UefiShellDebug1CommandsLib:PrintInfo.obj
 0002:00014f40       ??_C@_1EE@FCPDGCIF@?$AAA?$AAM?$AAD?$AA?5?$AAO?$AAp?$AAt?$AAe?$AAr?$AAo?$AAn?$AA?$CI?$AAT?$AAM?$AA?$CJ@ 00000000000d4f40     UefiShellDebug1CommandsLib:PrintInfo.obj
 0002:00014f90       ??_C@_1EI@MKFEPIAG@?$AAA?$AAM?$AAD?$AA?5?$AAO?$AAp?$AAt?$AAe?$AAr?$AAo?$AAn?$AA?$CI?$AAT?$AAM?$AA?$CJ@ 00000000000d4f90     UefiShellDebug1CommandsLib:PrintInfo.obj
 0002:00014fe0       ??_C@_1EE@HGHBDDLD@?$AAA?$AAM?$AAD?$AA?5?$AAO?$AAp?$AAt?$AAe?$AAr?$AAo?$AAn?$AA?$CI?$AAT?$AAM?$AA?$CJ@ 00000000000d4fe0     UefiShellDebug1CommandsLib:PrintInfo.obj
 0002:00015028       ??_C@_1DE@NFIODHPM@?$AAA?$AAM?$AAD?$AA?5?$AAZ?$AAe?$AAn?$AA?5?$AAP?$AAr?$AAo?$AAc?$AAe?$AAs?$AAs@ 00000000000d5028     UefiShellDebug1CommandsLib:PrintInfo.obj
 0002:00015060       ??_C@_1BO@BEBPPGMP@?$AAC?$AAr?$AAu?$AAs?$AAo?$AAe?$AA?5?$AAT?$AAM?$AA5?$AA0?$AA0?$AA0?$AA?6@ 00000000000d5060     UefiShellDebug1CommandsLib:PrintInfo.obj
 0002:00015080       ??_C@_1BO@PLCCFDCP@?$AAC?$AAr?$AAu?$AAs?$AAo?$AAe?$AA?5?$AAT?$AAM?$AA3?$AA0?$AA0?$AA0?$AA?6@ 00000000000d5080     UefiShellDebug1CommandsLib:PrintInfo.obj
 0002:000150a0       ??_C@_1CC@LNLDLOHK@?$AAE?$AAf?$AAf?$AAi?$AAc?$AAe?$AAo?$AAn?$AA?5?$AAT?$AAM?$AA8?$AA0?$AA0?$AA0@ 00000000000d50a0     UefiShellDebug1CommandsLib:PrintInfo.obj
 0002:000150c8       ??_C@_1BC@BDBJDKEG@?$AAI?$AAt?$AAa?$AAn?$AAi?$AAu?$AAm?$AA?6@ 00000000000d50c8     UefiShellDebug1CommandsLib:PrintInfo.obj
 0002:000150e0       ??_C@_1BM@NAEDFCPJ@?$AAA?$AAM?$AAD?$AA?5?$AAA?$AAt?$AAh?$AAl?$AAo?$AAn?$AA6?$AA4?$AA?6@ 00000000000d50e0     UefiShellDebug1CommandsLib:PrintInfo.obj
 0002:00015100       ??_C@_1BK@JFKHHEGN@?$AAA?$AAM?$AAD?$AA?5?$AAO?$AAp?$AAt?$AAe?$AAr?$AAo?$AAn?$AA?6@ 00000000000d5100     UefiShellDebug1CommandsLib:PrintInfo.obj
 0002:00015120       ??_C@_1BK@GHNMOLDH@?$AAA?$AAM?$AAD?$AA?5?$AAS?$AAe?$AAm?$AAp?$AAr?$AAo?$AAn?$AA?6@ 00000000000d5120     UefiShellDebug1CommandsLib:PrintInfo.obj
 0002:00015140       ??_C@_1CK@FIAFKMGM@?$AAA?$AAM?$AAD?$AA?5?$AAT?$AAu?$AAr?$AAi?$AAo?$AAn?$AA6?$AA4?$AA?5?$AAM?$AAo@ 00000000000d5140     UefiShellDebug1CommandsLib:PrintInfo.obj
 0002:00015170       ??_C@_1CO@LCENKIBJ@?$AAD?$AAu?$AAa?$AAl?$AA?9?$AAC?$AAo?$AAr?$AAe?$AA?5?$AAA?$AAM?$AAD?$AA?5?$AAO@ 00000000000d5170     UefiShellDebug1CommandsLib:PrintInfo.obj
 0002:000151a0       ??_C@_1DE@BFKEFMLO@?$AAA?$AAM?$AAD?$AA?5?$AAA?$AAt?$AAh?$AAl?$AAo?$AAn?$AA?5?$AA6?$AA4?$AAX?$AA2@ 00000000000d51a0     UefiShellDebug1CommandsLib:PrintInfo.obj
 0002:000151d8       ??_C@_1DA@PNPLGDEH@?$AAA?$AAM?$AAD?$AA?5?$AAT?$AAu?$AAr?$AAi?$AAo?$AAn?$AA?5?$AA6?$AA4?$AAX?$AA2@ 00000000000d51d8     UefiShellDebug1CommandsLib:PrintInfo.obj
 0002:00015208       ??_C@_1BM@KILCHNJC@?$AAP?$AAA?$AA?9?$AAR?$AAI?$AAS?$AAC?$AA?5?$AA8?$AA5?$AA0?$AA0?$AA?6@ 00000000000d5208     UefiShellDebug1CommandsLib:PrintInfo.obj
 0002:00015228       ??_C@_1BM@EOJLLGNG@?$AAP?$AAA?$AA?9?$AAR?$AAI?$AAS?$AAC?$AA?5?$AA8?$AA0?$AA0?$AA0?$AA?6@ 00000000000d5228     UefiShellDebug1CommandsLib:PrintInfo.obj
 0002:00015248       ??_C@_1CA@DKDFEKIM@?$AAP?$AAA?$AA?9?$AAR?$AAI?$AAS?$AAC?$AA?5?$AA7?$AA3?$AA0?$AA0?$AAL?$AAC?$AA?6@ 00000000000d5248     UefiShellDebug1CommandsLib:PrintInfo.obj
 0002:00015268       ??_C@_1BM@DIPKPJJK@?$AAP?$AAA?$AA?9?$AAR?$AAI?$AAS?$AAC?$AA?5?$AA7?$AA2?$AA0?$AA0?$AA?6@ 00000000000d5268     UefiShellDebug1CommandsLib:PrintInfo.obj
 0002:00015288       ??_C@_1CA@NLFLIOCB@?$AAP?$AAA?$AA?9?$AAR?$AAI?$AAS?$AAC?$AA?5?$AA7?$AA1?$AA0?$AA0?$AAL?$AAC?$AA?6@ 00000000000d5288     UefiShellDebug1CommandsLib:PrintInfo.obj
 0002:000152a8       ??_C@_1BM@NDMNECJJ@?$AAP?$AAA?$AA?9?$AAR?$AAI?$AAS?$AAC?$AA?5?$AA7?$AA1?$AA0?$AA0?$AA?6@ 00000000000d52a8     UefiShellDebug1CommandsLib:PrintInfo.obj
 0002:000152d0       ??_C@_1GM@LGNOEJOA@?$AAP?$AAe?$AAn?$AAt?$AAi?$AAu?$AAm?$AA?5?$AAI?$AAI?$AAI?$AA?5?$AAP?$AAr?$AAo@ 00000000000d52d0     UefiShellDebug1CommandsLib:PrintInfo.obj
 0002:00015340       ??_C@_1CK@COKBNKJM@?$AAP?$AAe?$AAn?$AAt?$AAi?$AAu?$AAm?$AA?5?$AA4?$AA?5?$AAp?$AAr?$AAo?$AAc?$AAe@ 00000000000d5340     UefiShellDebug1CommandsLib:PrintInfo.obj
 0002:00015370       ??_C@_1CM@PBDLLDGD@?$AAI?$AAn?$AAt?$AAe?$AAl?$AA?5?$AAX?$AAe?$AAo?$AAn?$AA?5?$AAP?$AAr?$AAo?$AAc@ 00000000000d5370     UefiShellDebug1CommandsLib:PrintInfo.obj
 0002:000153a0       ??_C@_1BM@NCNDNNOI@?$AAA?$AAS?$AA4?$AA0?$AA0?$AA?5?$AAF?$AAa?$AAm?$AAi?$AAl?$AAy?$AA?6@ 00000000000d53a0     UefiShellDebug1CommandsLib:PrintInfo.obj
 0002:000153c0       ??_C@_1DC@PFEAGGGB@?$AAI?$AAn?$AAt?$AAe?$AAl?$AA?5?$AAX?$AAe?$AAo?$AAn?$AA?5?$AAp?$AAr?$AAo?$AAc@ 00000000000d53c0     UefiShellDebug1CommandsLib:PrintInfo.obj
 0002:00015400       ??_C@_1EA@BINOHLN@?$AAA?$AAM?$AAD?$AA?5?$AAA?$AAl?$AAt?$AAh?$AAo?$AAn?$AA?5?$AAX?$AAP?$AA?5?$AAP@ 00000000000d5400     UefiShellDebug1CommandsLib:PrintInfo.obj
 0002:00015440       ??_C@_1EC@IFDBEIAC@?$AAA?$AAM?$AAD?$AA?5?$AAA?$AAl?$AAt?$AAh?$AAo?$AAn?$AA?5?$AAM?$AAP?$AA?5?$AAP@ 00000000000d5440     UefiShellDebug1CommandsLib:PrintInfo.obj
 0002:00015488       ??_C@_1DG@BNHFBMCE@?$AAI?$AAn?$AAt?$AAe?$AAl?$AA?5?$AAI?$AAt?$AAa?$AAn?$AAi?$AAu?$AAm?$AA?5?$AA2@ 00000000000d5488     UefiShellDebug1CommandsLib:PrintInfo.obj
 0002:000154c0       ??_C@_1DE@MMFIDIPD@?$AAI?$AAn?$AAt?$AAe?$AAl?$AA?5?$AAP?$AAe?$AAn?$AAi?$AAu?$AAm?$AA?5?$AAM?$AA?5@ 00000000000d54c0     UefiShellDebug1CommandsLib:PrintInfo.obj
 0002:000154f8       ??_C@_1DG@EIKPMALL@?$AAI?$AAn?$AAt?$AAe?$AAl?$AA?5?$AAC?$AAe?$AAl?$AAe?$AAr?$AAo?$AAn?$AA?5?$AAD@ 00000000000d54f8     UefiShellDebug1CommandsLib:PrintInfo.obj
 0002:00015530       ??_C@_1DG@OCIJHOFC@?$AAI?$AAn?$AAt?$AAe?$AAl?$AA?5?$AAP?$AAe?$AAn?$AAt?$AAi?$AAu?$AAm?$AA?5?$AAD@ 00000000000d5530     UefiShellDebug1CommandsLib:PrintInfo.obj
 0002:00015570       ??_C@_1FC@NAEIDNNM@?$AAI?$AAn?$AAt?$AAe?$AAl?$AA?5?$AAP?$AAe?$AAn?$AAt?$AAi?$AAu?$AAm?$AA?5?$AAP@ 00000000000d5570     UefiShellDebug1CommandsLib:PrintInfo.obj
 0002:000155c8       ??_C@_1DG@JLGLHAFK@?$AAI?$AAn?$AAt?$AAe?$AAl?$AA?5?$AAC?$AAo?$AAr?$AAe?$AA?5?$AAS?$AAo?$AAl?$AAo@ 00000000000d55c8     UefiShellDebug1CommandsLib:PrintInfo.obj
 0002:00015600       ??_C@_1DI@JGEHJCPH@?$AAI?$AAn?$AAt?$AAe?$AAl?$AA?5?$AAC?$AAo?$AAr?$AAe?$AA?5?$AA2?$AA?5?$AAD?$AAu@ 00000000000d5600     UefiShellDebug1CommandsLib:PrintInfo.obj
 0002:00015638       ??_C@_1BC@OPEHEBFA@?$AAI?$AAB?$AAM?$AA?5?$AA3?$AA9?$AA0?$AA?6@ 00000000000d5638     UefiShellDebug1CommandsLib:PrintInfo.obj
 0002:00015650       ??_C@_17EJNDEOLN@?$AAG?$AA4?$AA?6@ 00000000000d5650     UefiShellDebug1CommandsLib:PrintInfo.obj
 0002:00015658       ??_C@_17ICIPJNBI@?$AAG?$AA5?$AA?6@ 00000000000d5658     UefiShellDebug1CommandsLib:PrintInfo.obj
 0002:00015660       ??_C@_17EBLOPLG@?$AAG?$AA6?$AA?6@ 00000000000d5660     UefiShellDebug1CommandsLib:PrintInfo.obj
 0002:00015668       ??_C@_1BO@JNODFENM@?$AAz?$AAA?$AAr?$AAc?$AAh?$AAi?$AAt?$AAe?$AAc?$AAt?$AAu?$AAr?$AAe?$AA?6@ 00000000000d5668     UefiShellDebug1CommandsLib:PrintInfo.obj
 0002:00015688       ??_C@_1DC@BMHNHMCB@?$AAI?$AAn?$AAt?$AAe?$AAl?$AA?5?$AAC?$AAo?$AAr?$AAe?$AA?5?$AAi?$AA5?$AA?5?$AAp@ 00000000000d5688     UefiShellDebug1CommandsLib:PrintInfo.obj
 0002:000156c0       ??_C@_1DC@CDKDKBJA@?$AAI?$AAn?$AAt?$AAe?$AAl?$AA?5?$AAC?$AAo?$AAr?$AAe?$AA?5?$AAi?$AA3?$AA?5?$AAp@ 00000000000d56c0     UefiShellDebug1CommandsLib:PrintInfo.obj
 0002:000156f8       ??_C@_1DC@GDMAMHED@?$AAI?$AAn?$AAt?$AAe?$AAl?$AA?5?$AAC?$AAo?$AAr?$AAe?$AA?5?$AAi?$AA9?$AA?5?$AAp@ 00000000000d56f8     UefiShellDebug1CommandsLib:PrintInfo.obj
 0002:00015730       ??_C@_1BA@DPAOFKDF@?$AAV?$AAi?$AAa?$AAC?$AA7?$AAM?$AA?6@ 00000000000d5730     UefiShellDebug1CommandsLib:PrintInfo.obj
 0002:00015740       ??_C@_1BA@BIABALPN@?$AAV?$AAi?$AAa?$AAC?$AA7?$AAD?$AA?6@ 00000000000d5740     UefiShellDebug1CommandsLib:PrintInfo.obj
 0002:00015750       ??_C@_1O@KLIDCNLL@?$AAV?$AAi?$AAa?$AAC?$AA7?$AA?6@ 00000000000d5750     UefiShellDebug1CommandsLib:PrintInfo.obj
 0002:00015760       ??_C@_1M@DBKOHNOL@?$AAE?$AAd?$AAe?$AAn?$AA?6@ 00000000000d5760     UefiShellDebug1CommandsLib:PrintInfo.obj
 0002:00015770       ??_C@_1FK@HOMBONFK@?$AAM?$AAu?$AAl?$AAt?$AAi?$AA?9?$AAC?$AAo?$AAr?$AAe?$AA?5?$AAI?$AAn?$AAt?$AAe@ 00000000000d5770     UefiShellDebug1CommandsLib:PrintInfo.obj
 0002:000157d0       ??_C@_1EA@OGNJEDMM@?$AAA?$AAM?$AAD?$AA?5?$AAP?$AAh?$AAe?$AAn?$AAo?$AAm?$AA?5?$AAI?$AAI?$AA?5?$AAP@ 00000000000d57d0     UefiShellDebug1CommandsLib:PrintInfo.obj
 0002:00015810       ??_C@_1EA@JCFCBKHL@?$AAA?$AAM?$AAD?$AA?5?$AAA?$AAl?$AAt?$AAh?$AAo?$AAn?$AA?5?$AAI?$AAI?$AA?5?$AAP@ 00000000000d5810     UefiShellDebug1CommandsLib:PrintInfo.obj
 0002:00015850       ??_C@_1EO@MPMLOLPM@?$AAS?$AAi?$AAx?$AA?9?$AAC?$AAo?$AAr?$AAe?$AA?5?$AAA?$AAM?$AAD?$AA?5?$AAO?$AAp@ 00000000000d5850     UefiShellDebug1CommandsLib:PrintInfo.obj
 0002:000158a0       ??_C@_1EA@MJCKMPOO@?$AAA?$AAM?$AAD?$AA?5?$AAS?$AAe?$AAm?$AAp?$AAr?$AAo?$AAn?$AA?5?$AAM?$AA?5?$AAP@ 00000000000d58a0     UefiShellDebug1CommandsLib:PrintInfo.obj
 0002:000158e0       ??_C@_1M@GCJABAPG@?$AAi?$AA8?$AA6?$AA0?$AA?6@ 00000000000d58e0     UefiShellDebug1CommandsLib:PrintInfo.obj
 0002:000158f0       ??_C@_1M@INFCHLMI@?$AAi?$AA9?$AA6?$AA0?$AA?6@ 00000000000d58f0     UefiShellDebug1CommandsLib:PrintInfo.obj
 0002:00015900       ??_C@_1JI@FMGLMFGO@?$AAI?$AAn?$AAd?$AAi?$AAc?$AAa?$AAt?$AAo?$AAr?$AA?5?$AAt?$AAo?$AA?5?$AAo?$AAb@ 00000000000d5900     UefiShellDebug1CommandsLib:PrintInfo.obj
 0002:00015998       ??_C@_1O@FFALJHFK@?$AAA?$AAR?$AAM?$AAv?$AA7?$AA?6@ 00000000000d5998     UefiShellDebug1CommandsLib:PrintInfo.obj
 0002:000159a8       ??_C@_1O@KEFNCFIP@?$AAA?$AAR?$AAM?$AAv?$AA8?$AA?6@ 00000000000d59a8     UefiShellDebug1CommandsLib:PrintInfo.obj
 0002:000159b8       ??_C@_1M@MNICBENI@?$AAS?$AAH?$AA?9?$AA3?$AA?6@ 00000000000d59b8     UefiShellDebug1CommandsLib:PrintInfo.obj
 0002:000159c8       ??_C@_1M@NAIHCEGA@?$AAS?$AAH?$AA?9?$AA4?$AA?6@ 00000000000d59c8     UefiShellDebug1CommandsLib:PrintInfo.obj
 0002:000159d8       ??_C@_19KGHFPGHK@?$AAA?$AAR?$AAM?$AA?6@ 00000000000d59d8     UefiShellDebug1CommandsLib:PrintInfo.obj
 0002:000159e8       ??_C@_1BG@FGKDBBBD@?$AAS?$AAt?$AAr?$AAo?$AAn?$AAg?$AAA?$AAR?$AAM?$AA?6@ 00000000000d59e8     UefiShellDebug1CommandsLib:PrintInfo.obj
 0002:00015a00       ??_C@_1M@HBBGCDAE@?$AA6?$AAx?$AA8?$AA6?$AA?6@ 00000000000d5a00     UefiShellDebug1CommandsLib:PrintInfo.obj
 0002:00015a10       ??_C@_1BC@CAENEHEH@?$AAM?$AAe?$AAd?$AAi?$AAa?$AAG?$AAX?$AA?6@ 00000000000d5a10     UefiShellDebug1CommandsLib:PrintInfo.obj
 0002:00015a28       ??_C@_19GAJHJJP@?$AAM?$AAI?$AAI?$AA?6@ 00000000000d5a28     UefiShellDebug1CommandsLib:PrintInfo.obj
 0002:00015a38       ??_C@_1BC@GAGODIOP@?$AAW?$AAi?$AAn?$AAC?$AAh?$AAi?$AAp?$AA?6@ 00000000000d5a38     UefiShellDebug1CommandsLib:PrintInfo.obj
 0002:00015a50       ??_C@_19DDLOCMOF@?$AAD?$AAS?$AAP?$AA?6@ 00000000000d5a50     UefiShellDebug1CommandsLib:PrintInfo.obj
 0002:00015a60       ??_C@_1CC@OGDPKOEN@?$AAV?$AAi?$AAd?$AAe?$AAo?$AA?5?$AAP?$AAr?$AAo?$AAc?$AAe?$AAs?$AAs?$AAo?$AAr@ 00000000000d5a60     UefiShellDebug1CommandsLib:PrintInfo.obj
 0002:00015a88       ??_C@_1BK@CPPDDCIM@?$AAR?$AAI?$AAS?$AAC?$AA?9?$AAV?$AA?5?$AAR?$AAV?$AA3?$AA2?$AA?6@ 00000000000d5a88     UefiShellDebug1CommandsLib:PrintInfo.obj
 0002:00015aa8       ??_C@_1BK@LBEKNPPF@?$AAR?$AAI?$AAS?$AAC?$AA?9?$AAV?$AA?5?$AAR?$AAV?$AA6?$AA4?$AA?6@ 00000000000d5aa8     UefiShellDebug1CommandsLib:PrintInfo.obj
 0002:00015ac8       ??_C@_1BM@HNBLDPML@?$AAR?$AAI?$AAS?$AAC?$AA?9?$AAV?$AA?5?$AAR?$AAV?$AA1?$AA2?$AA8?$AA?6@ 00000000000d5ac8     UefiShellDebug1CommandsLib:PrintInfo.obj
 0002:00015af0       ??_C@_1FC@GDKAJBMP@?$AAT?$AAh?$AAe?$AA?5?$AAs?$AAy?$AAs?$AAt?$AAe?$AAm?$AA?5?$AAr?$AAe?$AAs?$AAe@ 00000000000d5af0     UefiShellDebug1CommandsLib:PrintInfo.obj
 0002:00015b50       ??_C@_1FE@CMLGLDEE@?$AAT?$AAh?$AAe?$AA?5?$AAs?$AAy?$AAs?$AAt?$AAe?$AAm?$AA?5?$AAr?$AAe?$AAs?$AAe@ 00000000000d5b50     UefiShellDebug1CommandsLib:PrintInfo.obj
 0002:00015ba8       ??_C@_0BH@HOJGLDNJ@Smbios?5?$CB?$DN?5?$CI?$CIvoid?5?$CK?$CJ?50?$CJ@ 00000000000d5ba8     UefiShellDebug1CommandsLib:LibSmbiosView.obj
 0002:00015bc0       ??_C@_0FN@PCCDFIKD@f?3?2uefiworkspace?2edk2?2ShellPkg?2@ 00000000000d5bc0     UefiShellDebug1CommandsLib:LibSmbiosView.obj
 0002:00015c20       ??_C@_1EO@GOADCGFO@?$AAF?$AAi?$AAl?$AAe?$AA?5?$AAm?$AAo?$AAd?$AAi?$AAf?$AAi?$AAe?$AAd?$AA?4?$AA?5@ 00000000000d5c20     UefiShellDebug1CommandsLib:MainTextEditor.obj
 0002:00015c70       ??_C@_1EG@GMIKLNFD@?$AAR?$AAe?$AAa?$AAd?$AA?5?$AAO?$AAn?$AAl?$AAy?$AA?5?$AAF?$AAi?$AAl?$AAe?$AA?5@ 00000000000d5c70     UefiShellDebug1CommandsLib:MainTextEditor.obj
 0002:00015cb8       ??_C@_1CC@MLNBOFNI@?$AAN?$AAo?$AA?5?$AAL?$AAi?$AAn?$AAe?$AA?5?$AAt?$AAo?$AA?5?$AAP?$AAa?$AAs?$AAt@ 00000000000d5cb8     UefiShellDebug1CommandsLib:MainTextEditor.obj
 0002:00015ce0       ??_C@_1CM@DJMHEHIN@?$AAE?$AAn?$AAt?$AAe?$AAr?$AA?5?$AAS?$AAe?$AAa?$AAr?$AAc?$AAh?$AA?5?$AAS?$AAt@ 00000000000d5ce0     UefiShellDebug1CommandsLib:MainTextEditor.obj
 0002:00015d10       ??_C@_1CK@IKKEFLKO@?$AAF?$AAi?$AAn?$AAd?$AA?5?$AAN?$AAe?$AAx?$AAt?$AA?5?$AA?$CI?$AAY?$AAe?$AAs?$AA?1@ 00000000000d5d10     UefiShellDebug1CommandsLib:MainTextEditor.obj
 0002:00015d40       ??_C@_1DA@GANIGBBH@?$AAS?$AAe?$AAa?$AAr?$AAc?$AAh?$AA?5?$AAS?$AAt?$AAr?$AAi?$AAn?$AAg?$AA?5?$AAN@ 00000000000d5d40     UefiShellDebug1CommandsLib:MainTextEditor.obj
 0002:00015d70       ??_C@_1BO@POPBJCFI@?$AAR?$AAe?$AAp?$AAl?$AAa?$AAc?$AAe?$AA?5?$AAW?$AAi?$AAt?$AAh?$AA?3?$AA?5@ 00000000000d5d70     UefiShellDebug1CommandsLib:MainTextEditor.obj
 0002:00015d90       ??_C@_1DM@FAGODAPI@?$AAR?$AAe?$AAp?$AAl?$AAa?$AAc?$AAe?$AA?5?$AA?$CI?$AAY?$AAe?$AAs?$AA?1?$AAN?$AAo@ 00000000000d5d90     UefiShellDebug1CommandsLib:MainTextEditor.obj
 0002:00015dd0       ??_C@_1BK@OOJDBGIO@?$AAG?$AAo?$AA?5?$AAT?$AAo?$AA?5?$AAL?$AAi?$AAn?$AAe?$AA?3?$AA?5@ 00000000000d5dd0     UefiShellDebug1CommandsLib:MainTextEditor.obj
 0002:00015df0       ??_C@_1BK@NIKDLOEH@?$AAN?$AAo?$AA?5?$AAS?$AAu?$AAc?$AAh?$AA?5?$AAL?$AAi?$AAn?$AAe@ 00000000000d5df0     UefiShellDebug1CommandsLib:MainTextEditor.obj
 0002:00015e10       ??_C@_1BI@NDMBEGJD@?$AAO?$AAp?$AAe?$AAn?$AA?5?$AAF?$AAa?$AAi?$AAl?$AAe?$AAd@ 00000000000d5e10     UefiShellDebug1CommandsLib:MainTextEditor.obj
 0002:00015e28       ??_C@_1DE@JKIEKFMF@?$AAA?$AAc?$AAc?$AAe?$AAs?$AAs?$AA?5?$AAD?$AAe?$AAn?$AAi?$AAe?$AAd?$AA?5?$AA?9@ 00000000000d5e28     UefiShellDebug1CommandsLib:MainTextEditor.obj
 0002:00015e60       ??_C@_1BE@GDKECBCM@?$AAU?$AAE?$AAF?$AAI?$AA?5?$AAE?$AAD?$AAI?$AAT@ 00000000000d5e60     UefiShellDebug1CommandsLib:MainTextEditor.obj
 0002:00015e80       ??_C@_0FI@FIGOFHBJ@f?3?2uefiworkspace?2edk2?2ShellPkg?2@ 00000000000d5e80     UefiShellDebug1CommandsLib:MainTextEditor.obj
 0002:00015ed8       ??_C@_17LBOLAHJL@?$AAt?$AAx?$AAt@ 00000000000d5ed8     UefiShellDebug1CommandsLib:FileBuffer.obj
 0002:00015ee0       ??_C@_0FE@GBNMAAHP@f?3?2uefiworkspace?2edk2?2ShellPkg?2@ 00000000000d5ee0     UefiShellDebug1CommandsLib:FileBuffer.obj
 0002:00015f38       ??_C@_0BB@PBKMNOL@0x0000?5?$DN?$DN?50x0000@ 00000000000d5f38     UefiShellDebug1CommandsLib:FileBuffer.obj
 0002:00015f50       ??_C@_1BG@BHAMKCMJ@?$AAD?$AAi?$AAs?$AAk?$AA?5?$AAE?$AAr?$AAr?$AAo?$AAr@ 00000000000d5f50     UefiShellDebug1CommandsLib:FileBuffer.obj
 0002:00015f68       ??_C@_1DI@JJCDHCMP@?$AAD?$AAi?$AAr?$AAe?$AAc?$AAt?$AAo?$AAr?$AAy?$AA?5?$AAC?$AAa?$AAn?$AA?5?$AAN@ 00000000000d5f68     UefiShellDebug1CommandsLib:FileBuffer.obj
 0002:00015fa0       ??_C@_1FO@MJPODDGD@?$AAI?$AAn?$AAv?$AAa?$AAl?$AAi?$AAd?$AA?5?$AAF?$AAi?$AAl?$AAe?$AA?5?$AAN?$AAa@ 00000000000d5fa0     UefiShellDebug1CommandsLib:FileBuffer.obj
 0002:00016000       ??_C@_1CC@ECPIEGMO@?$AAR?$AAe?$AAa?$AAd?$AA?5?$AAF?$AAi?$AAl?$AAe?$AA?5?$AAF?$AAa?$AAi?$AAl?$AAe@ 00000000000d6000     UefiShellDebug1CommandsLib:FileBuffer.obj
 0002:00016028       ??_C@_1CE@MDDOMDFD@?$AAF?$AAi?$AAl?$AAe?$AA?5?$AAF?$AAo?$AAr?$AAm?$AAa?$AAt?$AA?5?$AAW?$AAr?$AAo@ 00000000000d6028     UefiShellDebug1CommandsLib:FileBuffer.obj
 0002:00016050       ??_C@_1BM@EIMMJFOI@?$AA?$CF?$AAd?$AA?5?$AAL?$AAi?$AAn?$AAe?$AAs?$AA?5?$AAR?$AAe?$AAa?$AAd@ 00000000000d6050     UefiShellDebug1CommandsLib:FileBuffer.obj
 0002:00016070       ??_C@_1EA@KMGLANCH@?$AAR?$AAe?$AAa?$AAd?$AA?5?$AAO?$AAn?$AAl?$AAy?$AA?5?$AAF?$AAi?$AAl?$AAe?$AA?5@ 00000000000d6070     UefiShellDebug1CommandsLib:FileBuffer.obj
 0002:000160b0       ??_C@_1DG@JNGOCPNM@?$AAD?$AAi?$AAr?$AAe?$AAc?$AAt?$AAo?$AAr?$AAy?$AA?5?$AAC?$AAa?$AAn?$AA?5?$AAN@ 00000000000d60b0     UefiShellDebug1CommandsLib:FileBuffer.obj
 0002:000160e8       ??_C@_1CE@ICGBOPPJ@?$AAW?$AAr?$AAi?$AAt?$AAe?$AA?5?$AAF?$AAi?$AAl?$AAe?$AA?5?$AAF?$AAa?$AAi?$AAl@ 00000000000d60e8     UefiShellDebug1CommandsLib:FileBuffer.obj
 0002:00016110       ??_C@_1CG@LGANFAB@?$AAC?$AAr?$AAe?$AAa?$AAt?$AAe?$AA?5?$AAF?$AAi?$AAl?$AAe?$AA?5?$AAF?$AAa?$AAi@ 00000000000d6110     UefiShellDebug1CommandsLib:FileBuffer.obj
 0002:00016138       ??_C@_1CC@FCLNIBFG@?$AA?$CF?$AAd?$AA?5?$AAL?$AAi?$AAn?$AAe?$AAs?$AA?5?$AAW?$AAr?$AAi?$AAt?$AAt?$AAe@ 00000000000d6138     UefiShellDebug1CommandsLib:FileBuffer.obj
 0002:00016160       ??_C@_1BO@PAMCONJL@?$AAN?$AAo?$AAt?$AAh?$AAi?$AAn?$AAg?$AA?5?$AAt?$AAo?$AA?5?$AAC?$AAu?$AAt@ 00000000000d6160     UefiShellDebug1CommandsLib:FileBuffer.obj
 0002:00016180       ??_C@_0BI@LLPNPOOB@ReplaceLen?5?$DN?$DN?5SearchLen@ 00000000000d6180     UefiShellDebug1CommandsLib:FileBuffer.obj
 0002:000161a0       ??_C@_0FB@IOKDAPGE@f?3?2uefiworkspace?2edk2?2ShellPkg?2@ 00000000000d61a0     UefiShellDebug1CommandsLib:Misc.obj
 0002:000161f8       ??_C@_1O@HMNHGLNF@?$AAY?$AAe?$AAs?$AA?1?$AAN?$AAo@ 00000000000d61f8     UefiShellDebug1CommandsLib:EditInputBar.obj
 0002:00016208       ??_C@_17GMPJMPF@?$AA?$CF?$AAs?$AA?5@ 00000000000d6208     UefiShellDebug1CommandsLib:EditInputBar.obj
 0002:00016210       ??_C@_1M@EHCOGDLN@?$AA?$CF?$AAs?$AA?5?$AA?5?$AA?5@ 00000000000d6210     UefiShellDebug1CommandsLib:EditTitleBar.obj
 0002:00016220       ??_C@_1O@NGMHFILL@?$AA?4?$AA?4?$AA?4?$AA?5?$AA?5?$AA?5@ 00000000000d6220     UefiShellDebug1CommandsLib:EditTitleBar.obj
 0002:00016230       ??_C@_1CA@JILHKOPA@?$AA?5?$AA?5?$AA?5?$AA?5?$AA?5?$AAA?$AAS?$AAC?$AAI?$AAI?$AA?5?$AA?5?$AA?5?$AA?5?$AA?5@ 00000000000d6230     UefiShellDebug1CommandsLib:EditTitleBar.obj
 0002:00016250       ??_C@_1CA@DJBIHGGP@?$AA?5?$AA?5?$AA?5?$AA?5?$AA?5?$AAU?$AAN?$AAI?$AAC?$AAO?$AAD?$AAE?$AA?5?$AA?5?$AA?5@ 00000000000d6250     UefiShellDebug1CommandsLib:EditTitleBar.obj
 0002:00016270       ??_C@_1BI@ONNEOCHN@?$AAR?$AAe?$AAa?$AAd?$AAO?$AAn?$AAl?$AAy?$AA?5?$AA?5?$AA?5@ 00000000000d6270     UefiShellDebug1CommandsLib:EditTitleBar.obj
 0002:00016288       ??_C@_1BI@LOBCKCIO@?$AA?5?$AA?5?$AA?5?$AA?5?$AA?5?$AA?5?$AA?5?$AA?5?$AA?5?$AA?5?$AA?5@ 00000000000d6288     UefiShellDebug1CommandsLib:EditTitleBar.obj
 0002:000162a0       ??_C@_1CI@OGNHBGN@?$AAO?$AAf?$AAf?$AAs?$AAe?$AAt?$AA?5?$AA?$CF?$AAX?$AA?5?$AA?$HM?$AA?5?$AAS?$AAi?$AAz@ 00000000000d62a0     UefiShellDebug1CommandsLib:EditTitleBar.obj
 0002:000162c8       ??_C@_1BC@LJMDACDF@?$AAM?$AAo?$AAd?$AAi?$AAf?$AAi?$AAe?$AAd@ 00000000000d62c8     UefiShellDebug1CommandsLib:EditTitleBar.obj
 0002:000162e0       ??_C@_1CG@PKEPGPJG@?$AAR?$AAe?$AAa?$AAd?$AA?5?$AAM?$AAe?$AAm?$AAo?$AAr?$AAy?$AA?5?$AAF?$AAa?$AAi@ 00000000000d62e0     UefiShellDebug1CommandsLib:MemImage.obj
 0002:00016310       ??_C@_1EA@GENECJI@?$AAM?$AAe?$AAm?$AAo?$AAr?$AAy?$AA?5?$AAS?$AAp?$AAe?$AAc?$AAi?$AAf?$AAi?$AAe@ 00000000000d6310     UefiShellDebug1CommandsLib:MemImage.obj
 0002:00016350       ??_C@_0FF@EFHIFAJK@f?3?2uefiworkspace?2edk2?2ShellPkg?2@ 00000000000d6350     UefiShellDebug1CommandsLib:MemImage.obj
 0002:000163a8       ??_C@_1CG@GGCANCNJ@?$AAC?$AAa?$AAn?$AAn?$AAo?$AAt?$AA?5?$AAF?$AAi?$AAn?$AAd?$AA?5?$AAD?$AAe?$AAv@ 00000000000d63a8     UefiShellDebug1CommandsLib:DiskImage.obj
 0002:000163d0       ??_C@_1CC@BOLHEDEM@?$AAR?$AAe?$AAa?$AAd?$AA?5?$AAD?$AAi?$AAs?$AAk?$AA?5?$AAF?$AAa?$AAi?$AAl?$AAe@ 00000000000d63d0     UefiShellDebug1CommandsLib:DiskImage.obj
 0002:000163f8       ??_C@_1CM@FECOOMNI@?$AAI?$AAn?$AAv?$AAa?$AAl?$AAi?$AAd?$AA?5?$AAO?$AAf?$AAf?$AAs?$AAe?$AAt?$AA?5@ 00000000000d63f8     UefiShellDebug1CommandsLib:DiskImage.obj
 0002:00016430       ??_C@_0FG@HOMOPOEM@f?3?2uefiworkspace?2edk2?2ShellPkg?2@ 00000000000d6430     UefiShellDebug1CommandsLib:DiskImage.obj
 0002:00016488       ??_C@_1DE@HNKDFIPF@?$AAR?$AAe?$AAa?$AAd?$AA?5?$AAe?$AAr?$AAr?$AAo?$AAr?$AA?5?$AAo?$AAn?$AA?5?$AAf@ 00000000000d6488     UefiShellDebug1CommandsLib:FileImage.obj
 0002:000164c0       ??_C@_1CI@LDONJDG@?$AAE?$AAr?$AAr?$AAo?$AAr?$AA?5?$AAp?$AAa?$AAr?$AAs?$AAi?$AAn?$AAg?$AA?5?$AAf@ 00000000000d64c0     UefiShellDebug1CommandsLib:FileImage.obj
 0002:000164f0       ??_C@_0FG@IMJCGBCE@f?3?2uefiworkspace?2edk2?2ShellPkg?2@ 00000000000d64f0     UefiShellDebug1CommandsLib:FileImage.obj
 0002:00016548       ??_C@_1BE@GKDFJNJK@?$AA?5?$AAR?$AAe?$AAs?$AAe?$AAr?$AAv?$AAe?$AAd@ 00000000000d6548     UefiShellDebug1CommandsLib:QueryTable.obj
 0002:00016560       ??_C@_1O@MEHELOHD@?$AA?5?$AAO?$AAt?$AAh?$AAe?$AAr@ 00000000000d6560     UefiShellDebug1CommandsLib:QueryTable.obj
 0002:00016570       ??_C@_1BC@GCBPLEMC@?$AA?5?$AAU?$AAn?$AAk?$AAn?$AAo?$AAw?$AAn@ 00000000000d6570     UefiShellDebug1CommandsLib:QueryTable.obj
 0002:00016588       ??_C@_1BG@DBMGKKNC@?$AA?5?$AAA?$AAP?$AAM?$AA?5?$AAT?$AAi?$AAm?$AAe?$AAr@ 00000000000d6588     UefiShellDebug1CommandsLib:QueryTable.obj
 0002:000165a0       ??_C@_1BI@KDNAJOKG@?$AA?5?$AAM?$AAo?$AAd?$AAe?$AAm?$AA?5?$AAR?$AAi?$AAn?$AAg@ 00000000000d65a0     UefiShellDebug1CommandsLib:QueryTable.obj
 0002:000165b8       ??_C@_1BI@KOEJLOLP@?$AA?5?$AAL?$AAA?$AAN?$AA?5?$AAR?$AAe?$AAm?$AAo?$AAt?$AAe@ 00000000000d65b8     UefiShellDebug1CommandsLib:QueryTable.obj
 0002:000165d0       ??_C@_1BM@DDPHONKP@?$AA?5?$AAP?$AAo?$AAw?$AAe?$AAr?$AA?5?$AAS?$AAw?$AAi?$AAt?$AAc?$AAh@ 00000000000d65d0     UefiShellDebug1CommandsLib:QueryTable.obj
 0002:000165f0       ??_C@_1CG@BNFLMOMD@?$AA?5?$AAA?$AAC?$AA?5?$AAP?$AAo?$AAw?$AAe?$AAr?$AA?5?$AAR?$AAe?$AAs?$AAt?$AAo@ 00000000000d65f0     UefiShellDebug1CommandsLib:QueryTable.obj
 0002:00016618       ??_C@_1BO@NKAGCGLK@?$AA?5?$AAH?$AAo?$AAs?$AAt?$AAi?$AAn?$AAg?$AA?5?$AAb?$AAo?$AAa?$AAr?$AAd@ 00000000000d6618     UefiShellDebug1CommandsLib:QueryTable.obj
 0002:00016640       ??_C@_1HA@PNHHHGEL@?$AA?5?$AAR?$AAe?$AAq?$AAu?$AAi?$AAr?$AAe?$AAs?$AA?5?$AAa?$AAt?$AA?5?$AAl?$AAe@ 00000000000d6640     UefiShellDebug1CommandsLib:QueryTable.obj
 0002:000166b0       ??_C@_1BG@DNJINIFJ@?$AA?5?$AAR?$AAe?$AAm?$AAo?$AAv?$AAa?$AAb?$AAl?$AAe@ 00000000000d66b0     UefiShellDebug1CommandsLib:QueryTable.obj
 0002:000166c8       ??_C@_1BK@GKKDLJDJ@?$AA?5?$AAR?$AAe?$AAp?$AAl?$AAa?$AAc?$AAe?$AAa?$AAb?$AAl?$AAe@ 00000000000d66c8     UefiShellDebug1CommandsLib:QueryTable.obj
 0002:000166e8       ??_C@_1BO@DAOKEGGB@?$AA?5?$AAH?$AAo?$AAt?$AA?5?$AAs?$AAw?$AAa?$AAp?$AAp?$AAa?$AAb?$AAl?$AAe@ 00000000000d66e8     UefiShellDebug1CommandsLib:QueryTable.obj
 0002:00016708       ??_C@_1BM@GJJNJBFG@?$AA?5?$AAS?$AAe?$AAr?$AAv?$AAe?$AAr?$AA?5?$AAB?$AAl?$AAa?$AAd?$AAe@ 00000000000d6708     UefiShellDebug1CommandsLib:QueryTable.obj
 0002:00016728       ??_C@_1CK@FNJGONFO@?$AA?5?$AAC?$AAo?$AAn?$AAn?$AAe?$AAc?$AAt?$AAi?$AAv?$AAi?$AAt?$AAy?$AA?5?$AAS@ 00000000000d6728     UefiShellDebug1CommandsLib:QueryTable.obj
 0002:00016758       ??_C@_1DE@NKMEOENE@?$AA?5?$AAS?$AAy?$AAs?$AAt?$AAe?$AAm?$AA?5?$AAM?$AAa?$AAn?$AAa?$AAg?$AAe?$AAm@ 00000000000d6758     UefiShellDebug1CommandsLib:QueryTable.obj
 0002:00016790       ??_C@_1CE@LIIEMPHG@?$AA?5?$AAP?$AAr?$AAo?$AAc?$AAe?$AAs?$AAs?$AAo?$AAr?$AA?5?$AAM?$AAo?$AAd?$AAu@ 00000000000d6790     UefiShellDebug1CommandsLib:QueryTable.obj
 0002:000167b8       ??_C@_1BI@BIJEKCMA@?$AA?5?$AAI?$AA?1?$AAO?$AA?5?$AAM?$AAo?$AAd?$AAu?$AAl?$AAe@ 00000000000d67b8     UefiShellDebug1CommandsLib:QueryTable.obj
 0002:000167d0       ??_C@_1BO@EDNHMPEI@?$AA?5?$AAM?$AAe?$AAm?$AAo?$AAr?$AAy?$AA?5?$AAM?$AAo?$AAd?$AAu?$AAl?$AAe@ 00000000000d67d0     UefiShellDebug1CommandsLib:QueryTable.obj
 0002:000167f0       ??_C@_1CA@EMPCDKKO@?$AA?5?$AAD?$AAa?$AAu?$AAg?$AAh?$AAt?$AAe?$AAr?$AA?5?$AAb?$AAo?$AAa?$AAr?$AAd@ 00000000000d67f0     UefiShellDebug1CommandsLib:QueryTable.obj
 0002:00016810       ??_C@_1BK@GOLJFFNO@?$AA?5?$AAM?$AAo?$AAt?$AAh?$AAe?$AAr?$AAb?$AAo?$AAa?$AAr?$AAd@ 00000000000d6810     UefiShellDebug1CommandsLib:QueryTable.obj
 0002:00016830       ??_C@_1DC@DBOEEGIB@?$AA?5?$AAP?$AAr?$AAo?$AAc?$AAe?$AAs?$AAs?$AAo?$AAr?$AA?1?$AAM?$AAe?$AAm?$AAo@ 00000000000d6830     UefiShellDebug1CommandsLib:QueryTable.obj
 0002:00016868       ??_C@_1CK@LNJLFKOO@?$AA?5?$AAP?$AAr?$AAo?$AAc?$AAe?$AAs?$AAs?$AAo?$AAr?$AA?1?$AAI?$AAO?$AA?5?$AAM@ 00000000000d6868     UefiShellDebug1CommandsLib:QueryTable.obj
 0002:00016898       ??_C@_1CI@BDNIGKAE@?$AA?5?$AAI?$AAn?$AAt?$AAe?$AAr?$AAc?$AAo?$AAn?$AAn?$AAe?$AAc?$AAt?$AA?5?$AAB@ 00000000000d6898     UefiShellDebug1CommandsLib:QueryTable.obj
 0002:000168c0       ??_C@_1BA@OOELPHJM@?$AA?5?$AA?5?$AAO?$AAt?$AAh?$AAe?$AAr@ 00000000000d68c0     UefiShellDebug1CommandsLib:QueryTable.obj
 0002:000168d0       ??_C@_1BE@BACNLAAJ@?$AA?5?$AA?5?$AAU?$AAn?$AAk?$AAn?$AAo?$AAw?$AAn@ 00000000000d68d0     UefiShellDebug1CommandsLib:QueryTable.obj
 0002:000168e8       ??_C@_1BE@IFPFPJIK@?$AA?5?$AA?5?$AAD?$AAe?$AAs?$AAk?$AAt?$AAo?$AAp@ 00000000000d68e8     UefiShellDebug1CommandsLib:QueryTable.obj
 0002:00016900       ??_C@_1CM@FOJEGAAF@?$AA?5?$AA?5?$AAL?$AAo?$AAw?$AA?5?$AAP?$AAr?$AAo?$AAf?$AAi?$AAl?$AAe?$AA?5?$AAD@ 00000000000d6900     UefiShellDebug1CommandsLib:QueryTable.obj
 0002:00016930       ??_C@_1BI@DDDHDBNI@?$AA?5?$AA?5?$AAP?$AAi?$AAz?$AAz?$AAa?$AA?5?$AAB?$AAo?$AAx@ 00000000000d6930     UefiShellDebug1CommandsLib:QueryTable.obj
 0002:00016948       ??_C@_1BK@DJJPJBEJ@?$AA?5?$AA?5?$AAM?$AAi?$AAn?$AAi?$AA?5?$AAT?$AAo?$AAw?$AAe?$AAr@ 00000000000d6948     UefiShellDebug1CommandsLib:QueryTable.obj
 0002:00016968       ??_C@_1BA@OJBEOHPG@?$AA?5?$AA?5?$AAT?$AAo?$AAw?$AAe?$AAr@ 00000000000d6968     UefiShellDebug1CommandsLib:QueryTable.obj
 0002:00016978       ??_C@_1BG@BFFIIHOJ@?$AA?5?$AA?5?$AAP?$AAo?$AAr?$AAt?$AAa?$AAb?$AAl?$AAe@ 00000000000d6978     UefiShellDebug1CommandsLib:QueryTable.obj
 0002:00016990       ??_C@_1BC@EGOILCKF@?$AA?5?$AA?5?$AAL?$AAa?$AAp?$AAt?$AAo?$AAp@ 00000000000d6990     UefiShellDebug1CommandsLib:QueryTable.obj
 0002:000169a8       ??_C@_1BG@FLNAIIBC@?$AA?5?$AA?5?$AAN?$AAo?$AAt?$AAe?$AAb?$AAo?$AAo?$AAk@ 00000000000d69a8     UefiShellDebug1CommandsLib:QueryTable.obj
 0002:000169c0       ??_C@_1BI@MAFKLHGL@?$AA?5?$AA?5?$AAH?$AAa?$AAn?$AAd?$AA?5?$AAH?$AAe?$AAl?$AAd@ 00000000000d69c0     UefiShellDebug1CommandsLib:QueryTable.obj
 0002:000169d8       ??_C@_1CE@CAKEGNHA@?$AA?5?$AA?5?$AAD?$AAo?$AAc?$AAk?$AAi?$AAn?$AAg?$AA?5?$AAS?$AAt?$AAa?$AAt?$AAi@ 00000000000d69d8     UefiShellDebug1CommandsLib:QueryTable.obj
 0002:00016a00       ??_C@_1BK@IOEHDKCF@?$AA?5?$AA?5?$AAA?$AAl?$AAl?$AA?5?$AAi?$AAn?$AA?5?$AAO?$AAn?$AAe@ 00000000000d6a00     UefiShellDebug1CommandsLib:QueryTable.obj
 0002:00016a20       ??_C@_1BO@BDBJGHIN@?$AA?5?$AA?5?$AAS?$AAu?$AAb?$AA?5?$AAN?$AAo?$AAt?$AAe?$AAb?$AAo?$AAo?$AAk@ 00000000000d6a20     UefiShellDebug1CommandsLib:QueryTable.obj
 0002:00016a40       ??_C@_1BO@FODHBBBJ@?$AA?5?$AA?5?$AAS?$AAp?$AAa?$AAc?$AAe?$AA?9?$AAs?$AAa?$AAv?$AAi?$AAn?$AAg@ 00000000000d6a40     UefiShellDebug1CommandsLib:QueryTable.obj
 0002:00016a60       ??_C@_1BI@FFMGAJKA@?$AA?5?$AA?5?$AAL?$AAu?$AAn?$AAc?$AAh?$AA?5?$AAB?$AAo?$AAx@ 00000000000d6a60     UefiShellDebug1CommandsLib:QueryTable.obj
 0002:00016a78       ??_C@_1CM@FFCFCLID@?$AA?5?$AA?5?$AAM?$AAa?$AAi?$AAn?$AA?5?$AAS?$AAe?$AAr?$AAv?$AAe?$AAr?$AA?5?$AAC@ 00000000000d6a78     UefiShellDebug1CommandsLib:QueryTable.obj
 0002:00016aa8       ??_C@_1CI@MGPGBCKO@?$AA?5?$AA?5?$AAE?$AAx?$AAp?$AAa?$AAn?$AAs?$AAi?$AAo?$AAn?$AA?5?$AAC?$AAh?$AAa@ 00000000000d6aa8     UefiShellDebug1CommandsLib:QueryTable.obj
 0002:00016ad0       ??_C@_1BK@BPJDOJEM@?$AA?5?$AA?5?$AAS?$AAu?$AAb?$AAC?$AAh?$AAa?$AAs?$AAs?$AAi?$AAs@ 00000000000d6ad0     UefiShellDebug1CommandsLib:QueryTable.obj
 0002:00016af0       ??_C@_1DA@KLLLCEHO@?$AA?5?$AA?5?$AAB?$AAu?$AAs?$AA?5?$AAE?$AAx?$AAp?$AAa?$AAn?$AAs?$AAi?$AAo?$AAn@ 00000000000d6af0     UefiShellDebug1CommandsLib:QueryTable.obj
 0002:00016b20       ??_C@_1CK@NLFMAGOA@?$AA?5?$AA?5?$AAP?$AAe?$AAr?$AAi?$AAp?$AAh?$AAe?$AAr?$AAa?$AAl?$AA?5?$AAC?$AAh@ 00000000000d6b20     UefiShellDebug1CommandsLib:QueryTable.obj
 0002:00016b50       ??_C@_1BO@NEMEGKEI@?$AA?5?$AA?5?$AAR?$AAA?$AAI?$AAD?$AA?5?$AAC?$AAh?$AAa?$AAs?$AAs?$AAi?$AAs@ 00000000000d6b50     UefiShellDebug1CommandsLib:QueryTable.obj
 0002:00016b70       ??_C@_1CK@JDJBLCID@?$AA?5?$AA?5?$AAR?$AAa?$AAc?$AAk?$AA?5?$AAM?$AAo?$AAu?$AAn?$AAt?$AA?5?$AAC?$AAh@ 00000000000d6b70     UefiShellDebug1CommandsLib:QueryTable.obj
 0002:00016ba0       ??_C@_1CC@KPCJNEID@?$AA?5?$AA?5?$AAS?$AAe?$AAa?$AAl?$AAe?$AAd?$AA?9?$AAc?$AAa?$AAs?$AAe?$AA?5?$AAP@ 00000000000d6ba0     UefiShellDebug1CommandsLib:QueryTable.obj
 0002:00016bc8       ??_C@_1CO@CJCOGDGK@?$AA?5?$AA?5?$AAM?$AAu?$AAl?$AAt?$AAi?$AA?9?$AAs?$AAy?$AAs?$AAt?$AAe?$AAm?$AA?5@ 00000000000d6bc8     UefiShellDebug1CommandsLib:QueryTable.obj
 0002:00016bf8       ??_C@_1BK@MBPBNMOJ@?$AA?5?$AA?5?$AAC?$AAo?$AAm?$AAp?$AAa?$AAc?$AAt?$AAP?$AAC?$AAI@ 00000000000d6bf8     UefiShellDebug1CommandsLib:QueryTable.obj
 0002:00016c18       ??_C@_1BM@MGJOEKKH@?$AA?5?$AA?5?$AAA?$AAd?$AAv?$AAa?$AAn?$AAc?$AAe?$AAd?$AAT?$AAC?$AAA@ 00000000000d6c18     UefiShellDebug1CommandsLib:QueryTable.obj
 0002:00016c38       ??_C@_1BA@FNEAJAMG@?$AA?5?$AA?5?$AAB?$AAl?$AAa?$AAd?$AAe@ 00000000000d6c38     UefiShellDebug1CommandsLib:QueryTable.obj
 0002:00016c48       ??_C@_1CE@IGONFHMB@?$AA?5?$AA?5?$AAB?$AAl?$AAa?$AAd?$AAe?$AA?5?$AAE?$AAn?$AAc?$AAl?$AAo?$AAs?$AAu@ 00000000000d6c48     UefiShellDebug1CommandsLib:QueryTable.obj
 0002:00016c70       ??_C@_1BC@LBPPFPIF@?$AA?5?$AA?5?$AAT?$AAa?$AAb?$AAl?$AAe?$AAt@ 00000000000d6c70     UefiShellDebug1CommandsLib:QueryTable.obj
 0002:00016c88       ??_C@_1BM@HECDCPPH@?$AA?5?$AA?5?$AAC?$AAo?$AAn?$AAv?$AAe?$AAr?$AAt?$AAi?$AAb?$AAl?$AAe@ 00000000000d6c88     UefiShellDebug1CommandsLib:QueryTable.obj
 0002:00016ca8       ??_C@_1BK@OHFPHAAH@?$AA?5?$AA?5?$AAD?$AAe?$AAt?$AAa?$AAc?$AAh?$AAa?$AAb?$AAl?$AAe@ 00000000000d6ca8     UefiShellDebug1CommandsLib:QueryTable.obj
 0002:00016cc8       ??_C@_1BM@EKBCHHDK@?$AA?5?$AA?5?$AAI?$AAo?$AAT?$AA?5?$AAG?$AAa?$AAt?$AAe?$AAw?$AAa?$AAy@ 00000000000d6cc8     UefiShellDebug1CommandsLib:QueryTable.obj
 0002:00016ce8       ??_C@_1BM@DCFPDGHK@?$AA?5?$AA?5?$AAE?$AAm?$AAb?$AAe?$AAd?$AAd?$AAe?$AAd?$AA?5?$AAP?$AAC@ 00000000000d6ce8     UefiShellDebug1CommandsLib:QueryTable.obj
 0002:00016d08       ??_C@_1BE@CCOHEFFN@?$AA?5?$AA?5?$AAM?$AAi?$AAn?$AAi?$AA?5?$AAP?$AAC@ 00000000000d6d08     UefiShellDebug1CommandsLib:QueryTable.obj
 0002:00016d20       ??_C@_1BG@JIFDCODH@?$AA?5?$AA?5?$AAS?$AAt?$AAi?$AAc?$AAk?$AA?5?$AAP?$AAC@ 00000000000d6d20     UefiShellDebug1CommandsLib:QueryTable.obj
 0002:00016d38       ??_C@_1M@CMJEHA@?$AA?5?$AAS?$AAa?$AAf?$AAe@ 00000000000d6d38     UefiShellDebug1CommandsLib:QueryTable.obj
 0002:00016d48       ??_C@_1BC@LNCEOHGE@?$AA?5?$AAW?$AAa?$AAr?$AAn?$AAi?$AAn?$AAg@ 00000000000d6d48     UefiShellDebug1CommandsLib:QueryTable.obj
 0002:00016d60       ??_C@_1BE@CGBCNJEF@?$AA?5?$AAC?$AAr?$AAi?$AAt?$AAi?$AAc?$AAa?$AAl@ 00000000000d6d60     UefiShellDebug1CommandsLib:QueryTable.obj
 0002:00016d78       ??_C@_1CC@GPPBKKLG@?$AA?5?$AAN?$AAo?$AAn?$AA?9?$AAr?$AAe?$AAc?$AAo?$AAv?$AAe?$AAr?$AAa?$AAb?$AAl@ 00000000000d6d78     UefiShellDebug1CommandsLib:QueryTable.obj
 0002:00016da0       ??_C@_1M@CLKFAOHH@?$AA?5?$AAN?$AAo?$AAn?$AAe@ 00000000000d6da0     UefiShellDebug1CommandsLib:QueryTable.obj
 0002:00016db0       ??_C@_1DO@PNDEDNIL@?$AA?5?$AAE?$AAx?$AAt?$AAe?$AAr?$AAn?$AAa?$AAl?$AA?5?$AAi?$AAn?$AAt?$AAe?$AAr@ 00000000000d6db0     UefiShellDebug1CommandsLib:QueryTable.obj
 0002:00016df0       ??_C@_1DI@EGCBBEIH@?$AA?5?$AAE?$AAx?$AAt?$AAe?$AAr?$AAn?$AAa?$AAl?$AA?5?$AAi?$AAn?$AAt?$AAe?$AAr@ 00000000000d6df0     UefiShellDebug1CommandsLib:QueryTable.obj
 0002:00016e28       ??_C@_1CG@JLPJBJLA@?$AA?5?$AAC?$AAe?$AAn?$AAt?$AAr?$AAa?$AAl?$AA?5?$AAP?$AAr?$AAo?$AAc?$AAe?$AAs@ 00000000000d6e28     UefiShellDebug1CommandsLib:QueryTable.obj
 0002:00016e50       ??_C@_1CA@MLGGILEE@?$AA?5?$AAM?$AAa?$AAt?$AAh?$AA?5?$AAP?$AAr?$AAo?$AAc?$AAe?$AAs?$AAs?$AAo?$AAr@ 00000000000d6e50     UefiShellDebug1CommandsLib:QueryTable.obj
 0002:00016e70       ??_C@_1BO@NBCNBOEN@?$AA?5?$AAD?$AAS?$AAP?$AA?5?$AAP?$AAr?$AAo?$AAc?$AAe?$AAs?$AAs?$AAo?$AAr@ 00000000000d6e70     UefiShellDebug1CommandsLib:QueryTable.obj
 0002:00016e90       ??_C@_1CE@BLIEPNBB@?$AA?5?$AAV?$AAi?$AAd?$AAe?$AAo?$AA?5?$AAP?$AAr?$AAo?$AAc?$AAe?$AAs?$AAs?$AAo@ 00000000000d6e90     UefiShellDebug1CommandsLib:QueryTable.obj
 0002:00016eb8       ??_C@_1M@KDHOHJAD@?$AAO?$AAt?$AAh?$AAe?$AAr@ 00000000000d6eb8     UefiShellDebug1CommandsLib:QueryTable.obj
 0002:00016ec8       ??_C@_1BO@HHHPFHJM@?$AAD?$AAa?$AAu?$AAg?$AAh?$AAt?$AAe?$AAr?$AA?5?$AAB?$AAo?$AAa?$AAr?$AAd@ 00000000000d6ec8     UefiShellDebug1CommandsLib:QueryTable.obj
 0002:00016ee8       ??_C@_1BG@MHGPIFOA@?$AAZ?$AAI?$AAF?$AA?5?$AAS?$AAo?$AAc?$AAk?$AAe?$AAt@ 00000000000d6ee8     UefiShellDebug1CommandsLib:QueryTable.obj
 0002:00016f00       ??_C@_1CO@JEMIPAC@?$AAR?$AAe?$AAp?$AAl?$AAa?$AAc?$AAe?$AAa?$AAb?$AAl?$AAe?$AA?5?$AAP?$AAi?$AAg@ 00000000000d6f00     UefiShellDebug1CommandsLib:QueryTable.obj
 0002:00016f30       ??_C@_1BG@BMGJJFCB@?$AAL?$AAI?$AAF?$AA?5?$AAS?$AAo?$AAc?$AAk?$AAe?$AAt@ 00000000000d6f30     UefiShellDebug1CommandsLib:QueryTable.obj
 0002:00016f48       ??_C@_1O@BPLLBDJC@?$AAS?$AAl?$AAo?$AAt?$AA?5?$AA1@ 00000000000d6f48     UefiShellDebug1CommandsLib:QueryTable.obj
 0002:00016f58       ??_C@_1O@NAOLMHM@?$AAS?$AAl?$AAo?$AAt?$AA?5?$AA2@ 00000000000d6f58     UefiShellDebug1CommandsLib:QueryTable.obj
 0002:00016f68       ??_C@_1BO@PAECHLFB@?$AA3?$AA7?$AA0?$AA?9?$AAp?$AAi?$AAn?$AA?5?$AAs?$AAo?$AAc?$AAk?$AAe?$AAt@ 00000000000d6f68     UefiShellDebug1CommandsLib:QueryTable.obj
 0002:00016f88       ??_C@_1O@HEIELDAO@?$AAS?$AAl?$AAo?$AAt?$AA?5?$AAA@ 00000000000d6f88     UefiShellDebug1CommandsLib:QueryTable.obj
 0002:00016f98       ??_C@_1O@DOFCAMLG@?$AAS?$AAl?$AAo?$AAt?$AA?5?$AAM@ 00000000000d6f98     UefiShellDebug1CommandsLib:QueryTable.obj
 0002:00016fa8       ??_C@_1BG@PKJPENJM@?$AAS?$AAo?$AAc?$AAk?$AAe?$AAt?$AA?5?$AA4?$AA2?$AA3@ 00000000000d6fa8     UefiShellDebug1CommandsLib:QueryTable.obj
 0002:00016fc0       ??_C@_1BC@MDELCDNB@?$AAS?$AAo?$AAc?$AAk?$AAe?$AAt?$AA?5?$AAA@ 00000000000d6fc0     UefiShellDebug1CommandsLib:QueryTable.obj
 0002:00016fd8       ??_C@_1BG@HNFDFLCO@?$AAS?$AAo?$AAc?$AAk?$AAe?$AAt?$AA?5?$AA4?$AA7?$AA8@ 00000000000d6fd8     UefiShellDebug1CommandsLib:QueryTable.obj
 0002:00016ff0       ??_C@_1BG@PEMCECHO@?$AAS?$AAo?$AAc?$AAk?$AAe?$AAt?$AA?5?$AA7?$AA5?$AA4@ 00000000000d6ff0     UefiShellDebug1CommandsLib:QueryTable.obj
 0002:00017008       ??_C@_1BG@KFHGBELO@?$AAS?$AAo?$AAc?$AAk?$AAe?$AAt?$AA?5?$AA9?$AA4?$AA0@ 00000000000d7008     UefiShellDebug1CommandsLib:QueryTable.obj
 0002:00017020       ??_C@_1BG@MFHLGLIM@?$AAS?$AAo?$AAc?$AAk?$AAe?$AAt?$AA?5?$AA9?$AA3?$AA9@ 00000000000d7020     UefiShellDebug1CommandsLib:QueryTable.obj
 0002:00017038       ??_C@_1BO@KFHDDAOH@?$AAS?$AAo?$AAc?$AAk?$AAe?$AAt?$AA?5?$AAm?$AAP?$AAG?$AAA?$AA6?$AA0?$AA4@ 00000000000d7038     UefiShellDebug1CommandsLib:QueryTable.obj
 0002:00017058       ??_C@_1BM@NODELBLD@?$AAS?$AAo?$AAc?$AAk?$AAe?$AAt?$AA?5?$AAL?$AAG?$AAA?$AA7?$AA7?$AA1@ 00000000000d7058     UefiShellDebug1CommandsLib:QueryTable.obj
 0002:00017078       ??_C@_1BM@FBFGCGOE@?$AAS?$AAo?$AAc?$AAk?$AAe?$AAt?$AA?5?$AAL?$AAG?$AAA?$AA7?$AA7?$AA5@ 00000000000d7078     UefiShellDebug1CommandsLib:QueryTable.obj
 0002:00017098       ??_C@_1BE@DMMNHKDD@?$AAS?$AAo?$AAc?$AAk?$AAe?$AAt?$AA?5?$AAS?$AA1@ 00000000000d7098     UefiShellDebug1CommandsLib:QueryTable.obj
 0002:000170b0       ??_C@_1BG@FMOHAKBJ@?$AAS?$AAo?$AAc?$AAk?$AAe?$AAt?$AA?5?$AAA?$AAM?$AA2@ 00000000000d70b0     UefiShellDebug1CommandsLib:QueryTable.obj
 0002:000170c8       ??_C@_1BC@FOJMBLGI@?$AAS?$AAo?$AAc?$AAk?$AAe?$AAt?$AA?5?$AAF@ 00000000000d70c8     UefiShellDebug1CommandsLib:QueryTable.obj
 0002:000170e0       ??_C@_1BO@DCJPEJCN@?$AAS?$AAo?$AAc?$AAk?$AAe?$AAt?$AA?5?$AAL?$AAG?$AAA?$AA1?$AA3?$AA6?$AA6@ 00000000000d70e0     UefiShellDebug1CommandsLib:QueryTable.obj
 0002:00017100       ??_C@_1BG@IOMLDAPD@?$AAS?$AAo?$AAc?$AAk?$AAe?$AAt?$AA?5?$AAG?$AA3?$AA4@ 00000000000d7100     UefiShellDebug1CommandsLib:QueryTable.obj
 0002:00017118       ??_C@_1BG@OEFLGNHM@?$AAS?$AAo?$AAc?$AAk?$AAe?$AAt?$AA?5?$AAA?$AAM?$AA3@ 00000000000d7118     UefiShellDebug1CommandsLib:QueryTable.obj
 0002:00017130       ??_C@_1BG@CPOKGBNF@?$AAS?$AAo?$AAc?$AAk?$AAe?$AAt?$AA?5?$AAC?$AA3?$AA2@ 00000000000d7130     UefiShellDebug1CommandsLib:QueryTable.obj
 0002:00017148       ??_C@_1BO@PGCODMPO@?$AAS?$AAo?$AAc?$AAk?$AAe?$AAt?$AA?5?$AAL?$AAG?$AAA?$AA1?$AA1?$AA5?$AA6@ 00000000000d7148     UefiShellDebug1CommandsLib:QueryTable.obj
 0002:00017168       ??_C@_1BO@EMEMCHMP@?$AAS?$AAo?$AAc?$AAk?$AAe?$AAt?$AA?5?$AAL?$AAG?$AAA?$AA1?$AA5?$AA6?$AA7@ 00000000000d7168     UefiShellDebug1CommandsLib:QueryTable.obj
 0002:00017188       ??_C@_1BO@PBMFABIM@?$AAS?$AAo?$AAc?$AAk?$AAe?$AAt?$AA?5?$AAP?$AAG?$AAA?$AA9?$AA8?$AA8?$AAA@ 00000000000d7188     UefiShellDebug1CommandsLib:QueryTable.obj
 0002:000171a8       ??_C@_1BO@EGCKJFL@?$AAS?$AAo?$AAc?$AAk?$AAe?$AAt?$AA?5?$AAB?$AAG?$AAA?$AA1?$AA2?$AA8?$AA8@ 00000000000d71a8     UefiShellDebug1CommandsLib:QueryTable.obj
 0002:000171c8       ??_C@_1CA@ILALBIHB@?$AAS?$AAo?$AAc?$AAk?$AAe?$AAt?$AA?5?$AAr?$AAP?$AAG?$AAA?$AA9?$AA8?$AA8?$AAB@ 00000000000d71c8     UefiShellDebug1CommandsLib:QueryTable.obj
 0002:000171e8       ??_C@_1BO@DANNAKEB@?$AAS?$AAo?$AAc?$AAk?$AAe?$AAt?$AA?5?$AAB?$AAG?$AAA?$AA1?$AA0?$AA2?$AA3@ 00000000000d71e8     UefiShellDebug1CommandsLib:QueryTable.obj
 0002:00017208       ??_C@_1BO@OPCPDFIF@?$AAS?$AAo?$AAc?$AAk?$AAe?$AAt?$AA?5?$AAB?$AAG?$AAA?$AA1?$AA2?$AA2?$AA4@ 00000000000d7208     UefiShellDebug1CommandsLib:QueryTable.obj
 0002:00017228       ??_C@_1BO@OEJLJDBA@?$AAS?$AAo?$AAc?$AAk?$AAe?$AAt?$AA?5?$AAL?$AAG?$AAA?$AA1?$AA1?$AA5?$AA5@ 00000000000d7228     UefiShellDebug1CommandsLib:QueryTable.obj
 0002:00017248       ??_C@_1BO@LEALDLID@?$AAS?$AAo?$AAc?$AAk?$AAe?$AAt?$AA?5?$AAL?$AAG?$AAA?$AA1?$AA3?$AA5?$AA6@ 00000000000d7248     UefiShellDebug1CommandsLib:QueryTable.obj
 0002:00017268       ??_C@_1BO@NHPFPNMM@?$AAS?$AAo?$AAc?$AAk?$AAe?$AAt?$AA?5?$AAL?$AAG?$AAA?$AA2?$AA0?$AA1?$AA1@ 00000000000d7268     UefiShellDebug1CommandsLib:QueryTable.obj
 0002:00017288       ??_C@_1BG@HNELMPAF@?$AAS?$AAo?$AAc?$AAk?$AAe?$AAt?$AA?5?$AAF?$AAS?$AA1@ 00000000000d7288     UefiShellDebug1CommandsLib:QueryTable.obj
 0002:000172a0       ??_C@_1BG@GPPOGAOL@?$AAS?$AAo?$AAc?$AAk?$AAe?$AAt?$AA?5?$AAF?$AAS?$AA2@ 00000000000d72a0     UefiShellDebug1CommandsLib:QueryTable.obj
 0002:000172b8       ??_C@_1BG@EEJHKMOO@?$AAS?$AAo?$AAc?$AAk?$AAe?$AAt?$AA?5?$AAF?$AAM?$AA1@ 00000000000d72b8     UefiShellDebug1CommandsLib:QueryTable.obj
 0002:000172d0       ??_C@_1BG@FGCCADAA@?$AAS?$AAo?$AAc?$AAk?$AAe?$AAt?$AA?5?$AAF?$AAM?$AA2@ 00000000000d72d0     UefiShellDebug1CommandsLib:QueryTable.obj
 0002:000172e8       ??_C@_1CC@KJFHKCBF@?$AAS?$AAo?$AAc?$AAk?$AAe?$AAt?$AA?5?$AAL?$AAG?$AAA?$AA2?$AA0?$AA1?$AA1?$AA?9@ 00000000000d72e8     UefiShellDebug1CommandsLib:QueryTable.obj
 0002:00017310       ??_C@_1CC@KBIGPMFN@?$AAS?$AAo?$AAc?$AAk?$AAe?$AAt?$AA?5?$AAL?$AAG?$AAA?$AA1?$AA3?$AA5?$AA6?$AA?9@ 00000000000d7310     UefiShellDebug1CommandsLib:QueryTable.obj
 0002:00017338       ??_C@_1BO@NDEFGDCC@?$AAS?$AAo?$AAc?$AAk?$AAe?$AAt?$AA?5?$AAL?$AAG?$AAA?$AA1?$AA1?$AA5?$AA0@ 00000000000d7338     UefiShellDebug1CommandsLib:QueryTable.obj
 0002:00017358       ??_C@_1BO@LAOHMPMI@?$AAS?$AAo?$AAc?$AAk?$AAe?$AAt?$AA?5?$AAB?$AAG?$AAA?$AA1?$AA1?$AA6?$AA8@ 00000000000d7358     UefiShellDebug1CommandsLib:QueryTable.obj
 0002:00017378       ??_C@_1BO@CEHDOGCA@?$AAS?$AAo?$AAc?$AAk?$AAe?$AAt?$AA?5?$AAB?$AAG?$AAA?$AA1?$AA2?$AA3?$AA4@ 00000000000d7378     UefiShellDebug1CommandsLib:QueryTable.obj
 0002:00017398       ??_C@_1BO@LIBEHHAN@?$AAS?$AAo?$AAc?$AAk?$AAe?$AAt?$AA?5?$AAB?$AAG?$AAA?$AA1?$AA3?$AA6?$AA4@ 00000000000d7398     UefiShellDebug1CommandsLib:QueryTable.obj
 0002:000173b8       ??_C@_1BG@HJIMFFMF@?$AAS?$AAo?$AAc?$AAk?$AAe?$AAt?$AA?5?$AAA?$AAM?$AA4@ 00000000000d73b8     UefiShellDebug1CommandsLib:QueryTable.obj
 0002:000173d0       ??_C@_1BO@GLPJAEEH@?$AAS?$AAo?$AAc?$AAk?$AAe?$AAt?$AA?5?$AAL?$AAG?$AAA?$AA1?$AA1?$AA5?$AA1@ 00000000000d73d0     UefiShellDebug1CommandsLib:QueryTable.obj
 0002:000173f0       ??_C@_1BO@JEIJMNCI@?$AAS?$AAo?$AAc?$AAk?$AAe?$AAt?$AA?5?$AAB?$AAG?$AAA?$AA1?$AA3?$AA5?$AA6@ 00000000000d73f0     UefiShellDebug1CommandsLib:QueryTable.obj
 0002:00017410       ??_C@_1BO@HAHLEIEI@?$AAS?$AAo?$AAc?$AAk?$AAe?$AAt?$AA?5?$AAB?$AAG?$AAA?$AA1?$AA4?$AA4?$AA0@ 00000000000d7410     UefiShellDebug1CommandsLib:QueryTable.obj
 0002:00017430       ??_C@_1BO@NLMCCJFH@?$AAS?$AAo?$AAc?$AAk?$AAe?$AAt?$AA?5?$AAB?$AAG?$AAA?$AA1?$AA5?$AA1?$AA5@ 00000000000d7430     UefiShellDebug1CommandsLib:QueryTable.obj
 0002:00017450       ??_C@_1CC@FBCKOMML@?$AAS?$AAo?$AAc?$AAk?$AAe?$AAt?$AA?5?$AAL?$AAG?$AAA?$AA3?$AA6?$AA4?$AA7?$AA?9@ 00000000000d7450     UefiShellDebug1CommandsLib:QueryTable.obj
 0002:00017478       ??_C@_1BG@GFINEKGP@?$AAS?$AAo?$AAc?$AAk?$AAe?$AAt?$AA?5?$AAS?$AAP?$AA3@ 00000000000d7478     UefiShellDebug1CommandsLib:QueryTable.obj
 0002:00017490       ??_C@_1BK@LBHFAAHC@?$AAS?$AAo?$AAc?$AAk?$AAe?$AAt?$AA?5?$AAS?$AAP?$AA3?$AAr?$AA2@ 00000000000d7490     UefiShellDebug1CommandsLib:QueryTable.obj
 0002:000174b0       ??_C@_1BO@FHCHPFMN@?$AAS?$AAo?$AAc?$AAk?$AAe?$AAt?$AA?5?$AAL?$AAG?$AAA?$AA2?$AA0?$AA6?$AA6@ 00000000000d74b0     UefiShellDebug1CommandsLib:QueryTable.obj
 0002:000174d0       ??_C@_1BO@GMCJJKAE@?$AAS?$AAo?$AAc?$AAk?$AAe?$AAt?$AA?5?$AAB?$AAG?$AAA?$AA1?$AA3?$AA9?$AA2@ 00000000000d74d0     UefiShellDebug1CommandsLib:QueryTable.obj
 0002:000174f0       ??_C@_1BO@OMBMNJGF@?$AAS?$AAo?$AAc?$AAk?$AAe?$AAt?$AA?5?$AAB?$AAG?$AAA?$AA1?$AA5?$AA1?$AA0@ 00000000000d74f0     UefiShellDebug1CommandsLib:QueryTable.obj
 0002:00017510       ??_C@_1BO@KPDMIDCE@?$AAS?$AAo?$AAc?$AAk?$AAe?$AAt?$AA?5?$AAB?$AAG?$AAA?$AA1?$AA5?$AA2?$AA8@ 00000000000d7510     UefiShellDebug1CommandsLib:QueryTable.obj
 0002:00017530       ??_C@_1BO@PEPKPEDC@?$AAS?$AAo?$AAc?$AAk?$AAe?$AAt?$AA?5?$AAL?$AAG?$AAA?$AA4?$AA1?$AA8?$AA9@ 00000000000d7530     UefiShellDebug1CommandsLib:QueryTable.obj
 0002:00017550       ??_C@_1BO@NAHPFHC@?$AAS?$AAo?$AAc?$AAk?$AAe?$AAt?$AA?5?$AAL?$AAG?$AAA?$AA1?$AA2?$AA0?$AA0@ 00000000000d7550     UefiShellDebug1CommandsLib:QueryTable.obj
 0002:00017570       ??_C@_1BO@OPLGDIMN@?$AAS?$AAo?$AAc?$AAk?$AAe?$AAt?$AA?5?$AAL?$AAG?$AAA?$AA4?$AA6?$AA7?$AA7@ 00000000000d7570     UefiShellDebug1CommandsLib:QueryTable.obj
 0002:00017590       ??_C@_1BO@EFOHPLBG@?$AAS?$AAo?$AAc?$AAk?$AAe?$AAt?$AA?5?$AAL?$AAG?$AAA?$AA1?$AA7?$AA0?$AA0@ 00000000000d7590     UefiShellDebug1CommandsLib:QueryTable.obj
 0002:000175b0       ??_C@_1BO@HBJGNIPM@?$AAS?$AAo?$AAc?$AAk?$AAe?$AAt?$AA?5?$AAB?$AAG?$AAA?$AA1?$AA7?$AA4?$AA4@ 00000000000d75b0     UefiShellDebug1CommandsLib:QueryTable.obj
 0002:000175d0       ??_C@_1BO@DBIKOILF@?$AAS?$AAo?$AAc?$AAk?$AAe?$AAt?$AA?5?$AAB?$AAG?$AAA?$AA1?$AA7?$AA8?$AA1@ 00000000000d75d0     UefiShellDebug1CommandsLib:QueryTable.obj
 0002:000175f0       ??_C@_1BO@FOGFLHBJ@?$AAS?$AAo?$AAc?$AAk?$AAe?$AAt?$AA?5?$AAB?$AAG?$AAA?$AA1?$AA2?$AA1?$AA1@ 00000000000d75f0     UefiShellDebug1CommandsLib:QueryTable.obj
 0002:00017610       ??_C@_1BO@OHBMNINN@?$AAS?$AAo?$AAc?$AAk?$AAe?$AAt?$AA?5?$AAB?$AAG?$AAA?$AA2?$AA4?$AA2?$AA2@ 00000000000d7610     UefiShellDebug1CommandsLib:QueryTable.obj
 0002:00017630       ??_C@_1BO@HOOHEBLC@?$AAS?$AAo?$AAc?$AAk?$AAe?$AAt?$AA?5?$AAL?$AAG?$AAA?$AA1?$AA2?$AA1?$AA1@ 00000000000d7630     UefiShellDebug1CommandsLib:QueryTable.obj
 0002:00017650       ??_C@_1BO@MHJOCOHG@?$AAS?$AAo?$AAc?$AAk?$AAe?$AAt?$AA?5?$AAL?$AAG?$AAA?$AA2?$AA4?$AA2?$AA2@ 00000000000d7650     UefiShellDebug1CommandsLib:QueryTable.obj
 0002:00017670       ??_C@_1BO@EDLMMEDK@?$AAS?$AAo?$AAc?$AAk?$AAe?$AAt?$AA?5?$AAL?$AAG?$AAA?$AA5?$AA7?$AA7?$AA3@ 00000000000d7670     UefiShellDebug1CommandsLib:QueryTable.obj
 0002:00017690       ??_C@_1BO@GDDODCJB@?$AAS?$AAo?$AAc?$AAk?$AAe?$AAt?$AA?5?$AAB?$AAG?$AAA?$AA5?$AA7?$AA7?$AA3@ 00000000000d7690     UefiShellDebug1CommandsLib:QueryTable.obj
 0002:000176b0       ??_C@_1CA@CEJKMMJI@?$AA?5?$AA6?$AA4?$AA?9?$AAb?$AAi?$AAt?$AA?5?$AAC?$AAa?$AAp?$AAa?$AAb?$AAl?$AAe@ 00000000000d76b0     UefiShellDebug1CommandsLib:QueryTable.obj
 0002:000176d0       ??_C@_1BI@BMAAPDHB@?$AA?5?$AAM?$AAu?$AAl?$AAt?$AAi?$AA?9?$AAC?$AAo?$AAr?$AAe@ 00000000000d76d0     UefiShellDebug1CommandsLib:QueryTable.obj
 0002:000176e8       ??_C@_1CC@FLKFLDPO@?$AA?5?$AAH?$AAa?$AAr?$AAd?$AAw?$AAa?$AAr?$AAe?$AA?5?$AAT?$AAh?$AAr?$AAe?$AAa@ 00000000000d76e8     UefiShellDebug1CommandsLib:QueryTable.obj
 0002:00017710       ??_C@_1CI@FMHJJANO@?$AA?5?$AAE?$AAx?$AAe?$AAc?$AAu?$AAt?$AAe?$AA?5?$AAP?$AAr?$AAo?$AAt?$AAe?$AAc@ 00000000000d7710     UefiShellDebug1CommandsLib:QueryTable.obj
 0002:00017738       ??_C@_1DC@PLHLGAGC@?$AA?5?$AAE?$AAn?$AAh?$AAa?$AAn?$AAc?$AAe?$AAd?$AA?5?$AAV?$AAi?$AAr?$AAt?$AAu@ 00000000000d7738     UefiShellDebug1CommandsLib:QueryTable.obj
 0002:00017770       ??_C@_1DG@HGMMFCMG@?$AA?5?$AAP?$AAo?$AAw?$AAe?$AAr?$AA?1?$AAP?$AAe?$AAr?$AAf?$AAo?$AAr?$AAm?$AAa@ 00000000000d7770     UefiShellDebug1CommandsLib:QueryTable.obj
 0002:000177a8       ??_C@_1CC@CBPFDNKG@?$AA?5?$AA1?$AA2?$AA8?$AA?9?$AAb?$AAi?$AAt?$AA?5?$AAC?$AAa?$AAp?$AAa?$AAb?$AAl@ 00000000000d77a8     UefiShellDebug1CommandsLib:QueryTable.obj
 0002:000177d0       ??_C@_1BM@HCOCCICO@?$AA?5?$AAA?$AAR?$AAM?$AA6?$AA4?$AA?5?$AAS?$AAo?$AAC?$AA?5?$AAI?$AAD@ 00000000000d77d0     UefiShellDebug1CommandsLib:QueryTable.obj
 0002:000177f0       ??_C@_1BK@KFODEGFE@?$AA8?$AA?9?$AAb?$AAi?$AAt?$AA?5?$AAP?$AAa?$AAr?$AAi?$AAt?$AAy@ 00000000000d77f0     UefiShellDebug1CommandsLib:QueryTable.obj
 0002:00017810       ??_C@_1BG@EELEODOK@?$AA3?$AA2?$AA?9?$AAb?$AAi?$AAt?$AA?5?$AAE?$AAC?$AAC@ 00000000000d7810     UefiShellDebug1CommandsLib:QueryTable.obj
 0002:00017828       ??_C@_1BG@ILBOIJPP@?$AA6?$AA4?$AA?9?$AAb?$AAi?$AAt?$AA?5?$AAE?$AAC?$AAC@ 00000000000d7828     UefiShellDebug1CommandsLib:QueryTable.obj
 0002:00017840       ??_C@_1BI@PPJLILE@?$AA1?$AA2?$AA8?$AA?9?$AAb?$AAi?$AAt?$AA?5?$AAE?$AAC?$AAC@ 00000000000d7840     UefiShellDebug1CommandsLib:QueryTable.obj
 0002:00017858       ??_C@_17PFCILLLH@?$AAC?$AAR?$AAC@ 00000000000d7858     UefiShellDebug1CommandsLib:QueryTable.obj
 0002:00017860       ??_C@_1DI@CHFCIAN@?$AAS?$AAi?$AAn?$AAg?$AAl?$AAe?$AA?5?$AAB?$AAi?$AAt?$AA?5?$AAE?$AAr?$AAr?$AAo@ 00000000000d7860     UefiShellDebug1CommandsLib:QueryTable.obj
 0002:00017898       ??_C@_1DI@MEKPNODD@?$AAD?$AAo?$AAu?$AAb?$AAl?$AAe?$AA?5?$AAB?$AAi?$AAt?$AA?5?$AAE?$AAr?$AAr?$AAo@ 00000000000d7898     UefiShellDebug1CommandsLib:QueryTable.obj
 0002:000178d0       ??_C@_1CA@JKCADFFG@?$AAE?$AAr?$AAr?$AAo?$AAr?$AA?5?$AAS?$AAc?$AAr?$AAu?$AAb?$AAb?$AAi?$AAn?$AAg@ 00000000000d78d0     UefiShellDebug1CommandsLib:QueryTable.obj
 0002:000178f0       ??_C@_1CG@JKAPKCKE@?$AAO?$AAn?$AAe?$AA?5?$AAW?$AAa?$AAy?$AA?5?$AAI?$AAn?$AAt?$AAe?$AAr?$AAl?$AAe@ 00000000000d78f0     UefiShellDebug1CommandsLib:QueryTable.obj
 0002:00017918       ??_C@_1CG@GHMCIBEC@?$AAT?$AAw?$AAo?$AA?5?$AAW?$AAa?$AAy?$AA?5?$AAI?$AAn?$AAt?$AAe?$AAr?$AAl?$AAe@ 00000000000d7918     UefiShellDebug1CommandsLib:QueryTable.obj
 0002:00017940       ??_C@_1CI@EEDBIAPK@?$AAF?$AAo?$AAu?$AAr?$AA?5?$AAW?$AAa?$AAy?$AA?5?$AAI?$AAn?$AAt?$AAe?$AAr?$AAl@ 00000000000d7940     UefiShellDebug1CommandsLib:QueryTable.obj
 0002:00017968       ??_C@_1CK@KPHLJNNK@?$AAE?$AAi?$AAg?$AAh?$AAt?$AA?5?$AAW?$AAa?$AAy?$AA?5?$AAI?$AAn?$AAt?$AAe?$AAr@ 00000000000d7968     UefiShellDebug1CommandsLib:QueryTable.obj
 0002:00017998       ??_C@_1CO@BFIMFDHM@?$AAS?$AAi?$AAx?$AAt?$AAe?$AAe?$AAn?$AA?5?$AAW?$AAa?$AAy?$AA?5?$AAI?$AAn?$AAt@ 00000000000d7998     UefiShellDebug1CommandsLib:QueryTable.obj
 0002:000179c8       ??_C@_1M@NIINEJAM@?$AA?5?$AA7?$AA0?$AAn?$AAs@ 00000000000d79c8     UefiShellDebug1CommandsLib:QueryTable.obj
 0002:000179d8       ??_C@_1M@DHEPCCDC@?$AA?5?$AA6?$AA0?$AAn?$AAs@ 00000000000d79d8     UefiShellDebug1CommandsLib:QueryTable.obj
 0002:000179e8       ??_C@_1M@NMHIJJDB@?$AA?5?$AA5?$AA0?$AAn?$AAs@ 00000000000d79e8     UefiShellDebug1CommandsLib:QueryTable.obj
 0002:000179f8       ??_C@_17NJHKIEKA@?$AA?5?$AA5?$AAV@ 00000000000d79f8     UefiShellDebug1CommandsLib:QueryTable.obj
 0002:00017a00       ??_C@_1M@JPKLIOEK@?$AA?5?$AA3?$AA?4?$AA3?$AAV@ 00000000000d7a00     UefiShellDebug1CommandsLib:QueryTable.obj
 0002:00017a10       ??_C@_1M@NBPCMGBC@?$AA?5?$AA2?$AA?4?$AA9?$AAV@ 00000000000d7a10     UefiShellDebug1CommandsLib:QueryTable.obj
 0002:00017a20       ??_C@_1BE@HJHLCDAF@?$AA?5?$AAS?$AAt?$AAa?$AAn?$AAd?$AAa?$AAr?$AAd@ 00000000000d7a20     UefiShellDebug1CommandsLib:QueryTable.obj
 0002:00017a38       ??_C@_1CA@LGABIKMO@?$AA?5?$AAF?$AAa?$AAs?$AAt?$AA?5?$AAP?$AAa?$AAg?$AAe?$AA?5?$AAM?$AAo?$AAd?$AAe@ 00000000000d7a38     UefiShellDebug1CommandsLib:QueryTable.obj
 0002:00017a58       ??_C@_19GFOLFIMB@?$AA?5?$AAE?$AAD?$AAO@ 00000000000d7a58     UefiShellDebug1CommandsLib:QueryTable.obj
 0002:00017a68       ??_C@_1BA@CLBLGKNJ@?$AA?5?$AAP?$AAa?$AAr?$AAi?$AAt?$AAy@ 00000000000d7a68     UefiShellDebug1CommandsLib:QueryTable.obj
 0002:00017a78       ??_C@_1M@GKGEDMHO@?$AA?5?$AAE?$AAC?$AAC?$AA?5@ 00000000000d7a78     UefiShellDebug1CommandsLib:QueryTable.obj
 0002:00017a88       ??_C@_1M@CCFCJPLH@?$AA?5?$AAS?$AAI?$AAM?$AAM@ 00000000000d7a88     UefiShellDebug1CommandsLib:QueryTable.obj
 0002:00017a98       ??_C@_1M@OHCAAFCG@?$AA?5?$AAD?$AAI?$AAM?$AAM@ 00000000000d7a98     UefiShellDebug1CommandsLib:QueryTable.obj
 0002:00017aa8       ??_C@_1BG@JNPHIKMO@?$AA?5?$AAB?$AAu?$AAr?$AAs?$AAt?$AA?5?$AAE?$AAD?$AAO@ 00000000000d7aa8     UefiShellDebug1CommandsLib:QueryTable.obj
 0002:00017ac0       ??_C@_1O@IFONHMFE@?$AA?5?$AAS?$AAD?$AAR?$AAA?$AAM@ 00000000000d7ac0     UefiShellDebug1CommandsLib:QueryTable.obj
 0002:00017ad0       ??_C@_1DO@GGKDHCMG@?$AA?5?$AAU?$AAn?$AAc?$AAo?$AAr?$AAr?$AAe?$AAc?$AAt?$AAa?$AAb?$AAl?$AAe?$AA?5@ 00000000000d7ad0     UefiShellDebug1CommandsLib:QueryTable.obj
 0002:00017b10       ??_C@_1DK@GOFLEHAJ@?$AA?5?$AAC?$AAo?$AAr?$AAr?$AAe?$AAc?$AAt?$AAa?$AAb?$AAl?$AAe?$AA?5?$AAe?$AAr@ 00000000000d7b10     UefiShellDebug1CommandsLib:QueryTable.obj
 0002:00017b50       ??_C@_1FE@GEHKOMJG@?$AA?5?$AAE?$AAr?$AAr?$AAo?$AAr?$AA?5?$AAS?$AAt?$AAa?$AAt?$AAu?$AAs?$AA?5?$AAo@ 00000000000d7b50     UefiShellDebug1CommandsLib:QueryTable.obj
 0002:00017ba8       ??_C@_1BG@MKAGJBMA@?$AA?5?$AAN?$AAo?$AAn?$AA?9?$AAB?$AAu?$AAr?$AAs?$AAt@ 00000000000d7ba8     UefiShellDebug1CommandsLib:QueryTable.obj
 0002:00017bc0       ??_C@_1O@KIIGEHBK@?$AA?5?$AAB?$AAu?$AAr?$AAs?$AAt@ 00000000000d7bc0     UefiShellDebug1CommandsLib:QueryTable.obj
 0002:00017bd0       ??_C@_1CA@HJHDGNAE@?$AA?5?$AAP?$AAi?$AAp?$AAe?$AAl?$AAi?$AAn?$AAe?$AA?5?$AAB?$AAu?$AAr?$AAs?$AAt@ 00000000000d7bd0     UefiShellDebug1CommandsLib:QueryTable.obj
 0002:00017bf0       ??_C@_1BK@FPIGEJJM@?$AA?5?$AAS?$AAy?$AAn?$AAc?$AAh?$AAr?$AAo?$AAn?$AAo?$AAu?$AAs@ 00000000000d7bf0     UefiShellDebug1CommandsLib:QueryTable.obj
 0002:00017c10       ??_C@_1BM@BEGBKMJI@?$AA?5?$AAA?$AAs?$AAy?$AAn?$AAc?$AAh?$AAr?$AAo?$AAn?$AAo?$AAu?$AAs@ 00000000000d7c10     UefiShellDebug1CommandsLib:QueryTable.obj
 0002:00017c30       ??_C@_1O@BCECDDG@?$AAP?$AAa?$AAr?$AAi?$AAt?$AAy@ 00000000000d7c30     UefiShellDebug1CommandsLib:QueryTable.obj
 0002:00017c40       ??_C@_1BO@NEHMLKLI@?$AAS?$AAi?$AAn?$AAg?$AAl?$AAe?$AA?9?$AAb?$AAi?$AAt?$AA?5?$AAE?$AAC?$AAC@ 00000000000d7c40     UefiShellDebug1CommandsLib:QueryTable.obj
 0002:00017c60       ??_C@_1BM@MFBBEGD@?$AAM?$AAu?$AAl?$AAt?$AAi?$AA?9?$AAb?$AAi?$AAt?$AA?5?$AAE?$AAC?$AAC@ 00000000000d7c60     UefiShellDebug1CommandsLib:QueryTable.obj
 0002:00017c80       ??_C@_1BI@HJJJFIKM@?$AAI?$AAn?$AAs?$AAt?$AAr?$AAu?$AAc?$AAt?$AAi?$AAo?$AAn@ 00000000000d7c80     UefiShellDebug1CommandsLib:QueryTable.obj
 0002:00017c98       ??_C@_1BA@KMNJBMPC@?$AAU?$AAn?$AAi?$AAf?$AAi?$AAe?$AAd@ 00000000000d7c98     UefiShellDebug1CommandsLib:QueryTable.obj
 0002:00017ca8       ??_C@_1BM@DMJMFODO@?$AAD?$AAi?$AAr?$AAe?$AAc?$AAt?$AA?5?$AAM?$AAa?$AAp?$AAp?$AAe?$AAd@ 00000000000d7ca8     UefiShellDebug1CommandsLib:QueryTable.obj
 0002:00017cc8       ??_C@_1CM@NPKKKHFJ@?$AA2?$AA?9?$AAw?$AAa?$AAy?$AA?5?$AAS?$AAe?$AAt?$AA?9?$AAA?$AAs?$AAs?$AAo?$AAc@ 00000000000d7cc8     UefiShellDebug1CommandsLib:QueryTable.obj
 0002:00017cf8       ??_C@_1CM@CDFKDGBF@?$AA4?$AA?9?$AAw?$AAa?$AAy?$AA?5?$AAS?$AAe?$AAt?$AA?9?$AAA?$AAs?$AAs?$AAo?$AAc@ 00000000000d7cf8     UefiShellDebug1CommandsLib:QueryTable.obj
 0002:00017d28       ??_C@_1CE@GLBKAPAK@?$AAF?$AAu?$AAl?$AAl?$AAy?$AA?5?$AAA?$AAs?$AAs?$AAo?$AAc?$AAi?$AAa?$AAt?$AAi@ 00000000000d7d28     UefiShellDebug1CommandsLib:QueryTable.obj
 0002:00017d50       ??_C@_1CM@BMKBCMM@?$AA8?$AA?9?$AAw?$AAa?$AAy?$AA?5?$AAS?$AAe?$AAt?$AA?9?$AAA?$AAs?$AAs?$AAo?$AAc@ 00000000000d7d50     UefiShellDebug1CommandsLib:QueryTable.obj
 0002:00017d80       ??_C@_1CO@OAAPFFKI@?$AA1?$AA6?$AA?9?$AAw?$AAa?$AAy?$AA?5?$AAS?$AAe?$AAt?$AA?9?$AAA?$AAs?$AAs?$AAo@ 00000000000d7d80     UefiShellDebug1CommandsLib:QueryTable.obj
 0002:00017db0       ??_C@_1CO@EIKPLECA@?$AA1?$AA2?$AA?9?$AAw?$AAa?$AAy?$AA?5?$AAS?$AAe?$AAt?$AA?9?$AAA?$AAs?$AAs?$AAo@ 00000000000d7db0     UefiShellDebug1CommandsLib:QueryTable.obj
 0002:00017de0       ??_C@_1CO@DEAFIJNJ@?$AA2?$AA4?$AA?9?$AAw?$AAa?$AAy?$AA?5?$AAS?$AAe?$AAt?$AA?9?$AAA?$AAs?$AAs?$AAo@ 00000000000d7de0     UefiShellDebug1CommandsLib:QueryTable.obj
 0002:00017e10       ??_C@_1CO@LHDMIDAG@?$AA3?$AA2?$AA?9?$AAw?$AAa?$AAy?$AA?5?$AAS?$AAe?$AAt?$AA?9?$AAA?$AAs?$AAs?$AAo@ 00000000000d7e10     UefiShellDebug1CommandsLib:QueryTable.obj
 0002:00017e40       ??_C@_1CO@MNFBPCCL@?$AA4?$AA8?$AA?9?$AAw?$AAa?$AAy?$AA?5?$AAS?$AAe?$AAt?$AA?9?$AAA?$AAs?$AAs?$AAo@ 00000000000d7e40     UefiShellDebug1CommandsLib:QueryTable.obj
 0002:00017e70       ??_C@_1CO@BAFCOBNE@?$AA6?$AA4?$AA?9?$AAw?$AAa?$AAy?$AA?5?$AAS?$AAe?$AAt?$AA?9?$AAA?$AAs?$AAs?$AAo@ 00000000000d7e70     UefiShellDebug1CommandsLib:QueryTable.obj
 0002:00017ea0       ??_C@_1CO@JMKFGIFB@?$AA2?$AA0?$AA?9?$AAw?$AAa?$AAy?$AA?5?$AAS?$AAe?$AAt?$AA?9?$AAA?$AAs?$AAs?$AAo@ 00000000000d7ea0     UefiShellDebug1CommandsLib:QueryTable.obj
 0002:00017ed0       ??_C@_1BG@PDHILMJJ@?$AAC?$AAe?$AAn?$AAt?$AAr?$AAo?$AAn?$AAi?$AAc?$AAs@ 00000000000d7ed0     UefiShellDebug1CommandsLib:QueryTable.obj
 0002:00017ee8       ??_C@_1CA@PNELBLGF@?$AAM?$AAi?$AAn?$AAi?$AA?5?$AAC?$AAe?$AAn?$AAt?$AAr?$AAo?$AAn?$AAi?$AAc?$AAs@ 00000000000d7ee8     UefiShellDebug1CommandsLib:QueryTable.obj
 0002:00017f08       ??_C@_1BI@CDIOKNPG@?$AAP?$AAr?$AAo?$AAp?$AAr?$AAi?$AAe?$AAt?$AAa?$AAr?$AAy@ 00000000000d7f08     UefiShellDebug1CommandsLib:QueryTable.obj
 0002:00017f20       ??_C@_1BO@HOPAGIKJ@?$AAD?$AAB?$AA?9?$AA2?$AA5?$AA?5?$AAp?$AAi?$AAn?$AA?5?$AAm?$AAa?$AAl?$AAe@ 00000000000d7f20     UefiShellDebug1CommandsLib:QueryTable.obj
 0002:00017f40       ??_C@_1CC@IBNONMNH@?$AAD?$AAB?$AA?9?$AA2?$AA5?$AA?5?$AAp?$AAi?$AAn?$AA?5?$AAf?$AAe?$AAm?$AAa?$AAl@ 00000000000d7f40     UefiShellDebug1CommandsLib:QueryTable.obj
 0002:00017f68       ??_C@_1BO@CGOOMBIB@?$AAD?$AAB?$AA?9?$AA1?$AA5?$AA?5?$AAp?$AAi?$AAn?$AA?5?$AAm?$AAa?$AAl?$AAe@ 00000000000d7f68     UefiShellDebug1CommandsLib:QueryTable.obj
 0002:00017f88       ??_C@_1CC@IDAANLPA@?$AAD?$AAB?$AA?9?$AA1?$AA5?$AA?5?$AAp?$AAi?$AAn?$AA?5?$AAf?$AAe?$AAm?$AAa?$AAl@ 00000000000d7f88     UefiShellDebug1CommandsLib:QueryTable.obj
 0002:00017fb0       ??_C@_1BM@KNADBFCO@?$AAD?$AAB?$AA?9?$AA9?$AA?5?$AAp?$AAi?$AAn?$AA?5?$AAm?$AAa?$AAl?$AAe@ 00000000000d7fb0     UefiShellDebug1CommandsLib:QueryTable.obj
 0002:00017fd0       ??_C@_1CA@INDCJIEG@?$AAD?$AAB?$AA?9?$AA9?$AA?5?$AAp?$AAi?$AAn?$AA?5?$AAf?$AAe?$AAm?$AAa?$AAl?$AAe@ 00000000000d7fd0     UefiShellDebug1CommandsLib:QueryTable.obj
 0002:00017ff0       ??_C@_1M@DIDAFGCB@?$AAR?$AAJ?$AA?9?$AA1?$AA1@ 00000000000d7ff0     UefiShellDebug1CommandsLib:QueryTable.obj
 0002:00018000       ??_C@_1M@OHJPFAMF@?$AAR?$AAJ?$AA?9?$AA4?$AA5@ 00000000000d8000     UefiShellDebug1CommandsLib:QueryTable.obj
 0002:00018010       ??_C@_1CA@FGGGDIIE@?$AA5?$AA0?$AA?5?$AAP?$AAi?$AAn?$AA?5?$AAM?$AAi?$AAn?$AAi?$AAS?$AAC?$AAS?$AAI@ 00000000000d8010     UefiShellDebug1CommandsLib:QueryTable.obj
 0002:00018030       ??_C@_1BC@IDKNLAIN@?$AAM?$AAi?$AAn?$AAi?$AA?9?$AAD?$AAI?$AAN@ 00000000000d8030     UefiShellDebug1CommandsLib:QueryTable.obj
 0002:00018048       ??_C@_1BE@GJONJPEN@?$AAM?$AAi?$AAc?$AAr?$AAo?$AA?9?$AAD?$AAI?$AAN@ 00000000000d8048     UefiShellDebug1CommandsLib:QueryTable.obj
 0002:00018060       ??_C@_19NCBAGCCN@?$AAP?$AAS?$AA?1?$AA2@ 00000000000d8060     UefiShellDebug1CommandsLib:QueryTable.obj
 0002:00018070       ??_C@_1BC@EDOKPPPJ@?$AAI?$AAn?$AAf?$AAr?$AAa?$AAr?$AAe?$AAd@ 00000000000d8070     UefiShellDebug1CommandsLib:QueryTable.obj
 0002:00018088       ??_C@_1O@NJJBNIOK@?$AAH?$AAP?$AA?9?$AAH?$AAI?$AAL@ 00000000000d8088     UefiShellDebug1CommandsLib:QueryTable.obj
 0002:00018098       ??_C@_1CC@ODIBKOIL@?$AAA?$AAc?$AAc?$AAe?$AAs?$AAs?$AA?5?$AAB?$AAu?$AAs?$AA?5?$AA?$CI?$AAU?$AAS?$AAB@ 00000000000d8098     UefiShellDebug1CommandsLib:QueryTable.obj
 0002:000180c0       ??_C@_1BC@FKGNOFOK@?$AAS?$AAS?$AAA?$AA?5?$AAS?$AAC?$AAS?$AAI@ 00000000000d80c0     UefiShellDebug1CommandsLib:QueryTable.obj
 0002:000180d8       ??_C@_1CI@HNFDJGJO@?$AAC?$AAi?$AAr?$AAc?$AAu?$AAl?$AAa?$AAr?$AA?5?$AAD?$AAI?$AAN?$AA?9?$AA8?$AA?5@ 00000000000d80d8     UefiShellDebug1CommandsLib:QueryTable.obj
 0002:00018100       ??_C@_1CM@EPFLPMIF@?$AAC?$AAi?$AAr?$AAc?$AAu?$AAl?$AAa?$AAr?$AA?5?$AAD?$AAI?$AAN?$AA?9?$AA8?$AA?5@ 00000000000d8100     UefiShellDebug1CommandsLib:QueryTable.obj
 0002:00018130       ??_C@_1BK@DDPEDENO@?$AAO?$AAn?$AA?5?$AAB?$AAo?$AAa?$AAr?$AAd?$AA?5?$AAI?$AAD?$AAE@ 00000000000d8130     UefiShellDebug1CommandsLib:QueryTable.obj
 0002:00018150       ??_C@_1CA@PCCPEAIO@?$AAO?$AAn?$AA?5?$AAB?$AAo?$AAa?$AAr?$AAd?$AA?5?$AAF?$AAl?$AAo?$AAp?$AAp?$AAy@ 00000000000d8150     UefiShellDebug1CommandsLib:QueryTable.obj
 0002:00018170       ??_C@_1DO@GKBHHBII@?$AA9?$AA?5?$AAP?$AAi?$AAn?$AA?5?$AAD?$AAu?$AAa?$AAl?$AA?5?$AAI?$AAn?$AAl?$AAi@ 00000000000d8170     UefiShellDebug1CommandsLib:QueryTable.obj
 0002:000181b0       ??_C@_1EA@GKFKJGNC@?$AA2?$AA5?$AA?5?$AAP?$AAi?$AAn?$AA?5?$AAD?$AAu?$AAa?$AAl?$AA?5?$AAI?$AAn?$AAl@ 00000000000d81b0     UefiShellDebug1CommandsLib:QueryTable.obj
 0002:000181f0       ??_C@_1CG@BDJNBIMP@?$AA5?$AA0?$AA?5?$AAP?$AAi?$AAn?$AA?5?$AAD?$AAu?$AAa?$AAl?$AA?5?$AAI?$AAn?$AAl@ 00000000000d81f0     UefiShellDebug1CommandsLib:QueryTable.obj
 0002:00018218       ??_C@_1CG@CONFKJIG@?$AA6?$AA8?$AA?5?$AAP?$AAi?$AAn?$AA?5?$AAD?$AAu?$AAa?$AAl?$AA?5?$AAI?$AAn?$AAl@ 00000000000d8218     UefiShellDebug1CommandsLib:QueryTable.obj
 0002:00018240       ??_C@_1EC@PDFIJLMB@?$AAO?$AAn?$AA?5?$AAB?$AAo?$AAa?$AAr?$AAd?$AA?5?$AAS?$AAo?$AAu?$AAn?$AAd?$AA?5@ 00000000000d8240     UefiShellDebug1CommandsLib:QueryTable.obj
 0002:00018288       ??_C@_1DA@ELIEDONJ@?$AAM?$AAi?$AAn?$AAi?$AA?9?$AAC?$AAe?$AAn?$AAt?$AAr?$AAo?$AAn?$AAi?$AAc?$AAs@ 00000000000d8288     UefiShellDebug1CommandsLib:QueryTable.obj
 0002:000182b8       ??_C@_1DA@GHBJIEPM@?$AAM?$AAi?$AAn?$AAi?$AA?9?$AAC?$AAe?$AAn?$AAt?$AAr?$AAo?$AAn?$AAi?$AAc?$AAs@ 00000000000d82b8     UefiShellDebug1CommandsLib:QueryTable.obj
 0002:000182e8       ??_C@_1CO@MNNKBLFF@?$AAM?$AAi?$AAn?$AAi?$AA?9?$AAj?$AAa?$AAc?$AAk?$AA?5?$AA?$CI?$AAh?$AAe?$AAa?$AAd@ 00000000000d82e8     UefiShellDebug1CommandsLib:QueryTable.obj
 0002:00018318       ??_C@_17ENJGHJMJ@?$AAB?$AAN?$AAC@ 00000000000d8318     UefiShellDebug1CommandsLib:QueryTable.obj
 0002:00018320       ??_C@_19MMDKBDIC@?$AA1?$AA3?$AA9?$AA4@ 00000000000d8320     UefiShellDebug1CommandsLib:QueryTable.obj
 0002:00018330       ??_C@_1DC@OOELNIFE@?$AAS?$AAA?$AAS?$AA?1?$AAS?$AAA?$AAT?$AAA?$AA?5?$AAP?$AAl?$AAu?$AAg?$AA?5?$AAR@ 00000000000d8330     UefiShellDebug1CommandsLib:QueryTable.obj
 0002:00018368       ??_C@_1CM@OHDELON@?$AAU?$AAS?$AAB?$AA?5?$AAT?$AAy?$AAp?$AAe?$AA?9?$AAC?$AA?5?$AAR?$AAe?$AAc?$AAe@ 00000000000d8368     UefiShellDebug1CommandsLib:QueryTable.obj
 0002:00018398       ??_C@_1M@LJEFCOJD@?$AAP?$AAC?$AA?9?$AA9?$AA8@ 00000000000d8398     UefiShellDebug1CommandsLib:QueryTable.obj
 0002:000183a8       ??_C@_1BI@BAKAJCAB@?$AAP?$AAC?$AA?9?$AA9?$AA8?$AAH?$AAi?$AAr?$AAe?$AAs?$AAo@ 00000000000d83a8     UefiShellDebug1CommandsLib:QueryTable.obj
 0002:000183c0       ??_C@_1O@BIIDPPLG@?$AAP?$AAC?$AA?9?$AAH?$AA9?$AA8@ 00000000000d83c0     UefiShellDebug1CommandsLib:QueryTable.obj
 0002:000183d0       ??_C@_1BE@GJDMMNIL@?$AAP?$AAC?$AA?9?$AA9?$AA8?$AAN?$AAo?$AAt?$AAe@ 00000000000d83d0     UefiShellDebug1CommandsLib:QueryTable.obj
 0002:000183e8       ??_C@_1BE@FBNGPOA@?$AAP?$AAC?$AA?9?$AA9?$AA8?$AAF?$AAu?$AAl?$AAl@ 00000000000d83e8     UefiShellDebug1CommandsLib:QueryTable.obj
 0002:00018400       ??_C@_1DO@LIAHKKBP@?$AAP?$AAa?$AAr?$AAa?$AAl?$AAl?$AAe?$AAl?$AA?5?$AAP?$AAo?$AAr?$AAt?$AA?5?$AAX@ 00000000000d8400     UefiShellDebug1CommandsLib:QueryTable.obj
 0002:00018440       ??_C@_1CG@GNBEJKEE@?$AAP?$AAa?$AAr?$AAa?$AAl?$AAl?$AAe?$AAl?$AA?5?$AAP?$AAo?$AAr?$AAt?$AA?5?$AAP@ 00000000000d8440     UefiShellDebug1CommandsLib:QueryTable.obj
 0002:00018468       ??_C@_1CE@JLCOEKBM@?$AAP?$AAa?$AAr?$AAa?$AAl?$AAl?$AAe?$AAl?$AA?5?$AAP?$AAo?$AAr?$AAt?$AA?5?$AAE@ 00000000000d8468     UefiShellDebug1CommandsLib:QueryTable.obj
 0002:00018490       ??_C@_1CE@BOGMDKCJ@?$AAP?$AAa?$AAr?$AAa?$AAl?$AAl?$AAe?$AAl?$AA?5?$AAP?$AAo?$AAr?$AAt?$AA?5?$AAE@ 00000000000d8490     UefiShellDebug1CommandsLib:QueryTable.obj
 0002:000184b8       ??_C@_1CM@EILHOPJF@?$AAP?$AAa?$AAr?$AAa?$AAl?$AAl?$AAe?$AAl?$AA?5?$AAP?$AAo?$AAr?$AAt?$AA?5?$AAE@ 00000000000d84b8     UefiShellDebug1CommandsLib:QueryTable.obj
 0002:000184e8       ??_C@_1DK@GFJNGLPP@?$AAS?$AAe?$AAr?$AAi?$AAa?$AAl?$AA?5?$AAP?$AAo?$AAr?$AAt?$AA?5?$AAX?$AAT?$AA?1@ 00000000000d84e8     UefiShellDebug1CommandsLib:QueryTable.obj
 0002:00018528       ??_C@_1DK@DPDCAMIC@?$AAS?$AAe?$AAr?$AAi?$AAa?$AAl?$AA?5?$AAP?$AAo?$AAr?$AAt?$AA?5?$AA1?$AA6?$AA4@ 00000000000d8528     UefiShellDebug1CommandsLib:QueryTable.obj
 0002:00018568       ??_C@_1DK@DFCOPIK@?$AAS?$AAe?$AAr?$AAi?$AAa?$AAl?$AA?5?$AAP?$AAo?$AAr?$AAt?$AA?5?$AA1?$AA6?$AA5@ 00000000000d8568     UefiShellDebug1CommandsLib:QueryTable.obj
 0002:000185a8       ??_C@_1DM@FJBADMAE@?$AAS?$AAe?$AAr?$AAi?$AAa?$AAl?$AA?5?$AAP?$AAo?$AAr?$AAt?$AA?5?$AA1?$AA6?$AA5@ 00000000000d85a8     UefiShellDebug1CommandsLib:QueryTable.obj
 0002:000185e8       ??_C@_1BE@NOJBIPAI@?$AAS?$AAC?$AAS?$AAI?$AA?5?$AAP?$AAo?$AAr?$AAt@ 00000000000d85e8     UefiShellDebug1CommandsLib:QueryTable.obj
 0002:00018600       ??_C@_1BE@COPEGMCO@?$AAM?$AAI?$AAD?$AAI?$AA?5?$AAP?$AAo?$AAr?$AAt@ 00000000000d8600     UefiShellDebug1CommandsLib:QueryTable.obj
 0002:00018618       ??_C@_1BO@EFEHLEPP@?$AAJ?$AAo?$AAy?$AA?5?$AAS?$AAt?$AAi?$AAc?$AAk?$AA?5?$AAP?$AAo?$AAr?$AAt@ 00000000000d8618     UefiShellDebug1CommandsLib:QueryTable.obj
 0002:00018638       ??_C@_1BM@JPCDIBMO@?$AAK?$AAe?$AAy?$AAb?$AAo?$AAa?$AAr?$AAd?$AA?5?$AAP?$AAo?$AAr?$AAt@ 00000000000d8638     UefiShellDebug1CommandsLib:QueryTable.obj
 0002:00018658       ??_C@_1BG@OFNCFLIC@?$AAM?$AAo?$AAu?$AAs?$AAe?$AA?5?$AAP?$AAo?$AAr?$AAt@ 00000000000d8658     UefiShellDebug1CommandsLib:QueryTable.obj
 0002:00018670       ??_C@_1CM@FJJOGJOL@?$AAF?$AAi?$AAr?$AAe?$AAW?$AAi?$AAr?$AAe?$AA?5?$AA?$CI?$AAI?$AAE?$AAE?$AAE?$AA?5@ 00000000000d8670     UefiShellDebug1CommandsLib:QueryTable.obj
 0002:000186a0       ??_C@_1BO@MPNLIICJ@?$AAP?$AAC?$AAM?$AAC?$AAI?$AAA?$AA?5?$AAT?$AAy?$AAp?$AAe?$AA?5?$AAI?$AAI@ 00000000000d86a0     UefiShellDebug1CommandsLib:QueryTable.obj
 0002:000186c0       ??_C@_1CA@EBDJEMJF@?$AAP?$AAC?$AAM?$AAC?$AAI?$AAA?$AA?5?$AAT?$AAy?$AAp?$AAe?$AA?5?$AAI?$AAI?$AAI@ 00000000000d86c0     UefiShellDebug1CommandsLib:QueryTable.obj
 0002:000186e0       ??_C@_1BA@KFPGBHFK@?$AAC?$AAa?$AAr?$AAd?$AAb?$AAu?$AAs@ 00000000000d86e0     UefiShellDebug1CommandsLib:QueryTable.obj
 0002:000186f0       ??_C@_1CA@LBIGPIBF@?$AAA?$AAc?$AAc?$AAe?$AAs?$AAs?$AA?5?$AAB?$AAu?$AAs?$AA?5?$AAP?$AAo?$AAr?$AAt@ 00000000000d86f0     UefiShellDebug1CommandsLib:QueryTable.obj
 0002:00018710       ??_C@_1BA@NBHKJAMF@?$AAS?$AAC?$AAS?$AAI?$AA?5?$AAI?$AAI@ 00000000000d8710     UefiShellDebug1CommandsLib:QueryTable.obj
 0002:00018720       ??_C@_1BE@MHAIEMIK@?$AAS?$AAC?$AAS?$AAI?$AA?5?$AAW?$AAi?$AAd?$AAe@ 00000000000d8720     UefiShellDebug1CommandsLib:QueryTable.obj
 0002:00018738       ??_C@_1BK@BBENEMM@?$AAP?$AAC?$AA?9?$AA9?$AA8?$AA?9?$AAH?$AAi?$AAr?$AAe?$AAs?$AAo@ 00000000000d8738     UefiShellDebug1CommandsLib:QueryTable.obj
 0002:00018758       ??_C@_1BG@OOENGAEO@?$AAV?$AAi?$AAd?$AAe?$AAo?$AA?5?$AAP?$AAo?$AAr?$AAt@ 00000000000d8758     UefiShellDebug1CommandsLib:QueryTable.obj
 0002:00018770       ??_C@_1BG@LGLBFBEJ@?$AAA?$AAu?$AAd?$AAi?$AAo?$AA?5?$AAP?$AAo?$AAr?$AAt@ 00000000000d8770     UefiShellDebug1CommandsLib:QueryTable.obj
 0002:00018788       ??_C@_1BG@KCMMPIDH@?$AAM?$AAo?$AAd?$AAe?$AAm?$AA?5?$AAP?$AAo?$AAr?$AAt@ 00000000000d8788     UefiShellDebug1CommandsLib:QueryTable.obj
 0002:000187a0       ??_C@_1BK@NHNIIGJK@?$AAN?$AAe?$AAt?$AAw?$AAo?$AAr?$AAk?$AA?5?$AAP?$AAo?$AAr?$AAt@ 00000000000d87a0     UefiShellDebug1CommandsLib:QueryTable.obj
 0002:000187c0       ??_C@_1BE@BFOFACMI@?$AAS?$AAA?$AAT?$AAA?$AA?5?$AAP?$AAo?$AAr?$AAt@ 00000000000d87c0     UefiShellDebug1CommandsLib:QueryTable.obj
 0002:000187d8       ??_C@_1BC@DHGJDMCD@?$AAS?$AAA?$AAS?$AA?5?$AAP?$AAo?$AAr?$AAt@ 00000000000d87d8     UefiShellDebug1CommandsLib:QueryTable.obj
 0002:000187f0       ??_C@_1EG@JDPFECNO@?$AAM?$AAu?$AAl?$AAt?$AAi?$AA?9?$AAF?$AAu?$AAn?$AAc?$AAt?$AAi?$AAo?$AAn?$AA?5@ 00000000000d87f0     UefiShellDebug1CommandsLib:QueryTable.obj
 0002:00018838       ??_C@_1BI@OHHOEJGN@?$AAT?$AAh?$AAu?$AAn?$AAd?$AAe?$AAr?$AAb?$AAo?$AAl?$AAt@ 00000000000d8838     UefiShellDebug1CommandsLib:QueryTable.obj
 0002:00018850       ??_C@_1CA@EMPGEJLH@?$AA8?$AA2?$AA5?$AA1?$AA?5?$AAC?$AAo?$AAm?$AAp?$AAa?$AAt?$AAi?$AAb?$AAl?$AAe@ 00000000000d8850     UefiShellDebug1CommandsLib:QueryTable.obj
 0002:00018870       ??_C@_1CK@PPNOCDBD@?$AA8?$AA2?$AA5?$AA1?$AA?5?$AAF?$AAI?$AAF?$AAO?$AA?5?$AAC?$AAo?$AAm?$AAp?$AAa@ 00000000000d8870     UefiShellDebug1CommandsLib:QueryTable.obj
 0002:000188a0       ??_C@_1O@KCMGJGBL@?$AAO?$AAt?$AAh?$AAe?$AAr?$AA?5@ 00000000000d88a0     UefiShellDebug1CommandsLib:QueryTable.obj
 0002:000188b0       ??_C@_17ICCBLADA@?$AAM?$AAC?$AAA@ 00000000000d88b0     UefiShellDebug1CommandsLib:QueryTable.obj
 0002:000188b8       ??_C@_17KACLLMCF@?$AAP?$AAC?$AAI@ 00000000000d88b8     UefiShellDebug1CommandsLib:QueryTable.obj
 0002:000188c0       ??_C@_1CC@KCBMDFAB@?$AAP?$AAC?$AA?5?$AAC?$AAa?$AAr?$AAd?$AA?5?$AA?$CI?$AAP?$AAC?$AAM?$AAC?$AAI?$AAA@ 00000000000d88c0     UefiShellDebug1CommandsLib:QueryTable.obj
 0002:000188e8       ??_C@_1BA@BJJLNGGH@?$AAV?$AAL?$AA?9?$AAV?$AAE?$AAS?$AAA@ 00000000000d88e8     UefiShellDebug1CommandsLib:QueryTable.obj
 0002:000188f8       ??_C@_1CI@LAEGDMLE@?$AAP?$AAr?$AAo?$AAc?$AAe?$AAs?$AAs?$AAo?$AAr?$AA?5?$AAC?$AAa?$AAr?$AAd?$AA?5@ 00000000000d88f8     UefiShellDebug1CommandsLib:QueryTable.obj
 0002:00018920       ??_C@_1DK@EAJEKNAL@?$AAP?$AAr?$AAo?$AAp?$AAr?$AAi?$AAe?$AAt?$AAa?$AAr?$AAy?$AA?5?$AAM?$AAe?$AAm@ 00000000000d8920     UefiShellDebug1CommandsLib:QueryTable.obj
 0002:00018960       ??_C@_1CI@PDMOJGJG@?$AAI?$AA?1?$AAO?$AA?5?$AAR?$AAi?$AAs?$AAe?$AAr?$AA?5?$AAC?$AAa?$AAr?$AAd?$AA?5@ 00000000000d8960     UefiShellDebug1CommandsLib:QueryTable.obj
 0002:00018988       ??_C@_1M@EMFEFDC@?$AAN?$AAu?$AAB?$AAu?$AAs@ 00000000000d8988     UefiShellDebug1CommandsLib:QueryTable.obj
 0002:00018998       ??_C@_1CI@CBCPMECI@?$AAP?$AAC?$AAI?$AA?5?$AA?9?$AA?5?$AA6?$AA6?$AAM?$AAH?$AAz?$AA?5?$AAC?$AAa?$AAp@ 00000000000d8998     UefiShellDebug1CommandsLib:QueryTable.obj
 0002:000189c0       ??_C@_17KGLKNHJD@?$AAA?$AAG?$AAP@ 00000000000d89c0     UefiShellDebug1CommandsLib:QueryTable.obj
 0002:000189c8       ??_C@_1O@LBGAKLDF@?$AAA?$AAG?$AAP?$AA?5?$AA2?$AAX@ 00000000000d89c8     UefiShellDebug1CommandsLib:QueryTable.obj
 0002:000189d8       ??_C@_1O@GHDJEICI@?$AAA?$AAG?$AAP?$AA?5?$AA4?$AAX@ 00000000000d89d8     UefiShellDebug1CommandsLib:QueryTable.obj
 0002:000189e8       ??_C@_1M@EOIFDHFM@?$AAP?$AAC?$AAI?$AA?9?$AAX@ 00000000000d89e8     UefiShellDebug1CommandsLib:QueryTable.obj
 0002:000189f8       ??_C@_1O@BAPLIIFD@?$AAA?$AAG?$AAP?$AA?5?$AA8?$AAX@ 00000000000d89f8     UefiShellDebug1CommandsLib:QueryTable.obj
 0002:00018a10       ??_C@_1EG@JIHKNADJ@?$AAM?$AA?4?$AA2?$AA?5?$AAS?$AAo?$AAc?$AAk?$AAe?$AAt?$AA?5?$AA1?$AA?9?$AAD?$AAP@ 00000000000d8a10     UefiShellDebug1CommandsLib:QueryTable.obj
 0002:00018a60       ??_C@_1EG@OAGAMHPH@?$AAM?$AA?4?$AA2?$AA?5?$AAS?$AAo?$AAc?$AAk?$AAe?$AAt?$AA?5?$AA1?$AA?9?$AAS?$AAD@ 00000000000d8a60     UefiShellDebug1CommandsLib:QueryTable.obj
 0002:00018ab0       ??_C@_1EA@PNAJHPEJ@?$AAM?$AA?4?$AA2?$AA?5?$AAS?$AAo?$AAc?$AAk?$AAe?$AAt?$AA?5?$AA2?$AA?5?$AA?$CI?$AAM@ 00000000000d8ab0     UefiShellDebug1CommandsLib:QueryTable.obj
 0002:00018af0       ??_C@_1EA@KNGGEJHC@?$AAM?$AA?4?$AA2?$AA?5?$AAS?$AAo?$AAc?$AAk?$AAe?$AAt?$AA?5?$AA3?$AA?5?$AA?$CI?$AAM@ 00000000000d8af0     UefiShellDebug1CommandsLib:QueryTable.obj
 0002:00018b30       ??_C@_1BG@HBBIGDEK@?$AAM?$AAX?$AAM?$AA?5?$AAT?$AAy?$AAp?$AAe?$AA?5?$AAI@ 00000000000d8b30     UefiShellDebug1CommandsLib:QueryTable.obj
 0002:00018b48       ??_C@_1BI@DIDBPBMC@?$AAM?$AAX?$AAM?$AA?5?$AAT?$AAy?$AAp?$AAe?$AA?5?$AAI?$AAI@ 00000000000d8b48     UefiShellDebug1CommandsLib:QueryTable.obj
 0002:00018b60       ??_C@_1EE@DMCEFFOA@?$AAM?$AAX?$AAM?$AA?5?$AAT?$AAy?$AAp?$AAe?$AA?5?$AAI?$AAI?$AAI?$AA?5?$AA?$CI?$AAs@ 00000000000d8b60     UefiShellDebug1CommandsLib:QueryTable.obj
 0002:00018ba8       ??_C@_1DI@MOJKLOGD@?$AAM?$AAX?$AAM?$AA?5?$AAT?$AAy?$AAp?$AAe?$AA?5?$AAI?$AAI?$AAI?$AA?5?$AA?$CI?$AAH@ 00000000000d8ba8     UefiShellDebug1CommandsLib:QueryTable.obj
 0002:00018be0       ??_C@_1BI@DAELLGAL@?$AAM?$AAX?$AAM?$AA?5?$AAT?$AAy?$AAp?$AAe?$AA?5?$AAI?$AAV@ 00000000000d8be0     UefiShellDebug1CommandsLib:QueryTable.obj
 0002:00018bf8       ??_C@_1BO@HJEAKDMP@?$AAM?$AAX?$AAM?$AA?5?$AA3?$AA?4?$AA0?$AA?5?$AAT?$AAy?$AAp?$AAe?$AA?5?$AAA@ 00000000000d8bf8     UefiShellDebug1CommandsLib:QueryTable.obj
 0002:00018c18       ??_C@_1BO@GLPFAMCB@?$AAM?$AAX?$AAM?$AA?5?$AA3?$AA?4?$AA0?$AA?5?$AAT?$AAy?$AAp?$AAe?$AA?5?$AAB@ 00000000000d8c18     UefiShellDebug1CommandsLib:QueryTable.obj
 0002:00018c38       ??_C@_1DG@PMEFNILG@?$AAP?$AAC?$AAI?$AA?5?$AAE?$AAx?$AAp?$AAr?$AAe?$AAs?$AAs?$AA?5?$AAG?$AAe?$AAn@ 00000000000d8c38     UefiShellDebug1CommandsLib:QueryTable.obj
 0002:00018c70       ??_C@_1DG@OLGNLMHG@?$AAP?$AAC?$AAI?$AA?5?$AAE?$AAx?$AAp?$AAr?$AAe?$AAs?$AAs?$AA?5?$AAG?$AAe?$AAn@ 00000000000d8c70     UefiShellDebug1CommandsLib:QueryTable.obj
 0002:00018cb0       ??_C@_1IG@GDFKECGO@?$AAP?$AAC?$AAI?$AA?5?$AAE?$AAx?$AAp?$AAr?$AAe?$AAs?$AAs?$AA?5?$AAM?$AAi?$AAn@ 00000000000d8cb0     UefiShellDebug1CommandsLib:QueryTable.obj
 0002:00018d40       ??_C@_1IM@JNIEIDOF@?$AAP?$AAC?$AAI?$AA?5?$AAE?$AAx?$AAp?$AAr?$AAe?$AAs?$AAs?$AA?5?$AAM?$AAi?$AAn@ 00000000000d8d40     UefiShellDebug1CommandsLib:QueryTable.obj
 0002:00018dd0       ??_C@_1JC@CLEKENNC@?$AAP?$AAC?$AAI?$AA?5?$AAE?$AAx?$AAp?$AAr?$AAe?$AAs?$AAs?$AA?5?$AAM?$AAi?$AAn@ 00000000000d8dd0     UefiShellDebug1CommandsLib:QueryTable.obj
 0002:00018e70       ??_C@_1EC@JADEBIA@?$AAP?$AAC?$AAI?$AA?5?$AAE?$AAx?$AAp?$AAr?$AAe?$AAs?$AAs?$AA?5?$AAG?$AAe?$AAn@ 00000000000d8e70     UefiShellDebug1CommandsLib:QueryTable.obj
 0002:00018ec0       ??_C@_1EC@CNIBBALG@?$AAP?$AAC?$AAI?$AA?5?$AAE?$AAx?$AAp?$AAr?$AAe?$AAs?$AAs?$AA?5?$AAG?$AAe?$AAn@ 00000000000d8ec0     UefiShellDebug1CommandsLib:QueryTable.obj
 0002:00018f10       ??_C@_1EI@OKKODGAF@?$AAO?$AAC?$AAP?$AA?5?$AAN?$AAI?$AAC?$AA?5?$AA3?$AA?4?$AA0?$AA?5?$AAS?$AAm?$AAa@ 00000000000d8f10     UefiShellDebug1CommandsLib:QueryTable.obj
 0002:00018f60       ??_C@_1EI@OOBKBLLJ@?$AAO?$AAC?$AAP?$AA?5?$AAN?$AAI?$AAC?$AA?5?$AA3?$AA?4?$AA0?$AA?5?$AAL?$AAa?$AAr@ 00000000000d8f60     UefiShellDebug1CommandsLib:QueryTable.obj
 0002:00018fa8       ??_C@_1CK@DMGCBMBG@?$AAO?$AAC?$AAP?$AA?5?$AAN?$AAI?$AAC?$AA?5?$AAP?$AAr?$AAi?$AAo?$AAr?$AA?5?$AAt@ 00000000000d8fa8     UefiShellDebug1CommandsLib:QueryTable.obj
 0002:00018fd8       ??_C@_1CA@EACNHKNF@?$AAC?$AAX?$AAL?$AA?5?$AAF?$AAl?$AAe?$AAx?$AAb?$AAu?$AAs?$AA?5?$AA1?$AA?4?$AA0@ 00000000000d8fd8     UefiShellDebug1CommandsLib:QueryTable.obj
 0002:00018ff8       ??_C@_1BG@MILHKIJI@?$AAP?$AAC?$AA?9?$AA9?$AA8?$AA?1?$AAC?$AA2?$AA0?$AA?5@ 00000000000d8ff8     UefiShellDebug1CommandsLib:QueryTable.obj
 0002:00019010       ??_C@_1BG@FDCGOKIO@?$AAP?$AAC?$AA?9?$AA9?$AA8?$AA?1?$AAC?$AA2?$AA4?$AA?5@ 00000000000d9010     UefiShellDebug1CommandsLib:QueryTable.obj
 0002:00019028       ??_C@_1BC@FMLHNMAD@?$AAP?$AAC?$AA?9?$AA9?$AA8?$AA?1?$AAE?$AA?5@ 00000000000d9028     UefiShellDebug1CommandsLib:QueryTable.obj
 0002:00019040       ??_C@_1CC@OCHBEAJE@?$AAP?$AAC?$AA?9?$AA9?$AA8?$AA?1?$AAL?$AAo?$AAc?$AAa?$AAl?$AA?5?$AAB?$AAu?$AAs@ 00000000000d9040     UefiShellDebug1CommandsLib:QueryTable.obj
 0002:00019068       ??_C@_1BI@GMPFPMOA@?$AAP?$AAC?$AA?9?$AA9?$AA8?$AA?1?$AAC?$AAa?$AAr?$AAd?$AA?5@ 00000000000d9068     UefiShellDebug1CommandsLib:QueryTable.obj
 0002:00019080       ??_C@_1BK@NGAJAHOO@?$AAP?$AAC?$AAI?$AA?5?$AAE?$AAx?$AAp?$AAr?$AAe?$AAs?$AAs?$AA?5@ 00000000000d9080     UefiShellDebug1CommandsLib:QueryTable.obj
 0002:000190a0       ??_C@_1BO@CFNHPJHI@?$AAP?$AAC?$AAI?$AA?5?$AAE?$AAx?$AAp?$AAr?$AAe?$AAs?$AAs?$AA?5?$AAX?$AA1@ 00000000000d90a0     UefiShellDebug1CommandsLib:QueryTable.obj
 0002:000190c0       ??_C@_1BO@DHGCFGJG@?$AAP?$AAC?$AAI?$AA?5?$AAE?$AAx?$AAp?$AAr?$AAe?$AAs?$AAs?$AA?5?$AAX?$AA2@ 00000000000d90c0     UefiShellDebug1CommandsLib:QueryTable.obj
 0002:000190e0       ??_C@_1BO@BCAJAJEK@?$AAP?$AAC?$AAI?$AA?5?$AAE?$AAx?$AAp?$AAr?$AAe?$AAs?$AAs?$AA?5?$AAX?$AA4@ 00000000000d90e0     UefiShellDebug1CommandsLib:QueryTable.obj
 0002:00019100       ??_C@_1BO@FINPLGPC@?$AAP?$AAC?$AAI?$AA?5?$AAE?$AAx?$AAp?$AAr?$AAe?$AAs?$AAs?$AA?5?$AAX?$AA8@ 00000000000d9100     UefiShellDebug1CommandsLib:QueryTable.obj
 0002:00019120       ??_C@_1CA@PGMHDLOM@?$AAP?$AAC?$AAI?$AA?5?$AAE?$AAx?$AAp?$AAr?$AAe?$AAs?$AAs?$AA?5?$AAX?$AA1?$AA6@ 00000000000d9120     UefiShellDebug1CommandsLib:QueryTable.obj
 0002:00019140       ??_C@_1CE@HBMMGLIB@?$AAP?$AAC?$AAI?$AA?5?$AAE?$AAx?$AAp?$AAr?$AAe?$AAs?$AAs?$AA?5?$AAG?$AAe?$AAn@ 00000000000d9140     UefiShellDebug1CommandsLib:QueryTable.obj
 0002:00019168       ??_C@_1CK@DJKKFPA@?$AAP?$AAC?$AAI?$AA?5?$AAE?$AAx?$AAp?$AAr?$AAe?$AAs?$AAs?$AA?5?$AAG?$AAe?$AAn@ 00000000000d9168     UefiShellDebug1CommandsLib:QueryTable.obj
 0002:00019198       ??_C@_1CK@BBCPAKBO@?$AAP?$AAC?$AAI?$AA?5?$AAE?$AAx?$AAp?$AAr?$AAe?$AAs?$AAs?$AA?5?$AAG?$AAe?$AAn@ 00000000000d9198     UefiShellDebug1CommandsLib:QueryTable.obj
 0002:000191c8       ??_C@_1CK@DEEEFFMC@?$AAP?$AAC?$AAI?$AA?5?$AAE?$AAx?$AAp?$AAr?$AAe?$AAs?$AAs?$AA?5?$AAG?$AAe?$AAn@ 00000000000d91c8     UefiShellDebug1CommandsLib:QueryTable.obj
 0002:000191f8       ??_C@_1CK@HOJCOKHK@?$AAP?$AAC?$AAI?$AA?5?$AAE?$AAx?$AAp?$AAr?$AAe?$AAs?$AAs?$AA?5?$AAG?$AAe?$AAn@ 00000000000d91f8     UefiShellDebug1CommandsLib:QueryTable.obj
 0002:00019228       ??_C@_1CM@GHEABCDN@?$AAP?$AAC?$AAI?$AA?5?$AAE?$AAx?$AAp?$AAr?$AAe?$AAs?$AAs?$AA?5?$AAG?$AAe?$AAn@ 00000000000d9228     UefiShellDebug1CommandsLib:QueryTable.obj
 0002:00019258       ??_C@_1CE@MJHAAMOE@?$AAP?$AAC?$AAI?$AA?5?$AAE?$AAx?$AAp?$AAr?$AAe?$AAs?$AAs?$AA?5?$AAG?$AAe?$AAn@ 00000000000d9258     UefiShellDebug1CommandsLib:QueryTable.obj
 0002:00019280       ??_C@_1CK@OMFIMOMO@?$AAP?$AAC?$AAI?$AA?5?$AAE?$AAx?$AAp?$AAr?$AAe?$AAs?$AAs?$AA?5?$AAG?$AAe?$AAn@ 00000000000d9280     UefiShellDebug1CommandsLib:QueryTable.obj
 0002:000192b0       ??_C@_1CK@POONGBCA@?$AAP?$AAC?$AAI?$AA?5?$AAE?$AAx?$AAp?$AAr?$AAe?$AAs?$AAs?$AA?5?$AAG?$AAe?$AAn@ 00000000000d92b0     UefiShellDebug1CommandsLib:QueryTable.obj
 0002:000192e0       ??_C@_1CK@NLIGDOPM@?$AAP?$AAC?$AAI?$AA?5?$AAE?$AAx?$AAp?$AAr?$AAe?$AAs?$AAs?$AA?5?$AAG?$AAe?$AAn@ 00000000000d92e0     UefiShellDebug1CommandsLib:QueryTable.obj
 0002:00019310       ??_C@_1CK@JBFAIBEE@?$AAP?$AAC?$AAI?$AA?5?$AAE?$AAx?$AAp?$AAr?$AAe?$AAs?$AAs?$AA?5?$AAG?$AAe?$AAn@ 00000000000d9310     UefiShellDebug1CommandsLib:QueryTable.obj
 0002:00019340       ??_C@_1CM@PMOFFOFC@?$AAP?$AAC?$AAI?$AA?5?$AAE?$AAx?$AAp?$AAr?$AAe?$AAs?$AAs?$AA?5?$AAG?$AAe?$AAn@ 00000000000d9340     UefiShellDebug1CommandsLib:QueryTable.obj
 0002:00019370       ??_C@_1CE@FEKHDEFN@?$AAP?$AAC?$AAI?$AA?5?$AAE?$AAx?$AAp?$AAr?$AAe?$AAs?$AAs?$AA?5?$AAG?$AAe?$AAn@ 00000000000d9370     UefiShellDebug1CommandsLib:QueryTable.obj
 0002:00019398       ??_C@_1CK@OIENFLH@?$AAP?$AAC?$AAI?$AA?5?$AAE?$AAx?$AAp?$AAr?$AAe?$AAs?$AAs?$AA?5?$AAG?$AAe?$AAn@ 00000000000d9398     UefiShellDebug1CommandsLib:QueryTable.obj
 0002:000193c8       ??_C@_1CK@BMDBHKFJ@?$AAP?$AAC?$AAI?$AA?5?$AAE?$AAx?$AAp?$AAr?$AAe?$AAs?$AAs?$AA?5?$AAG?$AAe?$AAn@ 00000000000d93c8     UefiShellDebug1CommandsLib:QueryTable.obj
 0002:000193f8       ??_C@_1CK@DJFKCFIF@?$AAP?$AAC?$AAI?$AA?5?$AAE?$AAx?$AAp?$AAr?$AAe?$AAs?$AAs?$AA?5?$AAG?$AAe?$AAn@ 00000000000d93f8     UefiShellDebug1CommandsLib:QueryTable.obj
 0002:00019428       ??_C@_1CK@HDIMJKDN@?$AAP?$AAC?$AAI?$AA?5?$AAE?$AAx?$AAp?$AAr?$AAe?$AAs?$AAs?$AA?5?$AAG?$AAe?$AAn@ 00000000000d9428     UefiShellDebug1CommandsLib:QueryTable.obj
 0002:00019458       ??_C@_1CM@IIHNLHNN@?$AAP?$AAC?$AAI?$AA?5?$AAE?$AAx?$AAp?$AAr?$AAe?$AAs?$AAs?$AA?5?$AAG?$AAe?$AAn@ 00000000000d9458     UefiShellDebug1CommandsLib:QueryTable.obj
 0002:00019488       ??_C@_1CE@OMBLFDDI@?$AAP?$AAC?$AAI?$AA?5?$AAE?$AAx?$AAp?$AAr?$AAe?$AAs?$AAs?$AA?5?$AAG?$AAe?$AAn@ 00000000000d9488     UefiShellDebug1CommandsLib:QueryTable.obj
 0002:000194b0       ??_C@_1CK@OGOKLLLP@?$AAP?$AAC?$AAI?$AA?5?$AAE?$AAx?$AAp?$AAr?$AAe?$AAs?$AAs?$AA?5?$AAG?$AAe?$AAn@ 00000000000d94b0     UefiShellDebug1CommandsLib:QueryTable.obj
 0002:000194e0       ??_C@_1CK@PEFPBEFB@?$AAP?$AAC?$AAI?$AA?5?$AAE?$AAx?$AAp?$AAr?$AAe?$AAs?$AAs?$AA?5?$AAG?$AAe?$AAn@ 00000000000d94e0     UefiShellDebug1CommandsLib:QueryTable.obj
 0002:00019510       ??_C@_1CK@NBDEELIN@?$AAP?$AAC?$AAI?$AA?5?$AAE?$AAx?$AAp?$AAr?$AAe?$AAs?$AAs?$AA?5?$AAG?$AAe?$AAn@ 00000000000d9510     UefiShellDebug1CommandsLib:QueryTable.obj
 0002:00019540       ??_C@_1CK@JLOCPEDF@?$AAP?$AAC?$AAI?$AA?5?$AAE?$AAx?$AAp?$AAr?$AAe?$AAs?$AAs?$AA?5?$AAG?$AAe?$AAn@ 00000000000d9540     UefiShellDebug1CommandsLib:QueryTable.obj
 0002:00019570       ??_C@_1CM@OKKOJJOE@?$AAP?$AAC?$AAI?$AA?5?$AAE?$AAx?$AAp?$AAr?$AAe?$AAs?$AAs?$AA?5?$AAG?$AAe?$AAn@ 00000000000d9570     UefiShellDebug1CommandsLib:QueryTable.obj
 0002:000195a0       ??_C@_1DK@JOADGCEC@?$AAP?$AAC?$AAI?$AA?5?$AAE?$AAx?$AAp?$AAr?$AAe?$AAs?$AAs?$AA?5?$AAG?$AAe?$AAn@ 00000000000d95a0     UefiShellDebug1CommandsLib:QueryTable.obj
 0002:000195e0       ??_C@_1GC@NDABHFIP@?$AAE?$AAn?$AAt?$AAe?$AAr?$AAp?$AAr?$AAi?$AAs?$AAe?$AA?5?$AAa?$AAn?$AAd?$AA?5@ 00000000000d95e0     UefiShellDebug1CommandsLib:QueryTable.obj
 0002:00019650       ??_C@_1GA@JCNJNNEM@?$AAE?$AAn?$AAt?$AAe?$AAr?$AAp?$AAr?$AAi?$AAs?$AAe?$AA?5?$AAa?$AAn?$AAd?$AA?5@ 00000000000d9650     UefiShellDebug1CommandsLib:QueryTable.obj
 0002:000196b0       ??_C@_1O@OHDAHDFF@?$AA?5?$AA8?$AA?5?$AAb?$AAi?$AAt@ 00000000000d96b0     UefiShellDebug1CommandsLib:QueryTable.obj
 0002:000196c0       ??_C@_1BA@NPIDDELO@?$AA?5?$AA1?$AA6?$AA?5?$AAb?$AAi?$AAt@ 00000000000d96c0     UefiShellDebug1CommandsLib:QueryTable.obj
 0002:000196d0       ??_C@_1BA@DNOLMLGM@?$AA?5?$AA3?$AA2?$AA?5?$AAb?$AAi?$AAt@ 00000000000d96d0     UefiShellDebug1CommandsLib:QueryTable.obj
 0002:000196e0       ??_C@_1BA@FGHFAAOB@?$AA?5?$AA6?$AA4?$AA?5?$AAb?$AAi?$AAt@ 00000000000d96e0     UefiShellDebug1CommandsLib:QueryTable.obj
 0002:000196f0       ??_C@_1BC@NEHKFBFM@?$AA?5?$AA1?$AA2?$AA8?$AA?5?$AAb?$AAi?$AAt@ 00000000000d96f0     UefiShellDebug1CommandsLib:QueryTable.obj
 0002:00019708       ??_C@_1BE@OJJKOGNM@?$AA?5?$AA1?$AAx?$AA?5?$AAo?$AAr?$AA?5?$AAx?$AA1@ 00000000000d9708     UefiShellDebug1CommandsLib:QueryTable.obj
 0002:00019720       ??_C@_1BE@BBKJJEFA@?$AA?5?$AA2?$AAx?$AA?5?$AAo?$AAr?$AA?5?$AAx?$AA2@ 00000000000d9720     UefiShellDebug1CommandsLib:QueryTable.obj
 0002:00019738       ??_C@_1BE@DKLOHHAJ@?$AA?5?$AA4?$AAx?$AA?5?$AAo?$AAr?$AA?5?$AAx?$AA4@ 00000000000d9738     UefiShellDebug1CommandsLib:QueryTable.obj
 0002:00019750       ??_C@_1BE@GMJBLBLL@?$AA?5?$AA8?$AAx?$AA?5?$AAo?$AAr?$AA?5?$AAx?$AA8@ 00000000000d9750     UefiShellDebug1CommandsLib:QueryTable.obj
 0002:00019768       ??_C@_1BI@NKIOPCBP@?$AA?5?$AA1?$AA2?$AAx?$AA?5?$AAo?$AAr?$AA?5?$AAx?$AA1?$AA2@ 00000000000d9768     UefiShellDebug1CommandsLib:QueryTable.obj
 0002:00019780       ??_C@_1BI@BLABIOBB@?$AA?5?$AA1?$AA6?$AAx?$AA?5?$AAo?$AAr?$AA?5?$AAx?$AA1?$AA6@ 00000000000d9780     UefiShellDebug1CommandsLib:QueryTable.obj
 0002:00019798       ??_C@_1BI@LJBGJKJE@?$AA?5?$AA3?$AA2?$AAx?$AA?5?$AAo?$AAr?$AA?5?$AAx?$AA3?$AA2@ 00000000000d9798     UefiShellDebug1CommandsLib:QueryTable.obj
 0002:000197b0       ??_C@_1BA@FBEBHPLI@?$AA?5?$AAO?$AAt?$AAh?$AAe?$AAr?$AAs@ 00000000000d97b0     UefiShellDebug1CommandsLib:QueryTable.obj
 0002:000197c0       ??_C@_1O@BKEPEHNA@?$AA?5?$AAG?$AAe?$AAn?$AA?5?$AA1@ 00000000000d97c0     UefiShellDebug1CommandsLib:QueryTable.obj
 0002:000197d0       ??_C@_1O@IPKOIDO@?$AA?5?$AAG?$AAe?$AAn?$AA?5?$AA2@ 00000000000d97d0     UefiShellDebug1CommandsLib:QueryTable.obj
 0002:000197e0       ??_C@_1O@LAEGIPFL@?$AA?5?$AAG?$AAe?$AAn?$AA?5?$AA3@ 00000000000d97e0     UefiShellDebug1CommandsLib:QueryTable.obj
 0002:000197f0       ??_C@_1O@CNJBLHOC@?$AA?5?$AAG?$AAe?$AAn?$AA?5?$AA4@ 00000000000d97f0     UefiShellDebug1CommandsLib:QueryTable.obj
 0002:00019800       ??_C@_1O@JFCNNAIH@?$AA?5?$AAG?$AAe?$AAn?$AA?5?$AA5@ 00000000000d9800     UefiShellDebug1CommandsLib:QueryTable.obj
 0002:00019810       ??_C@_1O@IHJIHPGJ@?$AA?5?$AAG?$AAe?$AAn?$AA?5?$AA6@ 00000000000d9810     UefiShellDebug1CommandsLib:QueryTable.obj
 0002:00019820       ??_C@_1BG@PBNCCCP@?$AA?5?$AAA?$AAv?$AAa?$AAi?$AAl?$AAa?$AAb?$AAl?$AAe@ 00000000000d9820     UefiShellDebug1CommandsLib:QueryTable.obj
 0002:00019838       ??_C@_1BA@FEJMAK@?$AA?5?$AAI?$AAn?$AA?5?$AAu?$AAs?$AAe@ 00000000000d9838     UefiShellDebug1CommandsLib:QueryTable.obj
 0002:00019848       ??_C@_1BK@CNJJOMPA@?$AA?5?$AAU?$AAn?$AAa?$AAv?$AAa?$AAi?$AAl?$AAa?$AAb?$AAl?$AAe@ 00000000000d9848     UefiShellDebug1CommandsLib:QueryTable.obj
 0002:00019868       ??_C@_1BM@PMKIHGOB@?$AA?5?$AAS?$AAh?$AAo?$AAr?$AAt?$AA?5?$AAl?$AAe?$AAn?$AAg?$AAt?$AAh@ 00000000000d9868     UefiShellDebug1CommandsLib:QueryTable.obj
 0002:00019888       ??_C@_1BK@FLOAHCMB@?$AA?5?$AAL?$AAo?$AAn?$AAg?$AA?5?$AAL?$AAe?$AAn?$AAg?$AAt?$AAh@ 00000000000d9888     UefiShellDebug1CommandsLib:QueryTable.obj
 0002:000198a8       ??_C@_1CA@HNJJEEBP@?$AA?5?$AAN?$AAo?$AAt?$AA?5?$AAa?$AAp?$AAp?$AAl?$AAi?$AAc?$AAa?$AAb?$AAl?$AAe@ 00000000000d98a8     UefiShellDebug1CommandsLib:QueryTable.obj
 0002:000198c8       ??_C@_1BA@ILKCCFOI@?$AA?5?$AAU?$AAn?$AAk?$AAo?$AAw?$AAn@ 00000000000d98c8     UefiShellDebug1CommandsLib:QueryTable.obj
 0002:000198d8       ??_C@_1BK@BOEOECO@?$AA?5?$AAF?$AAu?$AAl?$AAl?$AA?5?$AAh?$AAe?$AAi?$AAg?$AAh?$AAt@ 00000000000d98d8     UefiShellDebug1CommandsLib:QueryTable.obj
 0002:000198f8       ??_C@_1BK@KFDMMBFO@?$AA?5?$AAL?$AAo?$AAw?$AA?9?$AAP?$AAr?$AAo?$AAf?$AAi?$AAl?$AAe@ 00000000000d98f8     UefiShellDebug1CommandsLib:QueryTable.obj
 0002:00019918       ??_C@_1DC@FIGFMDLI@?$AA?5?$AAC?$AAh?$AAa?$AAr?$AAa?$AAc?$AAt?$AAe?$AAr?$AAi?$AAs?$AAt?$AAi?$AAc@ 00000000000d9918     UefiShellDebug1CommandsLib:QueryTable.obj
 0002:00019950       ??_C@_1CI@LDBECCCN@?$AA?5?$AAP?$AAr?$AAo?$AAv?$AAi?$AAd?$AAe?$AAs?$AA?5?$AA5?$AA?4?$AA0?$AA?5?$AAV@ 00000000000d9950     UefiShellDebug1CommandsLib:QueryTable.obj
 0002:00019978       ??_C@_1CI@BOPPALAK@?$AA?5?$AAP?$AAr?$AAo?$AAv?$AAi?$AAd?$AAe?$AAs?$AA?5?$AA3?$AA?4?$AA3?$AA?5?$AAV@ 00000000000d9978     UefiShellDebug1CommandsLib:QueryTable.obj
 0002:000199a0       ??_C@_1JA@EIHGPDKL@?$AA?5?$AAS?$AAl?$AAo?$AAt?$AA?8?$AAs?$AA?5?$AAo?$AAp?$AAe?$AAn?$AAi?$AAn?$AAg@ 00000000000d99a0     UefiShellDebug1CommandsLib:QueryTable.obj
 0002:00019a30       ??_C@_1EE@OIOLADMH@?$AA?5?$AAP?$AAC?$AA?5?$AAC?$AAa?$AAr?$AAd?$AA?5?$AAs?$AAl?$AAo?$AAt?$AA?5?$AAs@ 00000000000d9a30     UefiShellDebug1CommandsLib:QueryTable.obj
 0002:00019a78       ??_C@_1DO@JFEDJOOK@?$AA?5?$AAP?$AAC?$AA?5?$AAC?$AAa?$AAr?$AAd?$AA?5?$AAs?$AAl?$AAo?$AAt?$AA?5?$AAs@ 00000000000d9a78     UefiShellDebug1CommandsLib:QueryTable.obj
 0002:00019ac0       ??_C@_1EG@IEPEODDF@?$AA?5?$AAP?$AAC?$AA?5?$AAC?$AAa?$AAr?$AAd?$AA?5?$AAs?$AAl?$AAo?$AAt?$AA?5?$AAs@ 00000000000d9ac0     UefiShellDebug1CommandsLib:QueryTable.obj
 0002:00019b10       ??_C@_1FE@NEBIPEBH@?$AA?5?$AAP?$AAC?$AA?5?$AAC?$AAa?$AAr?$AAd?$AA?5?$AAs?$AAl?$AAo?$AAt?$AA?5?$AAs@ 00000000000d9b10     UefiShellDebug1CommandsLib:QueryTable.obj
 0002:00019b70       ??_C@_1HC@HOEBBJJH@?$AA?5?$AAP?$AAC?$AAI?$AA?5?$AAs?$AAl?$AAo?$AAt?$AA?5?$AAs?$AAu?$AAp?$AAp?$AAo@ 00000000000d9b70     UefiShellDebug1CommandsLib:QueryTable.obj
 0002:00019bf0       ??_C@_1EA@FECBNCMD@?$AA?5?$AAS?$AAl?$AAo?$AAt?$AA?5?$AAs?$AAu?$AAp?$AAp?$AAo?$AAr?$AAt?$AAs?$AA?5@ 00000000000d9bf0     UefiShellDebug1CommandsLib:QueryTable.obj
 0002:00019c30       ??_C@_1EA@PLBBCABB@?$AA?5?$AAP?$AAC?$AAI?$AA?5?$AAs?$AAl?$AAo?$AAt?$AA?5?$AAs?$AAu?$AAp?$AAp?$AAo@ 00000000000d9c30     UefiShellDebug1CommandsLib:QueryTable.obj
 0002:00019c70       ??_C@_1EA@JPLCNHA@?$AA?5?$AAP?$AAC?$AAI?$AAe?$AA?5?$AAs?$AAl?$AAo?$AAt?$AA?5?$AAs?$AAu?$AAp?$AAp@ 00000000000d9c70     UefiShellDebug1CommandsLib:QueryTable.obj
 0002:00019cb0       ??_C@_1EM@JFENEIHI@?$AA?5?$AAS?$AAl?$AAo?$AAt?$AA?5?$AAs?$AAu?$AAp?$AAp?$AAo?$AAr?$AAt?$AAs?$AA?5@ 00000000000d9cb0     UefiShellDebug1CommandsLib:QueryTable.obj
 0002:00019d00       ??_C@_1DO@EDOPJLBB@?$AA?5?$AAF?$AAl?$AAe?$AAx?$AAb?$AAu?$AAs?$AA?5?$AAs?$AAl?$AAo?$AAt?$AA?0?$AA?5@ 00000000000d9d00     UefiShellDebug1CommandsLib:QueryTable.obj
 0002:00019d40       ??_C@_1DO@BLPBDCDJ@?$AA?5?$AAF?$AAl?$AAe?$AAx?$AAb?$AAu?$AAs?$AA?5?$AAs?$AAl?$AAo?$AAt?$AA?0?$AA?5@ 00000000000d9d40     UefiShellDebug1CommandsLib:QueryTable.obj
 0002:00019d80       ??_C@_1BA@FIHGLAKE@?$AA?5?$AA?5?$AAV?$AAi?$AAd?$AAe?$AAo@ 00000000000d9d80     UefiShellDebug1CommandsLib:QueryTable.obj
 0002:00019d90       ??_C@_1CE@BHBIDJGK@?$AA?5?$AA?5?$AAS?$AAC?$AAS?$AAI?$AA?5?$AAC?$AAo?$AAn?$AAt?$AAr?$AAo?$AAl?$AAl@ 00000000000d9d90     UefiShellDebug1CommandsLib:QueryTable.obj
 0002:00019db8       ??_C@_1BG@BEFJKGMH@?$AA?5?$AA?5?$AAE?$AAt?$AAh?$AAe?$AAr?$AAn?$AAe?$AAt@ 00000000000d9db8     UefiShellDebug1CommandsLib:QueryTable.obj
 0002:00019dd0       ??_C@_1BK@KNKKNDDH@?$AA?5?$AA?5?$AAT?$AAo?$AAk?$AAe?$AAn?$AA?5?$AAR?$AAi?$AAn?$AAg@ 00000000000d9dd0     UefiShellDebug1CommandsLib:QueryTable.obj
 0002:00019df0       ??_C@_1BA@MABMPBIE@?$AA?5?$AA?5?$AAS?$AAo?$AAu?$AAn?$AAd@ 00000000000d9df0     UefiShellDebug1CommandsLib:QueryTable.obj
 0002:00019e00       ??_C@_1CE@KPFEECDP@?$AA?5?$AA?5?$AAP?$AAa?$AAt?$AAa?$AA?5?$AAC?$AAo?$AAn?$AAt?$AAr?$AAo?$AAl?$AAl@ 00000000000d9e00     UefiShellDebug1CommandsLib:QueryTable.obj
 0002:00019e28       ??_C@_1CE@GGELEKIA@?$AA?5?$AA?5?$AAS?$AAa?$AAt?$AAa?$AA?5?$AAC?$AAo?$AAn?$AAt?$AAr?$AAo?$AAl?$AAl@ 00000000000d9e28     UefiShellDebug1CommandsLib:QueryTable.obj
 0002:00019e50       ??_C@_1CC@IFDOBMBO@?$AA?5?$AA?5?$AAS?$AAa?$AAs?$AA?5?$AAC?$AAo?$AAn?$AAt?$AAr?$AAo?$AAl?$AAl?$AAe@ 00000000000d9e50     UefiShellDebug1CommandsLib:QueryTable.obj
 0002:00019e78       ??_C@_1BO@CHFNBEOG@?$AA?5?$AA?5?$AAW?$AAi?$AAr?$AAe?$AAl?$AAe?$AAs?$AAs?$AA?5?$AAL?$AAA?$AAN@ 00000000000d9e78     UefiShellDebug1CommandsLib:QueryTable.obj
 0002:00019e98       ??_C@_1BI@ODHIHGLH@?$AA?5?$AA?5?$AAB?$AAl?$AAu?$AAe?$AAt?$AAo?$AAo?$AAt?$AAh@ 00000000000d9e98     UefiShellDebug1CommandsLib:QueryTable.obj
 0002:00019eb0       ??_C@_1O@EAPFLEDB@?$AA?5?$AA?5?$AAW?$AAW?$AAA?$AAN@ 00000000000d9eb0     UefiShellDebug1CommandsLib:QueryTable.obj
 0002:00019ec0       ??_C@_1EE@HEBGMLIH@?$AA?5?$AA?5?$AAe?$AAm?$AAb?$AAe?$AAd?$AAd?$AAe?$AAd?$AA?5?$AAM?$AAu?$AAl?$AAt@ 00000000000d9ec0     UefiShellDebug1CommandsLib:QueryTable.obj
 0002:00019f08       ??_C@_1CE@DHCOBDNI@?$AA?5?$AA?5?$AAN?$AAV?$AAM?$AAe?$AA?5?$AAC?$AAo?$AAn?$AAt?$AAr?$AAo?$AAl?$AAl@ 00000000000d9f08     UefiShellDebug1CommandsLib:QueryTable.obj
 0002:00019f30       ??_C@_1CC@LBBPLGGM@?$AA?5?$AA?5?$AAU?$AAF?$AAS?$AA?5?$AAC?$AAo?$AAn?$AAt?$AAr?$AAo?$AAl?$AAl?$AAe@ 00000000000d9f30     UefiShellDebug1CommandsLib:QueryTable.obj
 0002:00019f58       ??_C@_1BG@EFPNDPFB@?$AA?5?$AAR?$AAe?$AAs?$AAe?$AAr?$AAv?$AAe?$AAd?$AA?4@ 00000000000d9f58     UefiShellDebug1CommandsLib:QueryTable.obj
 0002:00019f70       ??_C@_1DK@JCGEGJKI@?$AA?5?$AAS?$AAi?$AAn?$AAg?$AAl?$AAe?$AA?9?$AAb?$AAi?$AAt?$AA?5?$AAE?$AAC?$AAC@ 00000000000d9f70     UefiShellDebug1CommandsLib:QueryTable.obj
 0002:00019fb0       ??_C@_1DI@IBHOKKKH@?$AA?5?$AAM?$AAu?$AAl?$AAt?$AAi?$AA?9?$AAb?$AAi?$AAt?$AA?5?$AAE?$AAC?$AAC?$AA?5@ 00000000000d9fb0     UefiShellDebug1CommandsLib:QueryTable.obj
 0002:00019fe8       ??_C@_1CK@BJAGMCAE@?$AA?5?$AAP?$AAa?$AAr?$AAi?$AAt?$AAy?$AA?5?$AAm?$AAe?$AAm?$AAo?$AAr?$AAy?$AA?5@ 00000000000d9fe8     UefiShellDebug1CommandsLib:QueryTable.obj
 0002:0001a018       ??_C@_1BM@LOLGDEMN@?$AA?5?$AAB?$AAu?$AAs?$AA?5?$AAt?$AAi?$AAm?$AAe?$AA?9?$AAo?$AAu?$AAt@ 00000000000da018     UefiShellDebug1CommandsLib:QueryTable.obj
 0002:0001a038       ??_C@_1CG@DNBJCKBI@?$AA?5?$AAI?$AA?1?$AAO?$AA?5?$AAC?$AAh?$AAa?$AAn?$AAn?$AAe?$AAl?$AA?5?$AAC?$AAh@ 00000000000da038     UefiShellDebug1CommandsLib:QueryTable.obj
 0002:0001a060       ??_C@_1BM@HNPAJNDG@?$AA?5?$AAS?$AAo?$AAf?$AAt?$AAw?$AAa?$AAr?$AAe?$AA?5?$AAN?$AAM?$AAI@ 00000000000da060     UefiShellDebug1CommandsLib:QueryTable.obj
 0002:0001a080       ??_C@_1CI@KPDLJCME@?$AA?5?$AAP?$AAO?$AAS?$AAT?$AA?5?$AAM?$AAe?$AAm?$AAo?$AAr?$AAy?$AA?5?$AAR?$AAe@ 00000000000da080     UefiShellDebug1CommandsLib:QueryTable.obj
 0002:0001a0a8       ??_C@_1BI@KLAPKJAF@?$AA?5?$AAP?$AAO?$AAS?$AAT?$AA?5?$AAE?$AAr?$AAr?$AAo?$AAr@ 00000000000da0a8     UefiShellDebug1CommandsLib:QueryTable.obj
 0002:0001a0c0       ??_C@_1CE@NILMJPJ@?$AA?5?$AAP?$AAC?$AAI?$AA?5?$AAP?$AAa?$AAr?$AAi?$AAt?$AAy?$AA?5?$AAE?$AAr?$AAr@ 00000000000da0c0     UefiShellDebug1CommandsLib:QueryTable.obj
 0002:0001a0e8       ??_C@_1CE@OAOCDGCK@?$AA?5?$AAP?$AAC?$AAI?$AA?5?$AAS?$AAy?$AAs?$AAt?$AAe?$AAm?$AA?5?$AAE?$AAr?$AAr@ 00000000000da0e8     UefiShellDebug1CommandsLib:QueryTable.obj
 0002:0001a110       ??_C@_1BK@NNPANPFC@?$AA?5?$AAC?$AAP?$AAU?$AA?5?$AAF?$AAa?$AAi?$AAl?$AAu?$AAr?$AAe@ 00000000000da110     UefiShellDebug1CommandsLib:QueryTable.obj
 0002:0001a130       ??_C@_1DM@BDHCHFBO@?$AA?5?$AAE?$AAI?$AAS?$AAA?$AA?5?$AAF?$AAa?$AAi?$AAl?$AAS?$AAa?$AAf?$AAe?$AA?5@ 00000000000da130     UefiShellDebug1CommandsLib:QueryTable.obj
 0002:0001a170       ??_C@_1EC@CAAJHHDM@?$AA?5?$AAC?$AAo?$AAr?$AAr?$AAe?$AAc?$AAt?$AAa?$AAb?$AAl?$AAe?$AA?5?$AAm?$AAe@ 00000000000da170     UefiShellDebug1CommandsLib:QueryTable.obj
 0002:0001a1c0       ??_C@_1FI@GNDLBGGM@?$AA?5?$AAL?$AAo?$AAg?$AAg?$AAi?$AAn?$AAg?$AA?5?$AAd?$AAi?$AAs?$AAa?$AAb?$AAl@ 00000000000da1c0     UefiShellDebug1CommandsLib:QueryTable.obj
 0002:0001a218       ??_C@_1CO@OEOIIMKB@?$AA?5?$AAS?$AAy?$AAs?$AAt?$AAe?$AAm?$AA?5?$AAL?$AAi?$AAm?$AAi?$AAt?$AA?5?$AAE@ 00000000000da218     UefiShellDebug1CommandsLib:QueryTable.obj
 0002:0001a250       ??_C@_1HO@IMHBEFG@?$AA?5?$AAA?$AAs?$AAy?$AAn?$AAc?$AAh?$AAr?$AAo?$AAn?$AAo?$AAu?$AAs?$AA?5?$AAh@ 00000000000da250     UefiShellDebug1CommandsLib:QueryTable.obj
 0002:0001a2d0       ??_C@_1EE@BEEGODPM@?$AA?5?$AAS?$AAy?$AAs?$AAt?$AAe?$AAm?$AA?5?$AAc?$AAo?$AAn?$AAf?$AAi?$AAg?$AAu@ 00000000000da2d0     UefiShellDebug1CommandsLib:QueryTable.obj
 0002:0001a318       ??_C@_1CO@CAKKPLP@?$AA?5?$AAH?$AAa?$AAr?$AAd?$AA?9?$AAd?$AAi?$AAs?$AAk?$AA?5?$AAi?$AAn?$AAf?$AAo@ 00000000000da318     UefiShellDebug1CommandsLib:QueryTable.obj
 0002:0001a348       ??_C@_1CK@CGNHFMJJ@?$AA?5?$AAS?$AAy?$AAs?$AAt?$AAe?$AAm?$AA?5?$AAr?$AAe?$AAc?$AAo?$AAn?$AAf?$AAi@ 00000000000da348     UefiShellDebug1CommandsLib:QueryTable.obj
 0002:0001a380       ??_C@_1EC@CCIFCIBI@?$AA?5?$AAU?$AAn?$AAc?$AAo?$AAr?$AAr?$AAe?$AAc?$AAt?$AAa?$AAb?$AAl?$AAe?$AA?5@ 00000000000da380     UefiShellDebug1CommandsLib:QueryTable.obj
 0002:0001a3c8       ??_C@_1DA@LCIPEMME@?$AA?5?$AAL?$AAo?$AAg?$AA?5?$AAA?$AAr?$AAe?$AAa?$AA?5?$AAR?$AAe?$AAs?$AAe?$AAt@ 00000000000da3c8     UefiShellDebug1CommandsLib:QueryTable.obj
 0002:0001a3f8       ??_C@_1BK@JIKBKJOA@?$AA?5?$AAS?$AAy?$AAs?$AAt?$AAe?$AAm?$AA?5?$AAb?$AAo?$AAo?$AAt@ 00000000000da3f8     UefiShellDebug1CommandsLib:QueryTable.obj
 0002:0001a420       ??_C@_1EA@FCCFOHFH@?$AA?5?$AAU?$AAn?$AAu?$AAs?$AAe?$AAd?$AA?5?$AAb?$AAy?$AA?5?$AAS?$AAM?$AAB?$AAI@ 00000000000da420     UefiShellDebug1CommandsLib:QueryTable.obj
 0002:0001a460       ??_C@_1DE@OPAHBBEN@?$AA?5?$AAS?$AAy?$AAs?$AAt?$AAe?$AAm?$AA?5?$AAa?$AAn?$AAd?$AA?5?$AAO?$AAE?$AAM@ 00000000000da460     UefiShellDebug1CommandsLib:QueryTable.obj
 0002:0001a498       ??_C@_1BI@JIFHDPDM@?$AA?5?$AAE?$AAn?$AAd?$AA?9?$AAo?$AAf?$AA?9?$AAl?$AAo?$AAg@ 00000000000da498     UefiShellDebug1CommandsLib:QueryTable.obj
 0002:0001a4b0       ??_C@_1O@CHPEEGKN@?$AA?5?$AAN?$AAo?$AAn?$AAe?$AA?5@ 00000000000da4b0     UefiShellDebug1CommandsLib:QueryTable.obj
 0002:0001a4c0       ??_C@_1BC@OPDNBAFH@?$AA?5?$AAH?$AAa?$AAn?$AAd?$AAl?$AAe?$AA?5@ 00000000000da4c0     UefiShellDebug1CommandsLib:QueryTable.obj
 0002:0001a4d8       ??_C@_1CC@HBJFNEGG@?$AA?5?$AAM?$AAu?$AAl?$AAt?$AAi?$AAp?$AAl?$AAe?$AA?9?$AAE?$AAv?$AAe?$AAn?$AAt@ 00000000000da4d8     UefiShellDebug1CommandsLib:QueryTable.obj
 0002:0001a500       ??_C@_1DA@PMAJFMIF@?$AA?5?$AAM?$AAu?$AAl?$AAt?$AAi?$AAp?$AAl?$AAe?$AA?9?$AAE?$AAv?$AAe?$AAn?$AAt@ 00000000000da500     UefiShellDebug1CommandsLib:QueryTable.obj
 0002:0001a530       ??_C@_1CM@LNKAMACD@?$AA?5?$AAP?$AAO?$AAS?$AAT?$AA?5?$AAR?$AAe?$AAs?$AAu?$AAl?$AAt?$AAs?$AA?5?$AAB@ 00000000000da530     UefiShellDebug1CommandsLib:QueryTable.obj
 0002:0001a560       ??_C@_1DA@LMLLDOGA@?$AA?5?$AAS?$AAy?$AAs?$AAt?$AAe?$AAm?$AA?5?$AAM?$AAa?$AAn?$AAa?$AAg?$AAe?$AAm@ 00000000000da560     UefiShellDebug1CommandsLib:QueryTable.obj
 0002:0001a590       ??_C@_1FA@LOFDDJNI@?$AA?5?$AAM?$AAu?$AAl?$AAt?$AAi?$AAp?$AAl?$AAe?$AA?9?$AAE?$AAv?$AAe?$AAn?$AAt@ 00000000000da590     UefiShellDebug1CommandsLib:QueryTable.obj
 0002:0001a5e0       ??_C@_1BC@DKCPMDIL@?$AA?5?$AAU?$AAn?$AAu?$AAs?$AAe?$AAd?$AA?5@ 00000000000da5e0     UefiShellDebug1CommandsLib:QueryTable.obj
 0002:0001a5f8       ??_C@_1BO@GCNEBFHF@?$AA?5?$AAO?$AAE?$AAM?$AA?5?$AAa?$AAs?$AAs?$AAi?$AAg?$AAn?$AAe?$AAd?$AA?5@ 00000000000da5f8     UefiShellDebug1CommandsLib:QueryTable.obj
 0002:0001a618       ??_C@_1DA@NBEBMC@?$AA?5?$AAC?$AAh?$AAa?$AAn?$AAn?$AAe?$AAl?$AA?5?$AA2?$AA?5?$AAT?$AAi?$AAm?$AAe@ 00000000000da618     UefiShellDebug1CommandsLib:QueryTable.obj
 0002:0001a648       ??_C@_1DK@MDGFNBLI@?$AA?5?$AAM?$AAa?$AAs?$AAt?$AAe?$AAr?$AA?5?$AAP?$AAI?$AAC?$AA?5?$AA?$CI?$AA8?$AA2@ 00000000000da648     UefiShellDebug1CommandsLib:QueryTable.obj
 0002:0001a688       ??_C@_1DI@OMKGLDAO@?$AA?5?$AAS?$AAl?$AAa?$AAv?$AAe?$AA?5?$AAP?$AAI?$AAC?$AA?5?$AA?$CI?$AA8?$AA2?$AA5@ 00000000000da688     UefiShellDebug1CommandsLib:QueryTable.obj
 0002:0001a6c0       ??_C@_1CO@JBMKMEBD@?$AA?5?$AAC?$AAM?$AAO?$AAS?$AA?5?$AAB?$AAa?$AAt?$AAt?$AAe?$AAr?$AAy?$AA?5?$AAF@ 00000000000da6c0     UefiShellDebug1CommandsLib:QueryTable.obj
 0002:0001a6f0       ??_C@_1DM@EBIMHGJG@?$AA?5?$AAC?$AAM?$AAO?$AAS?$AA?5?$AAS?$AAy?$AAs?$AAt?$AAe?$AAm?$AA?5?$AAO?$AAp@ 00000000000da6f0     UefiShellDebug1CommandsLib:QueryTable.obj
 0002:0001a730       ??_C@_1CM@CFJBDCNB@?$AA?5?$AAC?$AAM?$AAO?$AAS?$AA?5?$AAC?$AAh?$AAe?$AAc?$AAk?$AAs?$AAu?$AAm?$AA?5@ 00000000000da730     UefiShellDebug1CommandsLib:QueryTable.obj
 0002:0001a760       ??_C@_1DG@HFAODPMF@?$AA?5?$AAC?$AAM?$AAO?$AAS?$AA?5?$AAC?$AAo?$AAn?$AAf?$AAi?$AAg?$AAu?$AAr?$AAa@ 00000000000da760     UefiShellDebug1CommandsLib:QueryTable.obj
 0002:0001a798       ??_C@_1DK@CKOKNKLD@?$AA?5?$AAM?$AAo?$AAu?$AAs?$AAe?$AA?5?$AAa?$AAn?$AAd?$AA?5?$AAK?$AAe?$AAy?$AAb@ 00000000000da798     UefiShellDebug1CommandsLib:QueryTable.obj
 0002:0001a7d8       ??_C@_1CE@HKNJNPPA@?$AA?5?$AAK?$AAe?$AAy?$AAb?$AAo?$AAa?$AAr?$AAd?$AA?5?$AAL?$AAo?$AAc?$AAk?$AAe@ 00000000000da7d8     UefiShellDebug1CommandsLib:QueryTable.obj
 0002:0001a800       ??_C@_1DE@JPJEMPHC@?$AA?5?$AAK?$AAe?$AAy?$AAb?$AAo?$AAa?$AAr?$AAd?$AA?5?$AAN?$AAo?$AAt?$AA?5?$AAF@ 00000000000da800     UefiShellDebug1CommandsLib:QueryTable.obj
 0002:0001a840       ??_C@_1EK@EKBKHGAD@?$AA?5?$AAK?$AAe?$AAy?$AAb?$AAo?$AAa?$AAr?$AAd?$AA?5?$AAC?$AAo?$AAn?$AAt?$AAr@ 00000000000da840     UefiShellDebug1CommandsLib:QueryTable.obj
 0002:0001a890       ??_C@_1DK@CMPKGMCK@?$AA?5?$AAC?$AAM?$AAO?$AAS?$AA?5?$AAM?$AAe?$AAm?$AAo?$AAr?$AAy?$AA?5?$AAS?$AAi@ 00000000000da890     UefiShellDebug1CommandsLib:QueryTable.obj
 0002:0001a8d0       ??_C@_1DG@PLLDHOLJ@?$AA?5?$AAM?$AAe?$AAm?$AAo?$AAr?$AAy?$AA?5?$AAD?$AAe?$AAc?$AAr?$AAe?$AAa?$AAs@ 00000000000da8d0     UefiShellDebug1CommandsLib:QueryTable.obj
 0002:0001a908       ??_C@_1CK@BIEBBIJC@?$AA?5?$AAC?$AAa?$AAc?$AAh?$AAe?$AA?5?$AAM?$AAe?$AAm?$AAo?$AAr?$AAy?$AA?5?$AAE@ 00000000000da908     UefiShellDebug1CommandsLib:QueryTable.obj
 0002:0001a938       ??_C@_1CO@GBFPKAEB@?$AA?5?$AAF?$AAl?$AAo?$AAp?$AAp?$AAy?$AA?5?$AAD?$AAr?$AAi?$AAv?$AAe?$AA?5?$AA0@ 00000000000da938     UefiShellDebug1CommandsLib:QueryTable.obj
 0002:0001a968       ??_C@_1CO@IOANBGKA@?$AA?5?$AAF?$AAl?$AAo?$AAp?$AAp?$AAy?$AA?5?$AAD?$AAr?$AAi?$AAv?$AAe?$AA?5?$AA1@ 00000000000da968     UefiShellDebug1CommandsLib:QueryTable.obj
 0002:0001a998       ??_C@_1DI@LGDKDBKC@?$AA?5?$AAF?$AAl?$AAo?$AAp?$AAp?$AAy?$AA?5?$AAC?$AAo?$AAn?$AAt?$AAr?$AAo?$AAl@ 00000000000da998     UefiShellDebug1CommandsLib:QueryTable.obj
 0002:0001a9d0       ??_C@_1EK@JGAKCFFG@?$AA?5?$AAN?$AAu?$AAm?$AAb?$AAe?$AAr?$AA?5?$AAo?$AAf?$AA?5?$AAA?$AAT?$AAA?$AA?5@ 00000000000da9d0     UefiShellDebug1CommandsLib:QueryTable.obj
 0002:0001aa20       ??_C@_1CI@JHKILACA@?$AA?5?$AAC?$AAM?$AAO?$AAS?$AA?5?$AAT?$AAi?$AAm?$AAe?$AA?5?$AAN?$AAo?$AAt?$AA?5@ 00000000000daa20     UefiShellDebug1CommandsLib:QueryTable.obj
 0002:0001aa50       ??_C@_1EG@CBFNBNLB@?$AA?5?$AAD?$AAD?$AAC?$AA?5?$AAM?$AAo?$AAn?$AAi?$AAt?$AAo?$AAr?$AA?5?$AAC?$AAo@ 00000000000daa50     UefiShellDebug1CommandsLib:QueryTable.obj
 0002:0001aa98       ??_C@_1CK@FFBDJGID@?$AA?5?$AAR?$AAe?$AAs?$AAe?$AAr?$AAv?$AAe?$AAd?$AA?0?$AA?5?$AAs?$AAe?$AAt?$AA?5@ 00000000000daa98     UefiShellDebug1CommandsLib:QueryTable.obj
 0002:0001aac8       ??_C@_1DM@CMAAJKDK@?$AA?5?$AAS?$AAe?$AAc?$AAo?$AAn?$AAd?$AA?5?$AAD?$AAW?$AAO?$AAR?$AAD?$AA?5?$AAh@ 00000000000daac8     UefiShellDebug1CommandsLib:QueryTable.obj
 0002:0001ab10       ??_C@_1FG@DJMHBPCE@?$AA?5?$AAN?$AAo?$AAr?$AAm?$AAa?$AAl?$AAl?$AAy?$AA?5?$AA0?$AA?$DL?$AA?5?$AAa?$AAv@ 00000000000dab10     UefiShellDebug1CommandsLib:QueryTable.obj
 0002:0001ab68       ??_C@_1CM@PPAOHOBI@?$AA?5?$AAP?$AAC?$AAI?$AA?5?$AAM?$AAe?$AAm?$AAo?$AAr?$AAy?$AA?5?$AAC?$AAo?$AAn@ 00000000000dab68     UefiShellDebug1CommandsLib:QueryTable.obj
 0002:0001ab98       ??_C@_1CG@NOODKEAF@?$AA?5?$AAP?$AAC?$AAI?$AA?5?$AAI?$AA?1?$AAO?$AA?5?$AAC?$AAo?$AAn?$AAf?$AAl?$AAi@ 00000000000dab98     UefiShellDebug1CommandsLib:QueryTable.obj
 0002:0001abc0       ??_C@_1CG@LKEFCEMJ@?$AA?5?$AAP?$AAC?$AAI?$AA?5?$AAI?$AAR?$AAQ?$AA?5?$AAC?$AAo?$AAn?$AAf?$AAl?$AAi@ 00000000000dabc0     UefiShellDebug1CommandsLib:QueryTable.obj
 0002:0001abe8       ??_C@_1CM@HFODNKGG@?$AA?5?$AAP?$AAN?$AAP?$AA?5?$AAM?$AAe?$AAm?$AAo?$AAr?$AAy?$AA?5?$AAC?$AAo?$AAn@ 00000000000dabe8     UefiShellDebug1CommandsLib:QueryTable.obj
 0002:0001ac18       ??_C@_1DK@ICOLDMIM@?$AA?5?$AAP?$AAN?$AAP?$AA?5?$AA3?$AA2?$AA?5?$AAb?$AAi?$AAt?$AA?5?$AAM?$AAe?$AAm@ 00000000000dac18     UefiShellDebug1CommandsLib:QueryTable.obj
 0002:0001ac58       ??_C@_1CG@JIJMGBAN@?$AA?5?$AAP?$AAN?$AAP?$AA?5?$AAI?$AA?1?$AAO?$AA?5?$AAC?$AAo?$AAn?$AAf?$AAl?$AAi@ 00000000000dac58     UefiShellDebug1CommandsLib:QueryTable.obj
 0002:0001ac80       ??_C@_1CG@PMDKOBMB@?$AA?5?$AAP?$AAN?$AAP?$AA?5?$AAI?$AAR?$AAQ?$AA?5?$AAC?$AAo?$AAn?$AAf?$AAl?$AAi@ 00000000000dac80     UefiShellDebug1CommandsLib:QueryTable.obj
 0002:0001aca8       ??_C@_1CG@KOCEHCJP@?$AA?5?$AAP?$AAN?$AAP?$AA?5?$AAD?$AAM?$AAA?$AA?5?$AAC?$AAo?$AAn?$AAf?$AAl?$AAi@ 00000000000daca8     UefiShellDebug1CommandsLib:QueryTable.obj
 0002:0001acd0       ??_C@_1DK@ICHJHDMD@?$AA?5?$AAB?$AAa?$AAd?$AA?5?$AAP?$AAN?$AAP?$AA?5?$AAS?$AAe?$AAr?$AAi?$AAa?$AAl@ 00000000000dacd0     UefiShellDebug1CommandsLib:QueryTable.obj
 0002:0001ad10       ??_C@_1EC@PMGMKMCF@?$AA?5?$AAB?$AAa?$AAd?$AA?5?$AAP?$AAN?$AAP?$AA?5?$AAR?$AAe?$AAs?$AAo?$AAu?$AAr@ 00000000000dad10     UefiShellDebug1CommandsLib:QueryTable.obj
 0002:0001ad58       ??_C@_1DG@NHJNPFDG@?$AA?5?$AAS?$AAt?$AAa?$AAt?$AAi?$AAc?$AA?5?$AAR?$AAe?$AAs?$AAo?$AAu?$AAr?$AAc@ 00000000000dad58     UefiShellDebug1CommandsLib:QueryTable.obj
 0002:0001ad90       ??_C@_1EM@LDBJBBDL@?$AA?5?$AAN?$AAV?$AAR?$AAA?$AAM?$AA?5?$AAC?$AAh?$AAe?$AAc?$AAk?$AAs?$AAu?$AAm@ 00000000000dad90     UefiShellDebug1CommandsLib:QueryTable.obj
 0002:0001ade0       ??_C@_1FA@DKGFJHHI@?$AA?5?$AAS?$AAy?$AAs?$AAt?$AAe?$AAm?$AA?5?$AAB?$AAo?$AAa?$AAr?$AAd?$AA?5?$AAD@ 00000000000dade0     UefiShellDebug1CommandsLib:QueryTable.obj
 0002:0001ae30       ??_C@_1EE@FMMJPMEL@?$AA?5?$AAP?$AAr?$AAi?$AAm?$AAa?$AAr?$AAy?$AA?5?$AAO?$AAu?$AAt?$AAp?$AAu?$AAt@ 00000000000dae30     UefiShellDebug1CommandsLib:QueryTable.obj
 0002:0001ae80       ??_C@_1EC@GAAMAAKE@?$AA?5?$AAP?$AAr?$AAi?$AAm?$AAa?$AAr?$AAy?$AA?5?$AAI?$AAn?$AAp?$AAu?$AAt?$AA?5@ 00000000000dae80     UefiShellDebug1CommandsLib:QueryTable.obj
 0002:0001aed0       ??_C@_1EA@GJDFNHMM@?$AA?5?$AAP?$AAr?$AAi?$AAm?$AAa?$AAr?$AAy?$AA?5?$AAB?$AAo?$AAo?$AAt?$AA?5?$AAD@ 00000000000daed0     UefiShellDebug1CommandsLib:QueryTable.obj
 0002:0001af10       ??_C@_1DE@KJEMOHJI@?$AA?5?$AAN?$AAV?$AAR?$AAA?$AAM?$AA?5?$AAC?$AAl?$AAe?$AAa?$AAr?$AAe?$AAd?$AA?5@ 00000000000daf10     UefiShellDebug1CommandsLib:QueryTable.obj
 0002:0001af50       ??_C@_1EI@GEEBAM@?$AA?5?$AAN?$AAV?$AAR?$AAA?$AAM?$AA?5?$AAD?$AAa?$AAt?$AAa?$AA?5?$AAI?$AAn?$AAv@ 00000000000daf50     UefiShellDebug1CommandsLib:QueryTable.obj
 0002:0001af98       ??_C@_1DA@HOECFJC@?$AA?5?$AAF?$AAD?$AAC?$AA?5?$AAR?$AAe?$AAs?$AAo?$AAu?$AAr?$AAc?$AAe?$AA?5?$AAC@ 00000000000daf98     UefiShellDebug1CommandsLib:QueryTable.obj
 0002:0001afd0       ??_C@_1FG@KFIMMFIG@?$AA?5?$AAP?$AAr?$AAi?$AAm?$AAa?$AAr?$AAy?$AA?5?$AAA?$AAT?$AAA?$AA?5?$AAC?$AAo@ 00000000000dafd0     UefiShellDebug1CommandsLib:QueryTable.obj
 0002:0001b030       ??_C@_1FK@INNONJPP@?$AA?5?$AAS?$AAe?$AAc?$AAo?$AAn?$AAd?$AAa?$AAr?$AAy?$AA?5?$AAA?$AAT?$AAA?$AA?5@ 00000000000db030     UefiShellDebug1CommandsLib:QueryTable.obj
 0002:0001b090       ??_C@_1EE@PKJNLPOF@?$AA?5?$AAP?$AAa?$AAr?$AAa?$AAl?$AAl?$AAe?$AAl?$AA?5?$AAP?$AAo?$AAr?$AAt?$AA?5@ 00000000000db090     UefiShellDebug1CommandsLib:QueryTable.obj
 0002:0001b0e0       ??_C@_1EE@PGOIOJ@?$AA?5?$AAS?$AAe?$AAr?$AAi?$AAa?$AAl?$AA?5?$AAP?$AAo?$AAr?$AAt?$AA?5?$AA1?$AA?5@ 00000000000db0e0     UefiShellDebug1CommandsLib:QueryTable.obj
 0002:0001b130       ??_C@_1EE@DIMNGDJK@?$AA?5?$AAS?$AAe?$AAr?$AAi?$AAa?$AAl?$AA?5?$AAP?$AAo?$AAr?$AAt?$AA?5?$AA2?$AA?5@ 00000000000db130     UefiShellDebug1CommandsLib:QueryTable.obj
 0002:0001b178       ??_C@_1DE@BGAKOGJM@?$AA?5?$AAA?$AAu?$AAd?$AAi?$AAo?$AA?5?$AAR?$AAe?$AAs?$AAo?$AAu?$AAr?$AAc?$AAe@ 00000000000db178     UefiShellDebug1CommandsLib:QueryTable.obj
 0002:0001b1b0       ??_C@_1DC@IAGLGMGH@?$AA?5?$AA?$CL?$AA2?$AA?4?$AA5?$AAV?$AA?5?$AAO?$AAu?$AAt?$AA?5?$AAo?$AAf?$AA?5?$AAr@ 00000000000db1b0     UefiShellDebug1CommandsLib:QueryTable.obj
 0002:0001b1e8       ??_C@_1CK@ICLNCCPK@?$AA?5?$AA?$CL?$AA3?$AA?4?$AA3?$AAV?$AA?5?$AAO?$AAu?$AAt?$AA?5?$AAo?$AAf?$AA?5?$AAr@ 00000000000db1e8     UefiShellDebug1CommandsLib:QueryTable.obj
 0002:0001b218       ??_C@_1CG@DEEAOKBI@?$AA?5?$AA?$CL?$AA5?$AAV?$AA?5?$AAO?$AAu?$AAt?$AA?5?$AAo?$AAf?$AA?5?$AAr?$AAa?$AAn@ 00000000000db218     UefiShellDebug1CommandsLib:QueryTable.obj
 0002:0001b240       ??_C@_1CG@PNIABNOE@?$AA?5?$AA?9?$AA5?$AAV?$AA?5?$AAO?$AAu?$AAt?$AA?5?$AAo?$AAf?$AA?5?$AAr?$AAa?$AAn@ 00000000000db240     UefiShellDebug1CommandsLib:QueryTable.obj
 0002:0001b268       ??_C@_1CI@BCJNHMMN@?$AA?5?$AA?$CL?$AA1?$AA2?$AAV?$AA?5?$AAO?$AAu?$AAt?$AA?5?$AAo?$AAf?$AA?5?$AAr?$AAa@ 00000000000db268     UefiShellDebug1CommandsLib:QueryTable.obj
 0002:0001b290       ??_C@_1CI@IJENHMAD@?$AA?5?$AA?9?$AA1?$AA2?$AAV?$AA?5?$AAO?$AAu?$AAt?$AA?5?$AAo?$AAf?$AA?5?$AAr?$AAa@ 00000000000db290     UefiShellDebug1CommandsLib:QueryTable.obj
 0002:0001b2c0       ??_C@_1GE@JBKBBPKI@?$AA?5?$AAR?$AAe?$AAs?$AAe?$AAr?$AAv?$AAe?$AAd?$AA?5?$AAf?$AAo?$AAr?$AA?5?$AAf@ 00000000000db2c0     UefiShellDebug1CommandsLib:QueryTable.obj
 0002:0001b330       ??_C@_1FA@HGMMHNHG@?$AA?5?$AAS?$AAy?$AAs?$AAt?$AAe?$AAm?$AA?5?$AAb?$AAo?$AAa?$AAr?$AAd?$AA?5?$AAt@ 00000000000db330     UefiShellDebug1CommandsLib:QueryTable.obj
 0002:0001b380       ??_C@_1FA@KAOLJIMF@?$AA?5?$AAP?$AAr?$AAo?$AAc?$AAe?$AAs?$AAs?$AAo?$AAr?$AA?5?$AA?$CD?$AA1?$AA?5?$AAt@ 00000000000db380     UefiShellDebug1CommandsLib:QueryTable.obj
 0002:0001b3d0       ??_C@_1FA@IGFEKMLM@?$AA?5?$AAP?$AAr?$AAo?$AAc?$AAe?$AAs?$AAs?$AAo?$AAr?$AA?5?$AA?$CD?$AA2?$AA?5?$AAt@ 00000000000db3d0     UefiShellDebug1CommandsLib:QueryTable.obj
 0002:0001b420       ??_C@_1FA@JLMBLPGL@?$AA?5?$AAP?$AAr?$AAo?$AAc?$AAe?$AAs?$AAs?$AAo?$AAr?$AA?5?$AA?$CD?$AA3?$AA?5?$AAt@ 00000000000db420     UefiShellDebug1CommandsLib:QueryTable.obj
 0002:0001b470       ??_C@_1FA@MLCKMEEO@?$AA?5?$AAP?$AAr?$AAo?$AAc?$AAe?$AAs?$AAs?$AAo?$AAr?$AA?5?$AA?$CD?$AA4?$AA?5?$AAt@ 00000000000db470     UefiShellDebug1CommandsLib:QueryTable.obj
 0002:0001b4c0       ??_C@_1FO@MFGCMAGN@?$AA?5?$AAR?$AAe?$AAs?$AAe?$AAr?$AAv?$AAe?$AAd?$AA?5?$AAf?$AAo?$AAr?$AA?5?$AAf@ 00000000000db4c0     UefiShellDebug1CommandsLib:QueryTable.obj
 0002:0001b520       ??_C@_1EE@ICMOCLLI@?$AA?5?$AAF?$AAa?$AAn?$AA?5?$AAn?$AA?5?$AA?$CI?$AAn?$AA?5?$AA?$DN?$AA?5?$AA0?$AA?5?$AAt@ 00000000000db520     UefiShellDebug1CommandsLib:QueryTable.obj
 0002:0001b570       ??_C@_1HA@PEJDPOEJ@?$AA?5?$AAR?$AAe?$AAs?$AAe?$AAr?$AAv?$AAe?$AAd?$AA?5?$AAf?$AAo?$AAr?$AA?5?$AAf@ 00000000000db570     UefiShellDebug1CommandsLib:QueryTable.obj
 0002:0001b5e0       ??_C@_1EE@DEEIHEFI@?$AA?5?$AAC?$AAh?$AAa?$AAs?$AAs?$AAi?$AAs?$AA?5?$AAs?$AAe?$AAc?$AAu?$AAr?$AAe@ 00000000000db5e0     UefiShellDebug1CommandsLib:QueryTable.obj
 0002:0001b628       ??_C@_1DM@HPAFAGAE@?$AA?5?$AA?5?$AAS?$AAy?$AAs?$AAt?$AAe?$AAm?$AA?5?$AAb?$AAo?$AAa?$AAr?$AAd?$AA?5@ 00000000000db628     UefiShellDebug1CommandsLib:QueryTable.obj
 0002:0001b668       ??_C@_1CE@NLFGMECH@?$AA?5?$AA?5?$AAI?$AAS?$AAA?$AA?5?$AAa?$AAd?$AAd?$AA?9?$AAo?$AAn?$AA?5?$AAc?$AAa@ 00000000000db668     UefiShellDebug1CommandsLib:QueryTable.obj
 0002:0001b690       ??_C@_1CG@PCDCENPO@?$AA?5?$AA?5?$AAE?$AAI?$AAS?$AAA?$AA?5?$AAa?$AAd?$AAd?$AA?9?$AAo?$AAn?$AA?5?$AAc@ 00000000000db690     UefiShellDebug1CommandsLib:QueryTable.obj
 0002:0001b6b8       ??_C@_1CE@KJICEPNK@?$AA?5?$AA?5?$AAP?$AAC?$AAI?$AA?5?$AAa?$AAd?$AAd?$AA?9?$AAo?$AAn?$AA?5?$AAc?$AAa@ 00000000000db6b8     UefiShellDebug1CommandsLib:QueryTable.obj
 0002:0001b6e0       ??_C@_1CE@NKDAOCAP@?$AA?5?$AA?5?$AAM?$AAC?$AAA?$AA?5?$AAa?$AAd?$AAd?$AA?9?$AAo?$AAn?$AA?5?$AAc?$AAa@ 00000000000db6e0     UefiShellDebug1CommandsLib:QueryTable.obj
 0002:0001b708       ??_C@_1CK@HOJEJHAA@?$AA?5?$AA?5?$AAP?$AAC?$AAM?$AAC?$AAI?$AAA?$AA?5?$AAa?$AAd?$AAd?$AA?9?$AAo?$AAn@ 00000000000db708     UefiShellDebug1CommandsLib:QueryTable.obj
 0002:0001b738       ??_C@_1DE@KNOJLAHG@?$AA?5?$AA?5?$AAP?$AAr?$AAo?$AAp?$AAr?$AAi?$AAe?$AAt?$AAa?$AAr?$AAy?$AA?5?$AAa@ 00000000000db738     UefiShellDebug1CommandsLib:QueryTable.obj
 0002:0001b770       ??_C@_1BA@EJPAMLKN@?$AA?5?$AA?5?$AAN?$AAu?$AAB?$AAu?$AAs@ 00000000000db770     UefiShellDebug1CommandsLib:QueryTable.obj
 0002:0001b780       ??_C@_1DA@JGMAKOJM@?$AA?5?$AA?5?$AAP?$AAC?$AA?9?$AA9?$AA8?$AA?1?$AAC?$AA2?$AA0?$AA?5?$AAa?$AAd?$AAd@ 00000000000db780     UefiShellDebug1CommandsLib:QueryTable.obj
 0002:0001b7b0       ??_C@_1DA@JABHFKOI@?$AA?5?$AA?5?$AAP?$AAC?$AA?9?$AA9?$AA8?$AA?1?$AAC?$AA2?$AA4?$AA?5?$AAa?$AAd?$AAd@ 00000000000db7b0     UefiShellDebug1CommandsLib:QueryTable.obj
 0002:0001b7e0       ??_C@_1CM@PAIFDJEG@?$AA?5?$AA?5?$AAP?$AAC?$AA?9?$AA9?$AA8?$AA?1?$AAE?$AA?5?$AAa?$AAd?$AAd?$AA?9?$AAo@ 00000000000db7e0     UefiShellDebug1CommandsLib:QueryTable.obj
 0002:0001b810       ??_C@_1DM@OAOMGOEC@?$AA?5?$AA?5?$AAP?$AAC?$AA?9?$AA9?$AA8?$AA?1?$AAL?$AAo?$AAc?$AAa?$AAl?$AA?5?$AAb@ 00000000000db810     UefiShellDebug1CommandsLib:QueryTable.obj
 0002:0001b850       ??_C@_1CE@HGJNCHPO@?$AA?5?$AA?5?$AAC?$AAX?$AAL?$AA?5?$AAa?$AAd?$AAd?$AA?9?$AAo?$AAn?$AA?5?$AAc?$AAa@ 00000000000db850     UefiShellDebug1CommandsLib:QueryTable.obj
 0002:0001b878       ??_C@_1BO@IAEEFDAC@?$AA?5?$AAS?$AAy?$AAs?$AAt?$AAe?$AAm?$AA?5?$AAm?$AAe?$AAm?$AAo?$AAr?$AAy@ 00000000000db878     UefiShellDebug1CommandsLib:QueryTable.obj
 0002:0001b898       ??_C@_1BM@HJOIBICI@?$AA?5?$AAV?$AAi?$AAd?$AAe?$AAo?$AA?5?$AAm?$AAe?$AAm?$AAo?$AAr?$AAy@ 00000000000db898     UefiShellDebug1CommandsLib:QueryTable.obj
 0002:0001b8b8       ??_C@_1BM@PFNLHDHM@?$AA?5?$AAF?$AAl?$AAa?$AAs?$AAh?$AA?5?$AAm?$AAe?$AAm?$AAo?$AAr?$AAy@ 00000000000db8b8     UefiShellDebug1CommandsLib:QueryTable.obj
 0002:0001b8d8       ??_C@_1CE@JDMOKCLL@?$AA?5?$AAN?$AAo?$AAn?$AA?9?$AAv?$AAo?$AAl?$AAa?$AAt?$AAi?$AAl?$AAe?$AA?5?$AAR@ 00000000000db8d8     UefiShellDebug1CommandsLib:QueryTable.obj
 0002:0001b900       ??_C@_1BM@NDDLCMF@?$AA?5?$AAC?$AAa?$AAc?$AAh?$AAe?$AA?5?$AAm?$AAe?$AAm?$AAo?$AAr?$AAy@ 00000000000db900     UefiShellDebug1CommandsLib:QueryTable.obj
 0002:0001b920       ??_C@_1O@EMKPMJAH@?$AA?5?$AA?5?$AAN?$AAo?$AAn?$AAe@ 00000000000db920     UefiShellDebug1CommandsLib:QueryTable.obj
 0002:0001b930       ??_C@_1BC@PNPNFGPB@?$AA?5?$AA?5?$AAP?$AAa?$AAr?$AAi?$AAt?$AAy@ 00000000000db930     UefiShellDebug1CommandsLib:QueryTable.obj
 0002:0001b948       ??_C@_1CC@OENHAGLD@?$AA?5?$AA?5?$AAS?$AAi?$AAn?$AAg?$AAl?$AAe?$AA?9?$AAb?$AAi?$AAt?$AA?5?$AAE?$AAC@ 00000000000db948     UefiShellDebug1CommandsLib:QueryTable.obj
 0002:0001b970       ??_C@_1CA@EOEBJDPB@?$AA?5?$AA?5?$AAM?$AAu?$AAl?$AAt?$AAi?$AA?9?$AAb?$AAi?$AAt?$AA?5?$AAE?$AAC?$AAC@ 00000000000db970     UefiShellDebug1CommandsLib:QueryTable.obj
 0002:0001b990       ??_C@_1M@LMLDHKJJ@?$AA?5?$AA?5?$AAC?$AAR?$AAC@ 00000000000db990     UefiShellDebug1CommandsLib:QueryTable.obj
 0002:0001b9a0       ??_C@_1O@EFFIFIMH@?$AA?5?$AA?5?$AAS?$AAI?$AAM?$AAM@ 00000000000db9a0     UefiShellDebug1CommandsLib:QueryTable.obj
 0002:0001b9b0       ??_C@_1M@OLLFEBJL@?$AA?5?$AA?5?$AAS?$AAI?$AAP@ 00000000000db9b0     UefiShellDebug1CommandsLib:QueryTable.obj
 0002:0001b9c0       ??_C@_1O@MJFGNMLL@?$AA?5?$AA?5?$AAC?$AAh?$AAi?$AAp@ 00000000000db9c0     UefiShellDebug1CommandsLib:QueryTable.obj
 0002:0001b9d0       ??_C@_1M@JNMLHJKJ@?$AA?5?$AA?5?$AAD?$AAI?$AAP@ 00000000000db9d0     UefiShellDebug1CommandsLib:QueryTable.obj
 0002:0001b9e0       ??_C@_1M@PEPKFKLA@?$AA?5?$AA?5?$AAZ?$AAI?$AAP@ 00000000000db9e0     UefiShellDebug1CommandsLib:QueryTable.obj
 0002:0001b9f0       ??_C@_1CG@EDGBPDJH@?$AA?5?$AA?5?$AAP?$AAr?$AAo?$AAp?$AAr?$AAi?$AAe?$AAt?$AAa?$AAr?$AAy?$AA?5?$AAC@ 00000000000db9f0     UefiShellDebug1CommandsLib:QueryTable.obj
 0002:0001ba18       ??_C@_1O@IACKMCFG@?$AA?5?$AA?5?$AAD?$AAI?$AAM?$AAM@ 00000000000dba18     UefiShellDebug1CommandsLib:QueryTable.obj
 0002:0001ba28       ??_C@_1O@KFEEEABE@?$AA?5?$AA?5?$AAT?$AAS?$AAO?$AAP@ 00000000000dba28     UefiShellDebug1CommandsLib:QueryTable.obj
 0002:0001ba38       ??_C@_1BO@GKLCEEAO@?$AA?5?$AA?5?$AAR?$AAo?$AAw?$AA?5?$AAo?$AAf?$AA?5?$AAc?$AAh?$AAi?$AAp?$AAs@ 00000000000dba38     UefiShellDebug1CommandsLib:QueryTable.obj
 0002:0001ba58       ??_C@_1O@KKJKDDPJ@?$AA?5?$AA?5?$AAR?$AAI?$AAM?$AAM@ 00000000000dba58     UefiShellDebug1CommandsLib:QueryTable.obj
 0002:0001ba68       ??_C@_1BC@LADLNCHG@?$AA?5?$AA?5?$AAS?$AAO?$AAD?$AAI?$AAM?$AAM@ 00000000000dba68     UefiShellDebug1CommandsLib:QueryTable.obj
 0002:0001ba80       ??_C@_1BA@NDHBCJBC@?$AA?5?$AA?5?$AAS?$AAR?$AAI?$AAM?$AAM@ 00000000000dba80     UefiShellDebug1CommandsLib:QueryTable.obj
 0002:0001ba90       ??_C@_1BE@JHANBNFD@?$AA?5?$AA?5?$AAF?$AAB?$AA?9?$AAD?$AAI?$AAM?$AAM@ 00000000000dba90     UefiShellDebug1CommandsLib:QueryTable.obj
 0002:0001baa8       ??_C@_1M@FNJCHEAM@?$AA?5?$AA?5?$AAD?$AAi?$AAe@ 00000000000dbaa8     UefiShellDebug1CommandsLib:QueryTable.obj
 0002:0001bab8       ??_C@_1O@NGDJCPFA@?$AA?5?$AA?5?$AAD?$AAR?$AAA?$AAM@ 00000000000dbab8     UefiShellDebug1CommandsLib:QueryTable.obj
 0002:0001bac8       ??_C@_1BA@EMPHHNKH@?$AA?5?$AA?5?$AAE?$AAD?$AAR?$AAA?$AAM@ 00000000000dbac8     UefiShellDebug1CommandsLib:QueryTable.obj
 0002:0001bad8       ??_C@_1O@PFGCHOIF@?$AA?5?$AA?5?$AAV?$AAR?$AAA?$AAM@ 00000000000dbad8     UefiShellDebug1CommandsLib:QueryTable.obj
 0002:0001bae8       ??_C@_1O@BDELLFMB@?$AA?5?$AA?5?$AAS?$AAR?$AAA?$AAM@ 00000000000dbae8     UefiShellDebug1CommandsLib:QueryTable.obj
 0002:0001baf8       ??_C@_1M@GJDPEMCK@?$AA?5?$AA?5?$AAR?$AAA?$AAM@ 00000000000dbaf8     UefiShellDebug1CommandsLib:QueryTable.obj
 0002:0001bb08       ??_C@_1M@FDDFCNFK@?$AA?5?$AA?5?$AAR?$AAO?$AAM@ 00000000000dbb08     UefiShellDebug1CommandsLib:QueryTable.obj
 0002:0001bb18       ??_C@_1BA@KDEKIKMJ@?$AA?5?$AA?5?$AAF?$AAL?$AAA?$AAS?$AAH@ 00000000000dbb18     UefiShellDebug1CommandsLib:QueryTable.obj
 0002:0001bb28       ??_C@_1BC@IGCAOACJ@?$AA?5?$AA?5?$AAE?$AAE?$AAP?$AAR?$AAO?$AAM@ 00000000000dbb28     UefiShellDebug1CommandsLib:QueryTable.obj
 0002:0001bb40       ??_C@_1BC@PKEBMFPC@?$AA?5?$AA?5?$AAF?$AAE?$AAP?$AAR?$AAO?$AAM@ 00000000000dbb40     UefiShellDebug1CommandsLib:QueryTable.obj
 0002:0001bb58       ??_C@_1BA@FILIDNEF@?$AA?5?$AA?5?$AAE?$AAP?$AAR?$AAO?$AAM@ 00000000000dbb58     UefiShellDebug1CommandsLib:QueryTable.obj
 0002:0001bb68       ??_C@_1BA@KDMKNIEH@?$AA?5?$AA?5?$AAC?$AAD?$AAR?$AAA?$AAM@ 00000000000dbb68     UefiShellDebug1CommandsLib:QueryTable.obj
 0002:0001bb78       ??_C@_1BA@IHIAFJLD@?$AA?5?$AA?5?$AA3?$AAD?$AAR?$AAA?$AAM@ 00000000000dbb78     UefiShellDebug1CommandsLib:QueryTable.obj
 0002:0001bb88       ??_C@_1BA@KPNCDFLL@?$AA?5?$AA?5?$AAS?$AAD?$AAR?$AAA?$AAM@ 00000000000dbb88     UefiShellDebug1CommandsLib:QueryTable.obj
 0002:0001bb98       ??_C@_1BA@EEOFIOLI@?$AA?5?$AA?5?$AAS?$AAG?$AAR?$AAA?$AAM@ 00000000000dbb98     UefiShellDebug1CommandsLib:QueryTable.obj
 0002:0001bba8       ??_C@_1BA@DEHHHJNE@?$AA?5?$AA?5?$AAR?$AAD?$AAR?$AAA?$AAM@ 00000000000dbba8     UefiShellDebug1CommandsLib:QueryTable.obj
 0002:0001bbb8       ??_C@_1M@ILFMKCPM@?$AA?5?$AA?5?$AAD?$AAD?$AAR@ 00000000000dbbb8     UefiShellDebug1CommandsLib:QueryTable.obj
 0002:0001bbc8       ??_C@_1O@NKPDNHAD@?$AA?5?$AA?5?$AAD?$AAD?$AAR?$AA2@ 00000000000dbbc8     UefiShellDebug1CommandsLib:QueryTable.obj
 0002:0001bbd8       ??_C@_1BO@IJMOILHH@?$AA?5?$AA?5?$AAD?$AAD?$AAR?$AA2?$AA?5?$AAF?$AAB?$AA?9?$AAD?$AAI?$AAM?$AAM@ 00000000000dbbd8     UefiShellDebug1CommandsLib:QueryTable.obj
 0002:0001bbf8       ??_C@_1O@GCEPLAGG@?$AA?5?$AA?5?$AAD?$AAD?$AAR?$AA3@ 00000000000dbbf8     UefiShellDebug1CommandsLib:QueryTable.obj
 0002:0001bc08       ??_C@_1O@MNOGOPDP@?$AA?5?$AA?5?$AAF?$AAB?$AAD?$AA2@ 00000000000dbc08     UefiShellDebug1CommandsLib:QueryTable.obj
 0002:0001bc18       ??_C@_1O@PPJIIINP@?$AA?5?$AA?5?$AAD?$AAD?$AAR?$AA4@ 00000000000dbc18     UefiShellDebug1CommandsLib:QueryTable.obj
 0002:0001bc28       ??_C@_1BA@BNHIIIHC@?$AA?5?$AA?5?$AAL?$AAP?$AAD?$AAD?$AAR@ 00000000000dbc28     UefiShellDebug1CommandsLib:QueryTable.obj
 0002:0001bc38       ??_C@_1BC@KEEIDNDE@?$AA?5?$AA?5?$AAL?$AAP?$AAD?$AAD?$AAR?$AA2@ 00000000000dbc38     UefiShellDebug1CommandsLib:QueryTable.obj
 0002:0001bc50       ??_C@_1BC@BMPEFKFB@?$AA?5?$AA?5?$AAL?$AAP?$AAD?$AAD?$AAR?$AA3@ 00000000000dbc50     UefiShellDebug1CommandsLib:QueryTable.obj
 0002:0001bc68       ??_C@_1BC@IBCDGCOI@?$AA?5?$AA?5?$AAL?$AAP?$AAD?$AAD?$AAR?$AA4@ 00000000000dbc68     UefiShellDebug1CommandsLib:QueryTable.obj
 0002:0001bc80       ??_C@_1DM@FJKNPDDI@?$AA?5?$AA?5?$AAL?$AAo?$AAg?$AAi?$AAc?$AAa?$AAl?$AA?5?$AAn?$AAo?$AAn?$AA?9?$AAv@ 00000000000dbc80     UefiShellDebug1CommandsLib:QueryTable.obj
 0002:0001bcc0       ??_C@_1DM@FFJPIOHB@?$AA?5?$AA?5?$AAH?$AAB?$AAM?$AA?5?$AA?$CI?$AAH?$AAi?$AAg?$AAh?$AA?5?$AAB?$AAa?$AAn@ 00000000000dbcc0     UefiShellDebug1CommandsLib:QueryTable.obj
 0002:0001bd00       ??_C@_1FI@OCBLDAOC@?$AA?5?$AA?5?$AAH?$AAB?$AAM?$AA2?$AA?5?$AA?$CI?$AAH?$AAi?$AAg?$AAh?$AA?5?$AAB?$AAa@ 00000000000dbd00     UefiShellDebug1CommandsLib:QueryTable.obj
 0002:0001bd58       ??_C@_1O@EHCEOPLK@?$AA?5?$AA?5?$AAD?$AAD?$AAR?$AA5@ 00000000000dbd58     UefiShellDebug1CommandsLib:QueryTable.obj
 0002:0001bd68       ??_C@_1BC@DJJPAFIN@?$AA?5?$AA?5?$AAL?$AAP?$AAD?$AAD?$AAR?$AA5@ 00000000000dbd68     UefiShellDebug1CommandsLib:QueryTable.obj
 0002:0001bd80       ??_C@_1BI@COCPHOCL@?$AA?5?$AAF?$AAa?$AAs?$AAt?$AA?9?$AAp?$AAa?$AAg?$AAe?$AAd@ 00000000000dbd80     UefiShellDebug1CommandsLib:QueryTable.obj
 0002:0001bd98       ??_C@_1BO@GIPEPGPD@?$AA?5?$AAS?$AAt?$AAa?$AAt?$AAi?$AAc?$AA?5?$AAc?$AAo?$AAl?$AAu?$AAm?$AAn@ 00000000000dbd98     UefiShellDebug1CommandsLib:QueryTable.obj
 0002:0001bdb8       ??_C@_1BO@OAFCEBEG@?$AA?5?$AAP?$AAs?$AAe?$AAu?$AAd?$AAo?$AA?9?$AAS?$AAT?$AAA?$AAT?$AAI?$AAC@ 00000000000dbdb8     UefiShellDebug1CommandsLib:QueryTable.obj
 0002:0001bdd8       ??_C@_1BC@FFIADKEE@?$AA?5?$AAR?$AAA?$AAM?$AAB?$AAU?$AAS?$AA?5@ 00000000000dbdd8     UefiShellDebug1CommandsLib:QueryTable.obj
 0002:0001bdf0       ??_C@_1M@HMLIJBAC@?$AA?5?$AAC?$AAM?$AAO?$AAS@ 00000000000dbdf0     UefiShellDebug1CommandsLib:QueryTable.obj
 0002:0001be00       ??_C@_1BK@IMFMDGOD@?$AA?5?$AAW?$AAi?$AAn?$AAd?$AAo?$AAw?$AA?5?$AAD?$AAR?$AAA?$AAM@ 00000000000dbe00     UefiShellDebug1CommandsLib:QueryTable.obj
 0002:0001be20       ??_C@_1BI@GBMFLJHH@?$AA?5?$AAC?$AAa?$AAc?$AAh?$AAe?$AA?5?$AAD?$AAR?$AAA?$AAM@ 00000000000dbe20     UefiShellDebug1CommandsLib:QueryTable.obj
 0002:0001be38       ??_C@_1BM@NPGEICMN@?$AA?5?$AAN?$AAo?$AAn?$AA?9?$AAv?$AAo?$AAl?$AAa?$AAt?$AAi?$AAl?$AAe@ 00000000000dbe38     UefiShellDebug1CommandsLib:QueryTable.obj
 0002:0001be58       ??_C@_1CM@JKBIGKDC@?$AA?5?$AAR?$AAe?$AAg?$AAi?$AAs?$AAt?$AAe?$AAr?$AAe?$AAd?$AA?$CI?$AAB?$AAu?$AAf@ 00000000000dbe58     UefiShellDebug1CommandsLib:QueryTable.obj
 0002:0001be88       ??_C@_1DE@LMGPAJJA@?$AA?5?$AAU?$AAn?$AAb?$AAu?$AAf?$AAf?$AAe?$AAr?$AAe?$AAd?$AA?$CI?$AAU?$AAn?$AAr@ 00000000000dbe88     UefiShellDebug1CommandsLib:QueryTable.obj
 0002:0001bec0       ??_C@_1M@LBDDOICA@?$AA?5?$AAD?$AAR?$AAA?$AAM@ 00000000000dbec0     UefiShellDebug1CommandsLib:QueryTable.obj
 0002:0001bed0       ??_C@_1BE@DOEEGAFB@?$AA?5?$AAN?$AAV?$AAD?$AAI?$AAM?$AAM?$AA?9?$AAN@ 00000000000dbed0     UefiShellDebug1CommandsLib:QueryTable.obj
 0002:0001bee8       ??_C@_1BE@PLPAEILO@?$AA?5?$AAN?$AAV?$AAD?$AAI?$AAM?$AAM?$AA?9?$AAF@ 00000000000dbee8     UefiShellDebug1CommandsLib:QueryTable.obj
 0002:0001bf00       ??_C@_1BE@IOICEAPN@?$AA?5?$AAN?$AAV?$AAD?$AAI?$AAM?$AAM?$AA?9?$AAP@ 00000000000dbf00     UefiShellDebug1CommandsLib:QueryTable.obj
 0002:0001bf20       ??_C@_1EA@HBGCMKCN@?$AA?5?$AAI?$AAn?$AAt?$AAe?$AAl?$AA?5?$AAO?$AAp?$AAt?$AAa?$AAn?$AAe?$AA?5?$AAP@ 00000000000dbf20     UefiShellDebug1CommandsLib:QueryTable.obj
 0002:0001bf60       ??_C@_1CC@GAEOEBNI@?$AA?5?$AAV?$AAo?$AAl?$AAa?$AAt?$AAi?$AAl?$AAe?$AA?5?$AAm?$AAe?$AAm?$AAo?$AAr@ 00000000000dbf60     UefiShellDebug1CommandsLib:QueryTable.obj
 0002:0001bf90       ??_C@_1EG@CMPDLPOM@?$AA?5?$AAB?$AAy?$AAt?$AAe?$AA?9?$AAa?$AAc?$AAc?$AAe?$AAs?$AAs?$AAi?$AAb?$AAl@ 00000000000dbf90     UefiShellDebug1CommandsLib:QueryTable.obj
 0002:0001bfe0       ??_C@_1EI@KOEPFOKG@?$AA?5?$AAB?$AAl?$AAo?$AAc?$AAk?$AA?9?$AAa?$AAc?$AAc?$AAe?$AAs?$AAs?$AAi?$AAb@ 00000000000dbfe0     UefiShellDebug1CommandsLib:QueryTable.obj
 0002:0001c028       ??_C@_19BIEFJBIK@?$AA?5?$AA?5?$AAO?$AAK@ 00000000000dc028     UefiShellDebug1CommandsLib:QueryTable.obj
 0002:0001c038       ??_C@_1BG@HNNOBHDJ@?$AA?5?$AA?5?$AAB?$AAa?$AAd?$AA?5?$AAr?$AAe?$AAa?$AAd@ 00000000000dc038     UefiShellDebug1CommandsLib:QueryTable.obj
 0002:0001c050       ??_C@_1BO@JEOAODOI@?$AA?5?$AA?5?$AAP?$AAa?$AAr?$AAi?$AAt?$AAy?$AA?5?$AAe?$AAr?$AAr?$AAo?$AAr@ 00000000000dc050     UefiShellDebug1CommandsLib:QueryTable.obj
 0002:0001c070       ??_C@_1CG@IMKHFMPK@?$AA?5?$AA?5?$AAS?$AAi?$AAn?$AAg?$AAl?$AAe?$AA?9?$AAb?$AAi?$AAt?$AA?5?$AAe?$AAr@ 00000000000dc070     UefiShellDebug1CommandsLib:QueryTable.obj
 0002:0001c098       ??_C@_1CG@BEIIOLJG@?$AA?5?$AA?5?$AAD?$AAo?$AAu?$AAb?$AAl?$AAe?$AA?9?$AAb?$AAi?$AAt?$AA?5?$AAe?$AAr@ 00000000000dc098     UefiShellDebug1CommandsLib:QueryTable.obj
 0002:0001c0c0       ??_C@_1CE@FHHKNBDN@?$AA?5?$AA?5?$AAM?$AAu?$AAl?$AAt?$AAi?$AA?9?$AAb?$AAi?$AAt?$AA?5?$AAe?$AAr?$AAr@ 00000000000dc0c0     UefiShellDebug1CommandsLib:QueryTable.obj
 0002:0001c0e8       ??_C@_1BO@GFDKLKFI@?$AA?5?$AA?5?$AAN?$AAi?$AAb?$AAb?$AAl?$AAe?$AA?5?$AAe?$AAr?$AAr?$AAo?$AAr@ 00000000000dc0e8     UefiShellDebug1CommandsLib:QueryTable.obj
 0002:0001c108       ??_C@_1CC@CFBNILPD@?$AA?5?$AA?5?$AAC?$AAh?$AAe?$AAc?$AAk?$AAs?$AAu?$AAm?$AA?5?$AAe?$AAr?$AAr?$AAo@ 00000000000dc108     UefiShellDebug1CommandsLib:QueryTable.obj
 0002:0001c130       ??_C@_1BI@HPKCMEFJ@?$AA?5?$AA?5?$AAC?$AAR?$AAC?$AA?5?$AAe?$AAr?$AAr?$AAo?$AAr@ 00000000000dc130     UefiShellDebug1CommandsLib:QueryTable.obj
 0002:0001c148       ??_C@_1DK@BKHLCP@?$AA?5?$AA?5?$AAC?$AAo?$AAr?$AAr?$AAe?$AAc?$AAt?$AAe?$AAd?$AA?5?$AAs?$AAi?$AAn@ 00000000000dc148     UefiShellDebug1CommandsLib:QueryTable.obj
 0002:0001c188       ??_C@_1CE@MFCEHAEA@?$AA?5?$AA?5?$AAC?$AAo?$AAr?$AAr?$AAe?$AAc?$AAt?$AAe?$AAd?$AA?5?$AAe?$AAr?$AAr@ 00000000000dc188     UefiShellDebug1CommandsLib:QueryTable.obj
 0002:0001c1b0       ??_C@_1CM@KENJINEJ@?$AA?5?$AA?5?$AAU?$AAn?$AAc?$AAo?$AAr?$AAr?$AAe?$AAc?$AAt?$AAa?$AAb?$AAl?$AAe@ 00000000000dc1b0     UefiShellDebug1CommandsLib:QueryTable.obj
 0002:0001c1e0       ??_C@_1BO@GCMFDFAL@?$AA?5?$AA?5?$AAD?$AAe?$AAv?$AAi?$AAc?$AAe?$AA?5?$AAl?$AAe?$AAv?$AAe?$AAl@ 00000000000dc1e0     UefiShellDebug1CommandsLib:QueryTable.obj
 0002:0001c200       ??_C@_1DC@JOELJGIG@?$AA?5?$AA?5?$AAM?$AAe?$AAm?$AAo?$AAr?$AAy?$AA?5?$AAp?$AAa?$AAr?$AAt?$AAi?$AAt@ 00000000000dc200     UefiShellDebug1CommandsLib:QueryTable.obj
 0002:0001c238       ??_C@_1O@KJBHGBBJ@?$AA?5?$AA?5?$AAR?$AAe?$AAa?$AAd@ 00000000000dc238     UefiShellDebug1CommandsLib:QueryTable.obj
 0002:0001c248       ??_C@_1BA@CAKPKCFP@?$AA?5?$AA?5?$AAW?$AAr?$AAi?$AAt?$AAe@ 00000000000dc248     UefiShellDebug1CommandsLib:QueryTable.obj
 0002:0001c258       ??_C@_1CA@ELOGGHDG@?$AA?5?$AA?5?$AAP?$AAa?$AAr?$AAt?$AAi?$AAa?$AAl?$AA?5?$AAW?$AAr?$AAi?$AAt?$AAe@ 00000000000dc258     UefiShellDebug1CommandsLib:QueryTable.obj
 0002:0001c278       ??_C@_1BA@CCMBLJEG@?$AA?5?$AA?5?$AAM?$AAo?$AAu?$AAs?$AAe@ 00000000000dc278     UefiShellDebug1CommandsLib:QueryTable.obj
 0002:0001c288       ??_C@_1BK@FAAIAAOO@?$AA?5?$AA?5?$AAT?$AAr?$AAa?$AAc?$AAk?$AA?5?$AAB?$AAa?$AAl?$AAl@ 00000000000dc288     UefiShellDebug1CommandsLib:QueryTable.obj
 0002:0001c2a8       ??_C@_1BM@NPGCFFBO@?$AA?5?$AA?5?$AAT?$AAr?$AAa?$AAc?$AAk?$AA?5?$AAP?$AAo?$AAi?$AAn?$AAt@ 00000000000dc2a8     UefiShellDebug1CommandsLib:QueryTable.obj
 0002:0001c2c8       ??_C@_1BM@MGCFJPLH@?$AA?5?$AA?5?$AAG?$AAl?$AAi?$AAd?$AAe?$AA?5?$AAP?$AAo?$AAi?$AAn?$AAt@ 00000000000dc2c8     UefiShellDebug1CommandsLib:QueryTable.obj
 0002:0001c2e8       ??_C@_1BI@LGFKEHIC@?$AA?5?$AA?5?$AAT?$AAo?$AAu?$AAc?$AAh?$AA?5?$AAP?$AAa?$AAd@ 00000000000dc2e8     UefiShellDebug1CommandsLib:QueryTable.obj
 0002:0001c300       ??_C@_1BA@GAKAEAPI@?$AA?5?$AAS?$AAe?$AAr?$AAi?$AAa?$AAl@ 00000000000dc300     UefiShellDebug1CommandsLib:QueryTable.obj
 0002:0001c310       ??_C@_1M@FCHOBHMM@?$AA?5?$AAP?$AAS?$AA?1?$AA2@ 00000000000dc310     UefiShellDebug1CommandsLib:QueryTable.obj
 0002:0001c320       ??_C@_1BE@DBNIPLDC@?$AA?5?$AAI?$AAn?$AAf?$AAr?$AAa?$AAr?$AAe?$AAd@ 00000000000dc320     UefiShellDebug1CommandsLib:QueryTable.obj
 0002:0001c338       ??_C@_1BA@PDKOJBAF@?$AA?5?$AAH?$AAP?$AA?9?$AAH?$AAI?$AAL@ 00000000000dc338     UefiShellDebug1CommandsLib:QueryTable.obj
 0002:0001c348       ??_C@_1BG@MFMIFFGL@?$AA?5?$AAB?$AAu?$AAs?$AA?5?$AAm?$AAo?$AAu?$AAs?$AAe@ 00000000000dc348     UefiShellDebug1CommandsLib:QueryTable.obj
 0002:0001c360       ??_C@_1CO@MHDMPKPI@?$AA?5?$AAA?$AAD?$AAB?$AA?$CI?$AAA?$AAp?$AAp?$AAl?$AAe?$AA?5?$AAD?$AAe?$AAs?$AAk@ 00000000000dc360     UefiShellDebug1CommandsLib:QueryTable.obj
 0002:0001c390       ??_C@_1CA@PEGNAPGB@?$AA?5?$AAB?$AAu?$AAs?$AA?5?$AAm?$AAo?$AAu?$AAs?$AAe?$AA?5?$AAD?$AAB?$AA?9?$AA9@ 00000000000dc390     UefiShellDebug1CommandsLib:QueryTable.obj
 0002:0001c3b0       ??_C@_1CK@NFDDAAGC@?$AA?5?$AAB?$AAu?$AAs?$AA?5?$AAm?$AAo?$AAu?$AAs?$AAe?$AA?5?$AAm?$AAi?$AAr?$AAc@ 00000000000dc3b0     UefiShellDebug1CommandsLib:QueryTable.obj
 0002:0001c3e0       ??_C@_19PFOJIDBE@?$AA?5?$AAU?$AAS?$AAB@ 00000000000dc3e0     UefiShellDebug1CommandsLib:QueryTable.obj
 0002:0001c3f0       ??_C@_1BA@IIPJNPPE@?$AA?5?$AAO?$AAt?$AAh?$AAe?$AAr?$AA?5@ 00000000000dc3f0     UefiShellDebug1CommandsLib:QueryTable.obj
 0002:0001c400       ??_C@_1BE@JFPCAPHI@?$AA?5?$AAU?$AAn?$AAk?$AAn?$AAo?$AAw?$AAn?$AA?5@ 00000000000dc400     UefiShellDebug1CommandsLib:QueryTable.obj
 0002:0001c418       ??_C@_1BI@MMKCKHAH@?$AA?5?$AAL?$AAe?$AAa?$AAd?$AA?5?$AAA?$AAc?$AAi?$AAd?$AA?5@ 00000000000dc418     UefiShellDebug1CommandsLib:QueryTable.obj
 0002:0001c430       ??_C@_1CC@NGOOMLIF@?$AA?5?$AAN?$AAi?$AAc?$AAk?$AAe?$AAl?$AA?5?$AAC?$AAa?$AAd?$AAm?$AAi?$AAu?$AAm@ 00000000000dc430     UefiShellDebug1CommandsLib:QueryTable.obj
 0002:0001c458       ??_C@_1CO@OLAFLDKJ@?$AA?5?$AAN?$AAi?$AAc?$AAk?$AAe?$AAl?$AA?5?$AAm?$AAe?$AAt?$AAa?$AAl?$AA?5?$AAh@ 00000000000dc458     UefiShellDebug1CommandsLib:QueryTable.obj
 0002:0001c488       ??_C@_1BM@MNJGCDCE@?$AA?5?$AAL?$AAi?$AAt?$AAh?$AAi?$AAu?$AAm?$AA?9?$AAi?$AAo?$AAn?$AA?5@ 00000000000dc488     UefiShellDebug1CommandsLib:QueryTable.obj
 0002:0001c4a8       ??_C@_1BG@KELNHKGA@?$AA?5?$AAZ?$AAi?$AAn?$AAc?$AA?5?$AAa?$AAi?$AAr?$AA?5@ 00000000000dc4a8     UefiShellDebug1CommandsLib:QueryTable.obj
 0002:0001c4c0       ??_C@_1CE@HOBCOKCK@?$AA?5?$AAL?$AAi?$AAt?$AAh?$AAi?$AAu?$AAm?$AA?5?$AAP?$AAo?$AAl?$AAy?$AAm?$AAe@ 00000000000dc4c0     UefiShellDebug1CommandsLib:QueryTable.obj
 0002:0001c4e8       ??_C@_19GGDIBBIJ@?$AA?5?$AAO?$AAK?$AA?5@ 00000000000dc4e8     UefiShellDebug1CommandsLib:QueryTable.obj
 0002:0001c4f8       ??_C@_1BO@GKEDGEEJ@?$AA?5?$AAN?$AAo?$AAn?$AA?9?$AAc?$AAr?$AAi?$AAt?$AAi?$AAc?$AAa?$AAl?$AA?5@ 00000000000dc4f8     UefiShellDebug1CommandsLib:QueryTable.obj
 0002:0001c518       ??_C@_1BG@NCDDFIBM@?$AA?5?$AAC?$AAr?$AAi?$AAt?$AAi?$AAc?$AAa?$AAl?$AA?5@ 00000000000dc518     UefiShellDebug1CommandsLib:QueryTable.obj
 0002:0001c530       ??_C@_1CE@CEKOIDAH@?$AA?5?$AAN?$AAo?$AAn?$AA?9?$AAr?$AAe?$AAc?$AAo?$AAv?$AAe?$AAr?$AAa?$AAb?$AAl@ 00000000000dc530     UefiShellDebug1CommandsLib:QueryTable.obj
 0002:0001c558       ??_C@_1BI@GMKHOHOC@?$AA?5?$AAP?$AAr?$AAo?$AAc?$AAe?$AAs?$AAs?$AAo?$AAr?$AA?5@ 00000000000dc558     UefiShellDebug1CommandsLib:QueryTable.obj
 0002:0001c570       ??_C@_1O@BNGJJLAB@?$AA?5?$AAD?$AAi?$AAs?$AAk?$AA?5@ 00000000000dc570     UefiShellDebug1CommandsLib:QueryTable.obj
 0002:0001c580       ??_C@_1CC@KEALGJFC@?$AA?5?$AAP?$AAe?$AAr?$AAi?$AAp?$AAh?$AAe?$AAr?$AAa?$AAl?$AA?5?$AAB?$AAa?$AAy@ 00000000000dc580     UefiShellDebug1CommandsLib:QueryTable.obj
 0002:0001c5a8       ??_C@_1DG@OCABFDIA@?$AA?5?$AAS?$AAy?$AAs?$AAt?$AAe?$AAm?$AA?5?$AAM?$AAa?$AAn?$AAa?$AAg?$AAe?$AAm@ 00000000000dc5a8     UefiShellDebug1CommandsLib:QueryTable.obj
 0002:0001c5e0       ??_C@_1BM@KEIIIMGN@?$AA?5?$AAM?$AAo?$AAt?$AAh?$AAe?$AAr?$AAb?$AAo?$AAa?$AAr?$AAd?$AA?5@ 00000000000dc5e0     UefiShellDebug1CommandsLib:QueryTable.obj
 0002:0001c600       ??_C@_1CA@JDEJPGMF@?$AA?5?$AAM?$AAe?$AAm?$AAo?$AAr?$AAy?$AA?5?$AAM?$AAo?$AAd?$AAu?$AAl?$AAe?$AA?5@ 00000000000dc600     UefiShellDebug1CommandsLib:QueryTable.obj
 0002:0001c620       ??_C@_1CG@NCIMBGOL@?$AA?5?$AAP?$AAr?$AAo?$AAc?$AAe?$AAs?$AAs?$AAo?$AAr?$AA?5?$AAM?$AAo?$AAd?$AAu@ 00000000000dc620     UefiShellDebug1CommandsLib:QueryTable.obj
 0002:0001c648       ??_C@_1BK@DEPMCFKI@?$AA?5?$AAP?$AAo?$AAw?$AAe?$AAr?$AA?5?$AAU?$AAn?$AAi?$AAt?$AA?5@ 00000000000dc648     UefiShellDebug1CommandsLib:QueryTable.obj
 0002:0001c668       ??_C@_1BM@GLDKJKI@?$AA?5?$AAA?$AAd?$AAd?$AA?9?$AAi?$AAn?$AA?5?$AAC?$AAa?$AAr?$AAd?$AA?5@ 00000000000dc668     UefiShellDebug1CommandsLib:QueryTable.obj
 0002:0001c688       ??_C@_1M@IBDCPELO@?$AA?5?$AAF?$AAa?$AAn?$AA?5@ 00000000000dc688     UefiShellDebug1CommandsLib:QueryTable.obj
 0002:0001c698       ??_C@_1CK@JBDACGFA@?$AA?5?$AAC?$AAe?$AAn?$AAt?$AAr?$AAi?$AAf?$AAu?$AAg?$AAa?$AAl?$AA?5?$AAB?$AAl@ 00000000000dc698     UefiShellDebug1CommandsLib:QueryTable.obj
 0002:0001c6c8       ??_C@_1BG@LOMPKKGO@?$AA?5?$AAC?$AAh?$AAi?$AAp?$AA?5?$AAF?$AAa?$AAn?$AA?5@ 00000000000dc6c8     UefiShellDebug1CommandsLib:QueryTable.obj
 0002:0001c6e0       ??_C@_1BM@NGIONONA@?$AA?5?$AAC?$AAa?$AAb?$AAi?$AAn?$AAe?$AAt?$AA?5?$AAF?$AAa?$AAn?$AA?5@ 00000000000dc6e0     UefiShellDebug1CommandsLib:QueryTable.obj
 0002:0001c700       ??_C@_1CG@LCMCLKCF@?$AA?5?$AAP?$AAo?$AAw?$AAe?$AAr?$AA?5?$AAS?$AAu?$AAp?$AAp?$AAl?$AAy?$AA?5?$AAF@ 00000000000dc700     UefiShellDebug1CommandsLib:QueryTable.obj
 0002:0001c728       ??_C@_1BI@FOBDMCGG@?$AA?5?$AAH?$AAe?$AAa?$AAt?$AA?5?$AAP?$AAi?$AAp?$AAe?$AA?5@ 00000000000dc728     UefiShellDebug1CommandsLib:QueryTable.obj
 0002:0001c740       ??_C@_1DG@HJEBEBBL@?$AA?5?$AAI?$AAn?$AAt?$AAe?$AAg?$AAr?$AAa?$AAt?$AAe?$AAd?$AA?5?$AAR?$AAe?$AAf@ 00000000000dc740     UefiShellDebug1CommandsLib:QueryTable.obj
 0002:0001c778       ??_C@_1CC@DKIPEHFO@?$AA?5?$AAA?$AAc?$AAt?$AAi?$AAv?$AAe?$AA?5?$AAC?$AAo?$AAo?$AAl?$AAi?$AAn?$AAg@ 00000000000dc778     UefiShellDebug1CommandsLib:QueryTable.obj
 0002:0001c7a0       ??_C@_1CE@LOOOAFLC@?$AA?5?$AAP?$AAa?$AAs?$AAs?$AAi?$AAv?$AAe?$AA?5?$AAC?$AAo?$AAo?$AAl?$AAi?$AAn@ 00000000000dc7a0     UefiShellDebug1CommandsLib:QueryTable.obj
 0002:0001c7c8       ??_C@_1DM@LHANPIKI@?$AA?5?$AAN?$AAa?$AAt?$AAi?$AAo?$AAn?$AAa?$AAl?$AA?5?$AAS?$AAe?$AAm?$AAi?$AAc@ 00000000000dc7c8     UefiShellDebug1CommandsLib:QueryTable.obj
 0002:0001c808       ??_C@_1DM@LJDOLHG@?$AA?5?$AAN?$AAa?$AAt?$AAi?$AAo?$AAn?$AAa?$AAl?$AA?5?$AAS?$AAe?$AAm?$AAi?$AAc@ 00000000000dc808     UefiShellDebug1CommandsLib:QueryTable.obj
 0002:0001c848       ??_C@_1DM@MAMPDIND@?$AA?5?$AAN?$AAa?$AAt?$AAi?$AAo?$AAn?$AAa?$AAl?$AA?5?$AAS?$AAe?$AAm?$AAi?$AAc@ 00000000000dc848     UefiShellDebug1CommandsLib:QueryTable.obj
 0002:0001c888       ??_C@_1DM@DOOAHLLH@?$AA?5?$AAN?$AAa?$AAt?$AAi?$AAo?$AAn?$AAa?$AAl?$AA?5?$AAS?$AAe?$AAm?$AAi?$AAc@ 00000000000dc888     UefiShellDebug1CommandsLib:QueryTable.obj
 0002:0001c8c8       ??_C@_1DM@PFLMKIBC@?$AA?5?$AAN?$AAa?$AAt?$AAi?$AAo?$AAn?$AAa?$AAl?$AA?5?$AAS?$AAe?$AAm?$AAi?$AAc@ 00000000000dc8c8     UefiShellDebug1CommandsLib:QueryTable.obj
 0002:0001c908       ??_C@_1DC@NHMOKABJ@?$AA?5?$AAA?$AAn?$AAa?$AAl?$AAo?$AAg?$AA?5?$AAD?$AAe?$AAv?$AAi?$AAc?$AAe?$AAs@ 00000000000dc908     UefiShellDebug1CommandsLib:QueryTable.obj
 0002:0001c940       ??_C@_1DM@KEDMMCPK@?$AA?5?$AAD?$AAa?$AAl?$AAl?$AAa?$AAs?$AA?5?$AAS?$AAe?$AAm?$AAi?$AAc?$AAo?$AAn@ 00000000000dc940     UefiShellDebug1CommandsLib:QueryTable.obj
 0002:0001c980       ??_C@_1BK@DMDILACG@?$AA?5?$AAM?$AAa?$AAx?$AAi?$AAm?$AA?5?$AA1?$AA6?$AA1?$AA7?$AA?5@ 00000000000dc980     UefiShellDebug1CommandsLib:QueryTable.obj
 0002:0001c9a0       ??_C@_1CE@NAHLNKEI@?$AA?5?$AAG?$AAe?$AAn?$AAe?$AAs?$AAy?$AAs?$AA?5?$AAG?$AAL?$AA5?$AA1?$AA8?$AAS@ 00000000000dc9a0     UefiShellDebug1CommandsLib:QueryTable.obj
 0002:0001c9c8       ??_C@_1CE@LDCCHJEJ@?$AA?5?$AAW?$AAi?$AAn?$AAb?$AAo?$AAn?$AAd?$AA?5?$AAW?$AA8?$AA3?$AA7?$AA8?$AA1@ 00000000000dc9c8     UefiShellDebug1CommandsLib:QueryTable.obj
 0002:0001c9f0       ??_C@_1CE@GNDDKDDA@?$AA?5?$AAH?$AAo?$AAl?$AAt?$AAe?$AAk?$AA?5?$AAH?$AAT?$AA8?$AA2?$AAH?$AA7?$AA9@ 00000000000dc9f0     UefiShellDebug1CommandsLib:QueryTable.obj
 0002:0001ca18       ??_C@_1BG@BGKHBHIL@?$AA?5?$AAI?$AA?1?$AAO?$AA?5?$AAP?$AAo?$AAr?$AAt?$AA?5@ 00000000000dca18     UefiShellDebug1CommandsLib:QueryTable.obj
 0002:0001ca30       ??_C@_1BC@BOJDIKKE@?$AA?5?$AAM?$AAe?$AAm?$AAo?$AAr?$AAy?$AA?5@ 00000000000dca30     UefiShellDebug1CommandsLib:QueryTable.obj
 0002:0001ca48       ??_C@_1BC@JJDKDAHO@?$AA?5?$AAS?$AAM?$AA?5?$AAB?$AAu?$AAs?$AA?5@ 00000000000dca48     UefiShellDebug1CommandsLib:QueryTable.obj
 0002:0001ca60       ??_C@_1BC@HOAPPOAE@?$AA?5?$AAR?$AAa?$AAm?$AAB?$AAu?$AAs?$AA?5@ 00000000000dca60     UefiShellDebug1CommandsLib:QueryTable.obj
 0002:0001ca78       ??_C@_1BG@GCDBPALL@?$AA?5?$AAS?$AAy?$AAn?$AAc?$AAL?$AAi?$AAn?$AAk?$AA?5@ 00000000000dca78     UefiShellDebug1CommandsLib:QueryTable.obj
 0002:0001ca90       ??_C@_1EC@KIEOMBAI@?$AA?5?$AAK?$AAC?$AAS?$AA?3?$AA?5?$AAK?$AAe?$AAy?$AAb?$AAo?$AAa?$AAr?$AAd?$AA?5@ 00000000000dca90     UefiShellDebug1CommandsLib:QueryTable.obj
 0002:0001cae0       ??_C@_1FC@KJMILLDI@?$AA?5?$AAS?$AAM?$AAI?$AAC?$AA?3?$AA?5?$AAS?$AAe?$AAr?$AAv?$AAe?$AAr?$AA?5?$AAM@ 00000000000dcae0     UefiShellDebug1CommandsLib:QueryTable.obj
 0002:0001cb38       ??_C@_1CK@IAMEFPOK@?$AA?5?$AAB?$AAT?$AA?3?$AA?5?$AAB?$AAl?$AAo?$AAc?$AAk?$AA?5?$AAT?$AAr?$AAa?$AAn@ 00000000000dcb38     UefiShellDebug1CommandsLib:QueryTable.obj
 0002:0001cb68       ??_C@_1DO@KGAABDHH@?$AA?5?$AAS?$AAS?$AAI?$AAF?$AA?3?$AA?5?$AAS?$AAM?$AAB?$AAu?$AAs?$AA?5?$AAS?$AAy@ 00000000000dcb68     UefiShellDebug1CommandsLib:QueryTable.obj
 0002:0001cbb0       ??_C@_1GO@IFNJFDLH@?$AA?5?$AAR?$AAe?$AAs?$AAe?$AAr?$AAv?$AAe?$AAd?$AA?5?$AAf?$AAo?$AAr?$AA?5?$AAf@ 00000000000dcbb0     UefiShellDebug1CommandsLib:QueryTable.obj
 0002:0001cc20       ??_C@_1CM@KFJAMKAL@?$AA?5?$AAM?$AAC?$AAT?$AAP?$AA?5?$AAH?$AAo?$AAs?$AAt?$AA?5?$AAI?$AAn?$AAt?$AAe@ 00000000000dcc20     UefiShellDebug1CommandsLib:QueryTable.obj
 0002:0001cc50       ??_C@_1DC@CPKLBJHH@?$AA?5?$AAN?$AAe?$AAt?$AAw?$AAo?$AAr?$AAk?$AA?5?$AAH?$AAo?$AAs?$AAt?$AA?5?$AAI@ 00000000000dcc50     UefiShellDebug1CommandsLib:QueryTable.obj
 0002:0001cc88       ??_C@_1BM@OGGKBMGB@?$AA?5?$AAO?$AAE?$AAM?$AA?5?$AAd?$AAe?$AAf?$AAi?$AAn?$AAe?$AAd?$AA?5@ 00000000000dcc88     UefiShellDebug1CommandsLib:QueryTable.obj
 0002:0001cca8       ??_C@_1BG@KFCCEIGC@?$AA?5?$AAR?$AAe?$AAs?$AAe?$AAr?$AAv?$AAe?$AAd?$AA?5@ 00000000000dcca8     UefiShellDebug1CommandsLib:QueryTable.obj
 0002:0001ccc0       ??_C@_1BK@CHKFKFHH@?$AA?5?$AAI?$AAA?$AA3?$AA2?$AA?5?$AA?$CI?$AAx?$AA8?$AA6?$AA?$CJ?$AA?5@ 00000000000dccc0     UefiShellDebug1CommandsLib:QueryTable.obj
 0002:0001cce0       ??_C@_1EM@HGJOJJCM@?$AA?5?$AAx?$AA6?$AA4?$AA?5?$AA?$CI?$AAx?$AA8?$AA6?$AA?9?$AA6?$AA4?$AA?0?$AA?5?$AAi@ 00000000000dcce0     UefiShellDebug1CommandsLib:QueryTable.obj
 0002:0001cd30       ??_C@_1DK@DIGHDGCI@?$AA?5?$AAI?$AAn?$AAt?$AAe?$AAl?$AA?5?$AAI?$AAt?$AAa?$AAn?$AAi?$AAu?$AAm?$AA?5@ 00000000000dcd30     UefiShellDebug1CommandsLib:QueryTable.obj
 0002:0001cd70       ??_C@_1CO@OGHHLOFA@?$AA?5?$AA3?$AA2?$AA?9?$AAb?$AAi?$AAt?$AA?5?$AAA?$AAR?$AAM?$AA?5?$AA?$CI?$AAA?$AAa@ 00000000000dcd70     UefiShellDebug1CommandsLib:QueryTable.obj
 0002:0001cda0       ??_C@_1CO@DEMOLDJP@?$AA?5?$AA6?$AA4?$AA?9?$AAb?$AAi?$AAt?$AA?5?$AAA?$AAR?$AAM?$AA?5?$AA?$CI?$AAA?$AAa@ 00000000000dcda0     UefiShellDebug1CommandsLib:QueryTable.obj
 0002:0001cdd0       ??_C@_1CO@GOFKJBKA@?$AA?5?$AA3?$AA2?$AA?9?$AAb?$AAi?$AAt?$AA?5?$AAR?$AAI?$AAS?$AAC?$AA?9?$AAV?$AA?5@ 00000000000dcdd0     UefiShellDebug1CommandsLib:QueryTable.obj
 0002:0001ce00       ??_C@_1CO@LMODJMGP@?$AA?5?$AA6?$AA4?$AA?9?$AAb?$AAi?$AAt?$AA?5?$AAR?$AAI?$AAS?$AAC?$AA?9?$AAV?$AA?5@ 00000000000dce00     UefiShellDebug1CommandsLib:QueryTable.obj
 0002:0001ce30       ??_C@_1DC@LCKKIIBE@?$AA?5?$AA1?$AA2?$AA8?$AA?9?$AAb?$AAi?$AAt?$AA?5?$AAR?$AAI?$AAS?$AAC?$AA?9?$AAV@ 00000000000dce30     UefiShellDebug1CommandsLib:QueryTable.obj
 0002:0001ce68       ??_C@_1BE@MDDNDOFK@?$AAU?$AAp?$AAd?$AAa?$AAt?$AAa?$AAb?$AAl?$AAe@ 00000000000dce68     UefiShellDebug1CommandsLib:QueryTable.obj
 0002:0001ce80       ??_C@_1BM@PLHNMFGN@?$AAW?$AAr?$AAi?$AAt?$AAe?$AA?9?$AAP?$AAr?$AAo?$AAt?$AAe?$AAc?$AAt@ 00000000000dce80     UefiShellDebug1CommandsLib:QueryTable.obj
 0002:0001cea0       ??_C@_1BG@LKJBLHNG@?$AA?5?$AA?5?$AAU?$AAn?$AAk?$AAn?$AAo?$AAw?$AAn?$AA?5@ 00000000000dcea0     UefiShellDebug1CommandsLib:QueryTable.obj
 0002:0001cec0       ??_C@_1GE@GMBAPGHA@?$AA?5?$AA?5?$AAD?$AAi?$AAs?$AAa?$AAb?$AAl?$AAe?$AAd?$AA?3?$AA?5?$AAT?$AAh?$AAi@ 00000000000dcec0     UefiShellDebug1CommandsLib:QueryTable.obj
 0002:0001cf30       ??_C@_1GA@KGLDIAGL@?$AA?5?$AA?5?$AAE?$AAn?$AAa?$AAb?$AAl?$AAe?$AAd?$AA?3?$AA?5?$AAT?$AAh?$AAi?$AAs@ 00000000000dcf30     UefiShellDebug1CommandsLib:QueryTable.obj
 0002:0001cf90       ??_C@_1JC@NDJCCJHH@?$AA?5?$AA?5?$AAA?$AAb?$AAs?$AAe?$AAn?$AAt?$AA?3?$AA?5?$AAT?$AAh?$AAi?$AAs?$AA?5@ 00000000000dcf90     UefiShellDebug1CommandsLib:QueryTable.obj
 0002:0001d030       ??_C@_1LE@FHEJOMCB@?$AA?5?$AA?5?$AAS?$AAt?$AAa?$AAn?$AAd?$AAb?$AAy?$AAO?$AAf?$AAf?$AAl?$AAi?$AAn@ 00000000000dd030     UefiShellDebug1CommandsLib:QueryTable.obj
 0002:0001d0f0       ??_C@_1PE@EJADFNPH@?$AA?5?$AA?5?$AAS?$AAt?$AAa?$AAn?$AAd?$AAb?$AAy?$AAS?$AAp?$AAa?$AAr?$AAe?$AA?3@ 00000000000dd0f0     UefiShellDebug1CommandsLib:QueryTable.obj
 0002:0001d1f0       ??_C@_1JM@LHAJIAHN@?$AA?5?$AA?5?$AAU?$AAn?$AAa?$AAv?$AAa?$AAi?$AAl?$AAa?$AAb?$AAl?$AAe?$AAO?$AAf@ 00000000000dd1f0     UefiShellDebug1CommandsLib:QueryTable.obj
 0002:0001d290       ??_C@_1CE@NODMCEOF@?$AA?5?$AAB?$AAI?$AAO?$AAS?$AA?5?$AAI?$AAn?$AAf?$AAo?$AAr?$AAm?$AAa?$AAt?$AAi@ 00000000000dd290     UefiShellDebug1CommandsLib:QueryTable.obj
 0002:0001d2b8       ??_C@_1CI@JBMGMLKL@?$AA?5?$AAS?$AAy?$AAs?$AAt?$AAe?$AAm?$AA?5?$AAI?$AAn?$AAf?$AAo?$AAr?$AAm?$AAa@ 00000000000dd2b8     UefiShellDebug1CommandsLib:QueryTable.obj
 0002:0001d2e0       ??_C@_1DA@DLBDLIPB@?$AA?5?$AAB?$AAa?$AAs?$AAe?$AA?5?$AAB?$AAo?$AAa?$AAr?$AAd?$AA?5?$AAI?$AAn?$AAf@ 00000000000dd2e0     UefiShellDebug1CommandsLib:QueryTable.obj
 0002:0001d310       ??_C@_1CE@MKBMKOIJ@?$AA?5?$AAS?$AAy?$AAs?$AAt?$AAe?$AAm?$AA?5?$AAE?$AAn?$AAc?$AAl?$AAo?$AAs?$AAu@ 00000000000dd310     UefiShellDebug1CommandsLib:QueryTable.obj
 0002:0001d338       ??_C@_1CO@IEFCPDIM@?$AA?5?$AAP?$AAr?$AAo?$AAc?$AAe?$AAs?$AAs?$AAo?$AAr?$AA?5?$AAI?$AAn?$AAf?$AAo@ 00000000000dd338     UefiShellDebug1CommandsLib:QueryTable.obj
 0002:0001d370       ??_C@_1EA@GLJIDPGC@?$AA?5?$AAM?$AAe?$AAm?$AAo?$AAr?$AAy?$AA?5?$AAC?$AAo?$AAn?$AAt?$AAr?$AAo?$AAl@ 00000000000dd370     UefiShellDebug1CommandsLib:QueryTable.obj
 0002:0001d3b0       ??_C@_1DI@NGJKBOBL@?$AA?5?$AAM?$AAe?$AAm?$AAo?$AAr?$AAy?$AA?5?$AAM?$AAo?$AAd?$AAu?$AAl?$AAe?$AA?5@ 00000000000dd3b0     UefiShellDebug1CommandsLib:QueryTable.obj
 0002:0001d3e8       ??_C@_1CI@KAHPHEOD@?$AA?5?$AAC?$AAa?$AAc?$AAh?$AAe?$AA?5?$AAI?$AAn?$AAf?$AAo?$AAr?$AAm?$AAa?$AAt@ 00000000000dd3e8     UefiShellDebug1CommandsLib:QueryTable.obj
 0002:0001d410       ??_C@_1DK@EIOCMDIE@?$AA?5?$AAP?$AAo?$AAr?$AAt?$AA?5?$AAC?$AAo?$AAn?$AAn?$AAe?$AAc?$AAt?$AAo?$AAr@ 00000000000dd410     UefiShellDebug1CommandsLib:QueryTable.obj
 0002:0001d450       ??_C@_1BO@CFNNBGGK@?$AA?5?$AAS?$AAy?$AAs?$AAt?$AAe?$AAm?$AA?5?$AAS?$AAl?$AAo?$AAt?$AAs?$AA?5@ 00000000000dd450     UefiShellDebug1CommandsLib:QueryTable.obj
 0002:0001d470       ??_C@_1EA@JEIKCCNN@?$AA?5?$AAO?$AAn?$AA?5?$AAB?$AAo?$AAa?$AAr?$AAd?$AA?5?$AAD?$AAe?$AAv?$AAi?$AAc@ 00000000000dd470     UefiShellDebug1CommandsLib:QueryTable.obj
 0002:0001d4b0       ??_C@_1BK@BLOMDIIM@?$AA?5?$AAO?$AAE?$AAM?$AA?5?$AAS?$AAt?$AAr?$AAi?$AAn?$AAg?$AAs@ 00000000000dd4b0     UefiShellDebug1CommandsLib:QueryTable.obj
 0002:0001d4d0       ??_C@_1DO@GLJAEBOI@?$AA?5?$AAS?$AAy?$AAs?$AAt?$AAe?$AAm?$AA?5?$AAC?$AAo?$AAn?$AAf?$AAi?$AAg?$AAu@ 00000000000dd4d0     UefiShellDebug1CommandsLib:QueryTable.obj
 0002:0001d510       ??_C@_1DK@PMNAAIFF@?$AA?5?$AAB?$AAI?$AAO?$AAS?$AA?5?$AAL?$AAa?$AAn?$AAg?$AAu?$AAa?$AAg?$AAe?$AA?5@ 00000000000dd510     UefiShellDebug1CommandsLib:QueryTable.obj
 0002:0001d550       ??_C@_1CK@LPHDKGOO@?$AA?5?$AAG?$AAr?$AAo?$AAu?$AAp?$AA?5?$AAA?$AAs?$AAs?$AAo?$AAc?$AAi?$AAa?$AAt@ 00000000000dd550     UefiShellDebug1CommandsLib:QueryTable.obj
 0002:0001d580       ??_C@_1CG@NDCDIPMA@?$AA?5?$AAS?$AAy?$AAs?$AAt?$AAe?$AAm?$AA?5?$AAE?$AAv?$AAe?$AAn?$AAt?$AA?5?$AAL@ 00000000000dd580     UefiShellDebug1CommandsLib:QueryTable.obj
 0002:0001d5a8       ??_C@_1DA@JNMIAO@?$AA?5?$AAP?$AAh?$AAy?$AAs?$AAi?$AAc?$AAa?$AAl?$AA?5?$AAM?$AAe?$AAm?$AAo?$AAr@ 00000000000dd5a8     UefiShellDebug1CommandsLib:QueryTable.obj
 0002:0001d5d8       ??_C@_1CA@JIJECCCJ@?$AA?5?$AAM?$AAe?$AAm?$AAo?$AAr?$AAy?$AA?5?$AAD?$AAe?$AAv?$AAi?$AAc?$AAe?$AA?5@ 00000000000dd5d8     UefiShellDebug1CommandsLib:QueryTable.obj
 0002:0001d600       ??_C@_1EE@PEHMGDNH@?$AA?5?$AA3?$AA2?$AA?9?$AAb?$AAi?$AAt?$AA?5?$AAM?$AAe?$AAm?$AAo?$AAr?$AAy?$AA?5@ 00000000000dd600     UefiShellDebug1CommandsLib:QueryTable.obj
 0002:0001d648       ??_C@_1DM@JGOEEHED@?$AA?5?$AAM?$AAe?$AAm?$AAo?$AAr?$AAy?$AA?5?$AAA?$AAr?$AAr?$AAa?$AAy?$AA?5?$AAM@ 00000000000dd648     UefiShellDebug1CommandsLib:QueryTable.obj
 0002:0001d690       ??_C@_1EA@CCKEJEPI@?$AA?5?$AAM?$AAe?$AAm?$AAo?$AAr?$AAy?$AA?5?$AAD?$AAe?$AAv?$AAi?$AAc?$AAe?$AA?5@ 00000000000dd690     UefiShellDebug1CommandsLib:QueryTable.obj
 0002:0001d6d0       ??_C@_1DG@CEGKOEIA@?$AA?5?$AAB?$AAu?$AAi?$AAl?$AAt?$AA?9?$AAi?$AAn?$AA?5?$AAP?$AAo?$AAi?$AAn?$AAt@ 00000000000dd6d0     UefiShellDebug1CommandsLib:QueryTable.obj
 0002:0001d708       ??_C@_1CG@BHBPCLAK@?$AA?5?$AAP?$AAo?$AAr?$AAt?$AAa?$AAb?$AAl?$AAe?$AA?5?$AAB?$AAa?$AAt?$AAt?$AAe@ 00000000000dd708     UefiShellDebug1CommandsLib:QueryTable.obj
 0002:0001d730       ??_C@_1BO@LFPNKNOG@?$AA?5?$AAS?$AAy?$AAs?$AAt?$AAe?$AAm?$AA?5?$AAR?$AAe?$AAs?$AAe?$AAt?$AA?5@ 00000000000dd730     UefiShellDebug1CommandsLib:QueryTable.obj
 0002:0001d750       ??_C@_1CI@HEMMAADB@?$AA?5?$AAH?$AAa?$AAr?$AAd?$AAw?$AAa?$AAr?$AAe?$AA?5?$AAS?$AAe?$AAc?$AAu?$AAr@ 00000000000dd750     UefiShellDebug1CommandsLib:QueryTable.obj
 0002:0001d778       ??_C@_1DA@BHBLKLIE@?$AA?5?$AAS?$AAy?$AAs?$AAt?$AAe?$AAm?$AA?5?$AAP?$AAo?$AAw?$AAe?$AAr?$AA?5?$AAC@ 00000000000dd778     UefiShellDebug1CommandsLib:QueryTable.obj
 0002:0001d7a8       ??_C@_1CA@LPHPMNGH@?$AA?5?$AAV?$AAo?$AAl?$AAt?$AAa?$AAg?$AAe?$AA?5?$AAP?$AAr?$AAo?$AAb?$AAe?$AA?5@ 00000000000dd7a8     UefiShellDebug1CommandsLib:QueryTable.obj
 0002:0001d7c8       ??_C@_1CC@HIJNABCD@?$AA?5?$AAC?$AAo?$AAo?$AAl?$AAi?$AAn?$AAg?$AA?5?$AAD?$AAe?$AAv?$AAi?$AAc?$AAe@ 00000000000dd7c8     UefiShellDebug1CommandsLib:QueryTable.obj
 0002:0001d7f0       ??_C@_1CI@DBJFFCMH@?$AA?5?$AAT?$AAe?$AAm?$AAp?$AAe?$AAr?$AAa?$AAt?$AAu?$AAr?$AAe?$AA?5?$AAP?$AAr@ 00000000000dd7f0     UefiShellDebug1CommandsLib:QueryTable.obj
 0002:0001d818       ??_C@_1DG@GLKFIJAO@?$AA?5?$AAE?$AAl?$AAe?$AAc?$AAt?$AAr?$AAi?$AAc?$AAa?$AAl?$AA?5?$AAC?$AAu?$AAr@ 00000000000dd818     UefiShellDebug1CommandsLib:QueryTable.obj
 0002:0001d850       ??_C@_1DK@EBFKJOBC@?$AA?5?$AAO?$AAu?$AAt?$AA?9?$AAo?$AAf?$AA?9?$AAB?$AAa?$AAn?$AAd?$AA?5?$AAR?$AAe@ 00000000000dd850     UefiShellDebug1CommandsLib:QueryTable.obj
 0002:0001d890       ??_C@_1FG@JFKJFGJC@?$AA?5?$AAB?$AAo?$AAo?$AAt?$AA?5?$AAI?$AAn?$AAt?$AAe?$AAg?$AAr?$AAi?$AAt?$AAy@ 00000000000dd890     UefiShellDebug1CommandsLib:QueryTable.obj
 0002:0001d8e8       ??_C@_1DE@EJKEMOMO@?$AA?5?$AAS?$AAy?$AAs?$AAt?$AAe?$AAm?$AA?5?$AAB?$AAo?$AAo?$AAt?$AA?5?$AAI?$AAn@ 00000000000dd8e8     UefiShellDebug1CommandsLib:QueryTable.obj
 0002:0001d920       ??_C@_1EE@NFBOJNAJ@?$AA?5?$AA6?$AA4?$AA?9?$AAb?$AAi?$AAt?$AA?5?$AAM?$AAe?$AAm?$AAo?$AAr?$AAy?$AA?5@ 00000000000dd920     UefiShellDebug1CommandsLib:QueryTable.obj
 0002:0001d968       ??_C@_1CI@BCNAMOJH@?$AA?5?$AAM?$AAa?$AAn?$AAa?$AAg?$AAe?$AAm?$AAe?$AAn?$AAt?$AA?5?$AAD?$AAe?$AAv@ 00000000000dd968     UefiShellDebug1CommandsLib:QueryTable.obj
 0002:0001d990       ??_C@_1DM@GCJAAPLD@?$AA?5?$AAM?$AAa?$AAn?$AAa?$AAg?$AAe?$AAm?$AAe?$AAn?$AAt?$AA?5?$AAD?$AAe?$AAv@ 00000000000dd990     UefiShellDebug1CommandsLib:QueryTable.obj
 0002:0001d9d0       ??_C@_1EG@KIKKBPNN@?$AA?5?$AAM?$AAa?$AAn?$AAa?$AAg?$AAe?$AAm?$AAe?$AAn?$AAt?$AA?5?$AAD?$AAe?$AAv@ 00000000000dd9d0     UefiShellDebug1CommandsLib:QueryTable.obj
 0002:0001da18       ??_C@_1CC@CDPDJPBM@?$AA?5?$AAM?$AAe?$AAm?$AAo?$AAr?$AAy?$AA?5?$AAC?$AAh?$AAa?$AAn?$AAn?$AAe?$AAl@ 00000000000dda18     UefiShellDebug1CommandsLib:QueryTable.obj
 0002:0001da40       ??_C@_1DE@KMAGHJDA@?$AA?5?$AAI?$AAP?$AAM?$AAI?$AA?5?$AAD?$AAe?$AAv?$AAi?$AAc?$AAe?$AA?5?$AAI?$AAn@ 00000000000dda40     UefiShellDebug1CommandsLib:QueryTable.obj
 0002:0001da78       ??_C@_1CK@OCDKGLHK@?$AA?5?$AAS?$AAy?$AAs?$AAt?$AAe?$AAm?$AA?5?$AAP?$AAo?$AAw?$AAe?$AAr?$AA?5?$AAS@ 00000000000dda78     UefiShellDebug1CommandsLib:QueryTable.obj
 0002:0001daa8       ??_C@_1DA@GLMBOCKD@?$AA?5?$AAA?$AAd?$AAd?$AAi?$AAt?$AAi?$AAo?$AAn?$AAa?$AAl?$AA?5?$AAI?$AAn?$AAf@ 00000000000ddaa8     UefiShellDebug1CommandsLib:QueryTable.obj
 0002:0001dae0       ??_C@_1EM@FKONMDEN@?$AA?5?$AAO?$AAn?$AAb?$AAo?$AAa?$AAr?$AAd?$AA?5?$AAD?$AAe?$AAv?$AAi?$AAc?$AAe@ 00000000000ddae0     UefiShellDebug1CommandsLib:QueryTable.obj
 0002:0001db30       ??_C@_1EM@CBPIKIMD@?$AA?5?$AAM?$AAa?$AAn?$AAa?$AAg?$AAe?$AAm?$AAe?$AAn?$AAt?$AA?5?$AAC?$AAo?$AAn@ 00000000000ddb30     UefiShellDebug1CommandsLib:QueryTable.obj
 0002:0001db80       ??_C@_1BI@EIFIKJJO@?$AA?5?$AAT?$AAP?$AAM?$AA?5?$AAD?$AAe?$AAv?$AAi?$AAc?$AAe@ 00000000000ddb80     UefiShellDebug1CommandsLib:QueryTable.obj
 0002:0001dba0       ??_C@_1EE@KMPPFPAD@?$AA?5?$AAP?$AAr?$AAo?$AAc?$AAe?$AAs?$AAs?$AAo?$AAr?$AA?5?$AAA?$AAd?$AAd?$AAi@ 00000000000ddba0     UefiShellDebug1CommandsLib:QueryTable.obj
 0002:0001dbe8       ??_C@_1BE@BOAAIAOA@?$AA?5?$AAI?$AAn?$AAa?$AAc?$AAt?$AAi?$AAv?$AAe@ 00000000000ddbe8     UefiShellDebug1CommandsLib:QueryTable.obj
 0002:0001dc00       ??_C@_1BO@BNMLPACJ@?$AA?5?$AAE?$AAn?$AAd?$AA?9?$AAo?$AAf?$AA?9?$AAT?$AAa?$AAb?$AAl?$AAe?$AA?5@ 00000000000ddc00     UefiShellDebug1CommandsLib:QueryTable.obj
 0002:0001dc20       ??_C@_1CC@PHEMCIPO@?$AAU?$AAn?$AAd?$AAe?$AAf?$AAi?$AAn?$AAe?$AAd?$AA?5?$AAV?$AAa?$AAl?$AAu?$AAe@ 00000000000ddc20     UefiShellDebug1CommandsLib:QueryTable.obj
 0002:0001dc48       ??_C@_17LPHJCAEE@?$AA?5?$AA?$HM?$AA?5@ 00000000000ddc48     UefiShellDebug1CommandsLib:QueryTable.obj
 0002:0001dc50       ??_C@_15MDIDNHP@?$AA1?$AA9@ 00000000000ddc50     UefiShellDebug1CommandsLib:EventLogInfo.obj
 0002:0001dc58       ??_C@_15PHKEAAFL@?$AA2?$AA0@ 00000000000ddc58     UefiShellDebug1CommandsLib:EventLogInfo.obj
 0002:0001dc60       ??_C@_1BC@PMCLIFFJ@?$AAI?$AAn?$AAs?$AAt?$AAa?$AAl?$AAl?$AA1@ 00000000000ddc60     UefiShellInstall1CommandsLib:UefiShellInstall1CommandsLib.obj
 0002:0001dc78       ??_C@_1BC@GCDGEHJC@?$AAn?$AAe?$AAt?$AAw?$AAo?$AAr?$AAk?$AA1@ 00000000000ddc78     UefiShellNetwork1CommandsLib:UefiShellNetwork1CommandsLib.obj
 0002:0001dc90       ??_C@_19LBJHAIBB@?$AAp?$AAi?$AAn?$AAg@ 00000000000ddc90     UefiShellNetwork1CommandsLib:UefiShellNetwork1CommandsLib.obj
 0002:0001dca0       ??_C@_1BC@BHCGFBDA@?$AAi?$AAf?$AAc?$AAo?$AAn?$AAf?$AAi?$AAg@ 00000000000ddca0     UefiShellNetwork1CommandsLib:UefiShellNetwork1CommandsLib.obj
 0002:0001dcb8       gShellNetwork1FileName     00000000000ddcb8     UefiShellNetwork1CommandsLib:UefiShellNetwork1CommandsLib.obj
 0002:0001dcd8       ??_C@_17HMPMOCEB@?$AA?9?$AA_?$AAs@ 00000000000ddcd8     UefiShellNetwork1CommandsLib:Ping.obj
 0002:0001dce0       ??_C@_1M@FLGNCPGP@?$AA?9?$AA_?$AAi?$AAp?$AA6@ 00000000000ddce0     UefiShellNetwork1CommandsLib:Ping.obj
 0002:0001dcf0       ??_C@_0DD@HLEHBLHL@Private?9?$DOProtocolPointers?4Trans@ 00000000000ddcf0     UefiShellNetwork1CommandsLib:Ping.obj
 0002:0001dd30       ??_C@_0EL@FGFENKDI@f?3?2uefiworkspace?2edk2?2ShellPkg?2@ 00000000000ddd30     UefiShellNetwork1CommandsLib:Ping.obj
 0002:0001dd80       ??_C@_0BH@BFEOOCHJ@Private?9?$DOIpChoice?5?$DN?$DN?51@ 00000000000ddd80     UefiShellNetwork1CommandsLib:Ping.obj
 0002:0001dd98       ??_C@_0BG@OBJJIHME@EfiSb?5?$CB?$DN?5?$CI?$CIvoid?5?$CK?$CJ?50?$CJ@ 00000000000ddd98     UefiShellNetwork1CommandsLib:Ping.obj
 0002:0001ddb0       ??_C@_0DH@LHHIJKOH@sizeof?5?$CIEFI_IPv4_ADDRESS?$CJ?5?$DM?$DN?5si@ 00000000000dddb0     UefiShellNetwork1CommandsLib:Ping.obj
 0002:0001ddf0       ??_C@_0EH@GFLFCDAN@sizeof?5?$CIEFI_IP4_COMPLETION_TOKE@ 00000000000dddf0     UefiShellNetwork1CommandsLib:Ping.obj
 0002:0001dea0       ??_C@_1O@IPFBFMHG@?$AAs?$AAt?$AAa?$AAt?$AAi?$AAc@ 00000000000ddea0     UefiShellNetwork1CommandsLib:Ifconfig.obj
 0002:0001deb0       ??_C@_19CCCIFFOF@?$AAd?$AAh?$AAc?$AAp@ 00000000000ddeb0     UefiShellNetwork1CommandsLib:Ifconfig.obj
 0002:0001dec0       ??_C@_17IFAIOPIP@?$AAd?$AAn?$AAs@ 00000000000ddec0     UefiShellNetwork1CommandsLib:Ifconfig.obj
 0002:0001dec8       ??_C@_0L@CLILBPOD@Size?5?$DM?$DN?532@ 00000000000ddec8     UefiShellNetwork1CommandsLib:Ifconfig.obj
 0002:0001dee0       ??_C@_0EP@LFFCDMNK@f?3?2uefiworkspace?2edk2?2ShellPkg?2@ 00000000000ddee0     UefiShellNetwork1CommandsLib:Ifconfig.obj
 0002:0001df30       ??_C@_1CG@GCGMOFLL@?$AAM?$AAe?$AAd?$AAi?$AAa?$AA?5?$AAd?$AAi?$AAs?$AAc?$AAo?$AAn?$AAn?$AAe?$AAc@ 00000000000ddf30     UefiShellNetwork1CommandsLib:Ifconfig.obj
 0002:0001df58       ??_C@_1BM@ODGIMFHP@?$AAM?$AAe?$AAd?$AAi?$AAa?$AA?5?$AAp?$AAr?$AAe?$AAs?$AAe?$AAn?$AAt@ 00000000000ddf58     UefiShellNetwork1CommandsLib:Ifconfig.obj
 0002:0001df78       ??_C@_1CI@GOABMHNO@?$AAM?$AAe?$AAd?$AAi?$AAa?$AA?5?$AAs?$AAt?$AAa?$AAt?$AAe?$AA?5?$AAu?$AAn?$AAk@ 00000000000ddf78     UefiShellNetwork1CommandsLib:Ifconfig.obj
 0002:0001dfa0       ??_C@_1BA@DPNEJNHG@?$AAS?$AAu?$AAb?$AAn?$AAe?$AAt?$AA?5@ 00000000000ddfa0     UefiShellNetwork1CommandsLib:Ifconfig.obj
 0002:0001dfb0       ??_C@_1BA@GLEDMPLM@?$AAN?$AAe?$AAt?$AAm?$AAa?$AAs?$AAk@ 00000000000ddfb0     UefiShellNetwork1CommandsLib:Ifconfig.obj
 0002:0001dfc0       ??_C@_1BA@LCJJAKKF@?$AAG?$AAa?$AAt?$AAe?$AAw?$AAa?$AAy@ 00000000000ddfc0     UefiShellNetwork1CommandsLib:Ifconfig.obj
 0002:0001dfd0       ??_C@_0BI@GONLCNCH@Private?5?$CB?$DN?5?$CI?$CIvoid?5?$CK?$CJ?50?$CJ@ 00000000000ddfd0     UefiShellNetwork1CommandsLib:Ifconfig.obj
 0002:0001e000       ??_C@_0FI@PJEDBJM@f?3?2uefiworkspace?2edk2?2MdeModule@ 00000000000de000     DxeReportStatusCodeLib:ReportStatusCodeLib.obj
 0002:0001e058       ??_C@_0DN@HHIHPHHB@?$CB?$CI?$CIExtendedData?5?$DN?$DN?5?$CI?$CIvoid?5?$CK?$CJ?50?$CJ@ 00000000000de058     DxeReportStatusCodeLib:ReportStatusCodeLib.obj
 0002:0001e098       ??_C@_0DN@BBBIFINB@?$CB?$CI?$CIExtendedData?5?$CB?$DN?5?$CI?$CIvoid?5?$CK?$CJ?50?$CJ@ 00000000000de098     DxeReportStatusCodeLib:ReportStatusCodeLib.obj
 0002:0001e0e0       ??_C@_0EH@LNGKEKLE@f?3?2uefiworkspace?2edk2?2MdePkg?2Li@ 00000000000de0e0     BaseMemoryLib:CompareMemWrapper.obj
 0002:0001e128       ??_C@_0BN@MDMCNBCC@SourceBuffer?5?$CB?$DN?5?$CI?$CIvoid?5?$CK?$CJ?50?$CJ@ 00000000000de128     BaseMemoryLib:CompareMemWrapper.obj
 0002:0001e148       ??_C@_0DJ@HKEEMDKA@f?3?2uefiworkspace?2edk2?2MdePkg?2Li@ 00000000000de148     BaseLib:QuickSort.obj
 0002:0001e188       ??_C@_0CB@PMBBAAMG@BufferOneElement?5?$CB?$DN?5?$CI?$CIvoid?5?$CK?$CJ?50@ 00000000000de188     BaseLib:QuickSort.obj
 0002:0001e1b0       ??_C@_0BB@HEFAKMBE@ElementSize?5?$DO?$DN?51@ 00000000000de1b0     BaseLib:QuickSort.obj
 0002:0001e1c8       ??_C@_0DJ@NCNHBNDN@f?3?2uefiworkspace?2edk2?2MdePkg?2Li@ 00000000000de1c8     BaseLib:ModU64x32.obj
 0002:0001e210       ??_C@_0EC@LJLCAGDH@f?3?2uefiworkspace?2edk2?2MdePkg?2Li@ 00000000000de210     BaseLib:DivU64x64Remainder.obj
 0002:0001e258       ??_C@_0DM@NMCFLIEG@f?3?2uefiworkspace?2edk2?2MdePkg?2Li@ 00000000000de258     UefiLib:UefiLibPrint.obj
 0002:0001e298       ??_C@_0CC@KPMNJIIF@?$CI?$CIUINTN?$CJFormat?5?$CG?50x00000001?$CJ?5?$DN?$DN@ 00000000000de298     UefiLib:UefiLibPrint.obj
 0002:0001e2c0       ??_C@_0BI@DIKLKBJC@Console?5?$CB?$DN?5?$CI?$CIvoid?5?$CK?$CJ?50?$CJ@ 00000000000de2c0     UefiLib:UefiLibPrint.obj
 0002:0001e2d8       ??_C@_0CJ@HBMCGOOM@StrSize?5?$CIBufferToReturn?$CJ?5?$DN?$DN?5Siz@ 00000000000de2d8     UefiLib:UefiLibPrint.obj
 0002:0001e308       ??_C@_0DM@NMFFNOAG@f?3?2uefiworkspace?2edk2?2MdePkg?2Li@ 00000000000de308     UefiLib:UefiNotTiano.obj
 0002:0001e348       ??_C@_0CB@OKGFGBHJ@FvDevicePathNode?5?$CB?$DN?5?$CI?$CIvoid?5?$CK?$CJ?50@ 00000000000de348     UefiLib:UefiNotTiano.obj
 0002:0001e370       ??_C@_0BJ@OAAKNPEN@Pe32Data?5?$CB?$DN?5?$CI?$CIvoid?5?$CK?$CJ?50?$CJ@ 00000000000de370     BasePeCoffGetEntryPointLib:PeCoffGetEntryPoint.obj
 0002:0001e390       ??_C@_0FG@IGELBEPD@f?3?2uefiworkspace?2edk2?2MdePkg?2Li@ 00000000000de390     BasePeCoffGetEntryPointLib:PeCoffGetEntryPoint.obj
 0002:0001e3e8       ??_C@_0CA@LDOGPNJA@OrderedCollectionIsEmpty?5?$CITree?$CJ@ 00000000000de3e8     BaseOrderedCollectionRedBlackTreeLib:BaseOrderedCollectionRedBlackTreeLib.obj
 0002:0001e410       ??_C@_0HB@GJGNOEPD@f?3?2uefiworkspace?2edk2?2MdePkg?2Li@ 00000000000de410     BaseOrderedCollectionRedBlackTreeLib:BaseOrderedCollectionRedBlackTreeLib.obj
 0002:0001e488       ??_C@_0BO@JHGBLDAL@GrandParent?5?$DN?$DN?5Parent?9?$DOParent@ 00000000000de488     BaseOrderedCollectionRedBlackTreeLib:BaseOrderedCollectionRedBlackTreeLib.obj
 0002:0001e4a8       ??_C@_0BI@LNFKHELA@Sibling?5?$CB?$DN?5?$CI?$CIvoid?5?$CK?$CJ?50?$CJ@ 00000000000de4a8     BaseOrderedCollectionRedBlackTreeLib:BaseOrderedCollectionRedBlackTreeLib.obj
 0002:0001e4c0       ??_C@_0CE@BFPIJPIP@Sibling?9?$DOColor?5?$DN?$DN?5RedBlackTreeB@ 00000000000de4c0     BaseOrderedCollectionRedBlackTreeLib:BaseOrderedCollectionRedBlackTreeLib.obj
 0002:0001e4e8       ??_C@_0BM@KOLHPPKJ@RightNephew?5?$CB?$DN?5?$CI?$CIvoid?5?$CK?$CJ?50?$CJ@ 00000000000de4e8     BaseOrderedCollectionRedBlackTreeLib:BaseOrderedCollectionRedBlackTreeLib.obj
 0002:0001e508       ??_C@_0CG@DHIMMODJ@RightNephew?9?$DOColor?5?$DN?$DN?5RedBlackT@ 00000000000de508     BaseOrderedCollectionRedBlackTreeLib:BaseOrderedCollectionRedBlackTreeLib.obj
 0002:0001e530       ??_C@_0BL@KAEICEIJ@LeftNephew?5?$CB?$DN?5?$CI?$CIvoid?5?$CK?$CJ?50?$CJ@ 00000000000de530     BaseOrderedCollectionRedBlackTreeLib:BaseOrderedCollectionRedBlackTreeLib.obj
 0002:0001e550       ??_C@_0CF@JIPHGPLG@LeftNephew?9?$DOColor?5?$DN?$DN?5RedBlackTr@ 00000000000de550     BaseOrderedCollectionRedBlackTreeLib:BaseOrderedCollectionRedBlackTreeLib.obj
 0002:0001e580       ??_C@_0ED@IGBEFDFD@Node?9?$DOColor?5?$DN?$DN?5RedBlackTreeRed?5@ 00000000000de580     BaseOrderedCollectionRedBlackTreeLib:BaseOrderedCollectionRedBlackTreeLib.obj
 0002:0001e5c8       ??_C@_0BP@FEMNMDIC@NodeIsNullOrBlack?5?$CINode?9?$DOLeft?$CJ@ 00000000000de5c8     BaseOrderedCollectionRedBlackTreeLib:BaseOrderedCollectionRedBlackTreeLib.obj
 0002:0001e5e8       ??_C@_0CA@EEEMOLLI@NodeIsNullOrBlack?5?$CINode?9?$DORight?$CJ@ 00000000000de5e8     BaseOrderedCollectionRedBlackTreeLib:BaseOrderedCollectionRedBlackTreeLib.obj
 0002:0001e608       ??_C@_0BK@MDECNOFB@LeftHeight?5?$DN?$DN?5RightHeight@ 00000000000de608     BaseOrderedCollectionRedBlackTreeLib:BaseOrderedCollectionRedBlackTreeLib.obj
 0002:0001e628       ??_C@_0BF@PAMKDJKB@RedBlackTreeValidate@ 00000000000de628     BaseOrderedCollectionRedBlackTreeLib:BaseOrderedCollectionRedBlackTreeLib.obj
 0002:0001e640       ??_C@_0N@EIIKKJGJ@?$CFa?3?5Tree?$DN?$CFp?6@ 00000000000de640     BaseOrderedCollectionRedBlackTreeLib:BaseOrderedCollectionRedBlackTreeLib.obj
 0002:0001e650       ??_C@_0BP@DGCGBACN@NodeIsNullOrBlack?5?$CITree?9?$DORoot?$CJ@ 00000000000de650     BaseOrderedCollectionRedBlackTreeLib:BaseOrderedCollectionRedBlackTreeLib.obj
 0002:0001e670       ??_C@_0EB@HHGJHFNM@Tree?9?$DOUserStructCompare?5?$CILast?9?$DO@ 00000000000de670     BaseOrderedCollectionRedBlackTreeLib:BaseOrderedCollectionRedBlackTreeLib.obj
 0002:0001e6c0       ??_C@_0EB@NNGALNFH@Tree?9?$DOUserStructCompare?5?$CILast?9?$DO@ 00000000000de6c0     BaseOrderedCollectionRedBlackTreeLib:BaseOrderedCollectionRedBlackTreeLib.obj
 0002:0001e708       ??_C@_0BO@CCHCGBOF@ForwardCount?5?$DN?$DN?5BackwardCount@ 00000000000de708     BaseOrderedCollectionRedBlackTreeLib:BaseOrderedCollectionRedBlackTreeLib.obj
 0002:0001e728       ??_C@_0CH@KNNAGDPC@?$CFa?3?5Tree?$DN?$CFp?5BlackHeight?$DN?$CFLd?5Cou@ 00000000000de728     BaseOrderedCollectionRedBlackTreeLib:BaseOrderedCollectionRedBlackTreeLib.obj
 0002:0001e750       ??_C@_0BA@DAGHIEBA@?$CIPort?5?$CG?51?$CJ?5?$DN?$DN?50@ 00000000000de750     BaseIoLibIntrinsic:IoLibMsc.obj
 0002:0001e760       ??_C@_0ED@JNIBKKPM@f?3?2uefiworkspace?2edk2?2MdePkg?2Li@ 00000000000de760     BaseIoLibIntrinsic:IoLibMsc.obj
 0002:0001e7a8       ??_C@_0BA@HCECIDGN@?$CIPort?5?$CG?53?$CJ?5?$DN?$DN?50@ 00000000000de7a8     BaseIoLibIntrinsic:IoLibMsc.obj
 0002:0001e7c0       ??_C@_0EA@HPFLCBHD@f?3?2uefiworkspace?2edk2?2MdePkg?2Li@ 00000000000de7c0     BaseIoLibIntrinsic:IoLib.obj
 0002:0001e800       ??_C@_0BD@KOOFJLFH@?$CIAddress?5?$CG?51?$CJ?5?$DN?$DN?50@ 00000000000de800     BaseIoLibIntrinsic:IoLib.obj
 0002:0001e818       ??_C@_0BD@OMMAJMCK@?$CIAddress?5?$CG?53?$CJ?5?$DN?$DN?50@ 00000000000de818     BaseIoLibIntrinsic:IoLib.obj
 0002:0001e830       ??_C@_0BD@GIIKJCNA@?$CIAddress?5?$CG?57?$CJ?5?$DN?$DN?50@ 00000000000de830     BaseIoLibIntrinsic:IoLib.obj
 0002:0001e850       ??_C@_0EP@FHGADAPC@f?3?2uefiworkspace?2edk2?2MdePkg?2Li@ 00000000000de850     BaseIoLibIntrinsic:IoLibInternalTdxNull.obj
 0002:0001e8a0       ??_C@_19JCAOHIEH@?$AAB?$AAo?$AAo?$AAt@ 00000000000de8a0     UefiShellBcfgCommandLib:UefiShellBcfgCommandLib.obj
 0002:0001e8b0       ??_C@_1O@GAOCKAOK@?$AAD?$AAr?$AAi?$AAv?$AAe?$AAr@ 00000000000de8b0     UefiShellBcfgCommandLib:UefiShellBcfgCommandLib.obj
 0002:0001e8c0       ??_C@_1O@CJIOJFKI@?$AA?$CF?$AAs?$AA?$CF?$AA0?$AA4?$AAx@ 00000000000de8c0     UefiShellBcfgCommandLib:UefiShellBcfgCommandLib.obj
 0002:0001e8d0       ??_C@_0BN@OAGJBDOI@OriginalData?5?$CB?$DN?5?$CI?$CIvoid?5?$CK?$CJ?50?$CJ@ 00000000000de8d0     UefiShellBcfgCommandLib:UefiShellBcfgCommandLib.obj
 0002:0001e8f0       ??_C@_0FJ@EFGJIDBM@f?3?2uefiworkspace?2edk2?2ShellPkg?2@ 00000000000de8f0     UefiShellBcfgCommandLib:UefiShellBcfgCommandLib.obj
 0002:0001e950       ??_C@_1BE@CJHCMCEN@?$AA?$CF?$AAB?$AAo?$AAo?$AAt?$AA?$CF?$AA0?$AA4?$AAx@ 00000000000de950     UefiShellBcfgCommandLib:UefiShellBcfgCommandLib.obj
 0002:0001e968       ??_C@_1BM@OGCIILMP@?$AAH?$AAa?$AAn?$AAd?$AAl?$AAe?$AA?5?$AAN?$AAu?$AAm?$AAb?$AAe?$AAr@ 00000000000de968     UefiShellBcfgCommandLib:UefiShellBcfgCommandLib.obj
 0002:0001e988       ??_C@_19OPFPMHGB@?$AAb?$AAc?$AAf?$AAg@ 00000000000de988     UefiShellBcfgCommandLib:UefiShellBcfgCommandLib.obj
 0002:0001e9a0       ??_C@_1EK@LKIONLFB@?$AAH?$AAa?$AAn?$AAd?$AAl?$AAe?$AA?5?$AAs?$AAh?$AAo?$AAu?$AAl?$AAd?$AA?5?$AAp@ 00000000000de9a0     UefiShellBcfgCommandLib:UefiShellBcfgCommandLib.obj
 0002:0001e9f0       ??_C@_1EG@JKFBOBM@?$AAH?$AAa?$AAn?$AAd?$AAl?$AAe?$AA?5?$AAs?$AAh?$AAo?$AAu?$AAl?$AAd?$AA?5?$AAp@ 00000000000de9f0     UefiShellBcfgCommandLib:UefiShellBcfgCommandLib.obj
 0002:0001ea38       ??_C@_1BC@HAMKBGJJ@?$AAB?$AAo?$AAo?$AAt?$AA?$CF?$AA0?$AA4?$AAx@ 00000000000dea38     UefiShellBcfgCommandLib:UefiShellBcfgCommandLib.obj
 0002:0001ea50       ??_C@_1BG@IKNMHBCC@?$AAD?$AAr?$AAi?$AAv?$AAe?$AAr?$AA?$CF?$AA0?$AA4?$AAx@ 00000000000dea50     UefiShellBcfgCommandLib:UefiShellBcfgCommandLib.obj
 0002:0001ea68       ??_C@_1BE@CHCFCNKI@?$AAB?$AAo?$AAo?$AAt?$AAO?$AAr?$AAd?$AAe?$AAr@ 00000000000dea68     UefiShellBcfgCommandLib:UefiShellBcfgCommandLib.obj
 0002:0001ea80       ??_C@_1BI@PDMCFEDG@?$AAD?$AAr?$AAi?$AAv?$AAe?$AAr?$AAO?$AAr?$AAd?$AAe?$AAr@ 00000000000dea80     UefiShellBcfgCommandLib:UefiShellBcfgCommandLib.obj
 0002:0001ea98       ??_C@_1CI@FLOHBJHM@?$AAb?$AAc?$AAf?$AAg?$AA?3?$AA?5?$AAA?$AAd?$AAd?$AA?5?$AA?$CF?$AAs?$AA?5?$AAa?$AAs@ 00000000000dea98     UefiShellBcfgCommandLib:UefiShellBcfgCommandLib.obj
 0002:0001eac0       ??_C@_1BK@NLJJBAJP@?$AAO?$AAp?$AAt?$AAi?$AAo?$AAn?$AA?5?$AAI?$AAn?$AAd?$AAe?$AAx@ 00000000000deac0     UefiShellBcfgCommandLib:UefiShellBcfgCommandLib.obj
 0002:0001eae0       ??_C@_0BG@HLEJBMDK@Temp2?5?$CB?$DN?5?$CI?$CIvoid?5?$CK?$CJ?50?$CJ@ 00000000000deae0     UefiShellBcfgCommandLib:UefiShellBcfgCommandLib.obj
 0002:0001eaf8       ??_C@_0BK@FIHHKA@OptionIndex?5?$DM?$DN?5OrderCount@ 00000000000deaf8     UefiShellBcfgCommandLib:UefiShellBcfgCommandLib.obj
 0002:0001eb18       ??_C@_1BA@MLKFGFON@?$AAK?$AAe?$AAy?$AA?$CF?$AA0?$AA4?$AAx@ 00000000000deb18     UefiShellBcfgCommandLib:UefiShellBcfgCommandLib.obj
 0002:0001eb28       ??_C@_0DB@OGBPPANN@FileName?5?$DN?$DN?5?$CI?$CIvoid?5?$CK?$CJ?50?$CJ?5?$CG?$CG?5Dat@ 00000000000deb28     UefiShellBcfgCommandLib:UefiShellBcfgCommandLib.obj
 0002:0001eb60       ??_C@_0DB@FNAJIKFH@FileName?5?$DN?$DN?5?$CI?$CIvoid?5?$CK?$CJ?50?$CJ?5?$HM?$HM?5Dat@ 00000000000deb60     UefiShellBcfgCommandLib:UefiShellBcfgCommandLib.obj
 0002:0001eb98       ??_C@_0BH@PJCFHJ@Struct?5?$CB?$DN?5?$CI?$CIvoid?5?$CK?$CJ?50?$CJ@ 00000000000deb98     UefiShellBcfgCommandLib:UefiShellBcfgCommandLib.obj
 0002:0001ebb0       ??_C@_19EAGCJHPE@?$AA?9?$AAo?$AAp?$AAt@ 00000000000debb0     UefiShellBcfgCommandLib:UefiShellBcfgCommandLib.obj
 0002:0001ebc0       ??_C@_1O@KNIGNIDC@?$AAd?$AAr?$AAi?$AAv?$AAe?$AAr@ 00000000000debc0     UefiShellBcfgCommandLib:UefiShellBcfgCommandLib.obj
 0002:0001ebd0       ??_C@_19NNFDHLJH@?$AAb?$AAo?$AAo?$AAt@ 00000000000debd0     UefiShellBcfgCommandLib:UefiShellBcfgCommandLib.obj
 0002:0001ebe0       ??_C@_19PPJMBAGP@?$AAd?$AAu?$AAm?$AAp@ 00000000000debe0     UefiShellBcfgCommandLib:UefiShellBcfgCommandLib.obj
 0002:0001ebf0       ??_C@_1CE@HIJPIOH@?$AA?9?$AAv?$AA?5?$AA?$CI?$AAw?$AAi?$AAt?$AAh?$AAo?$AAu?$AAt?$AA?5?$AAd?$AAu?$AAm@ 00000000000debf0     UefiShellBcfgCommandLib:UefiShellBcfgCommandLib.obj
 0002:0001ec18       ??_C@_17KBLNKNKL@?$AAa?$AAd?$AAd@ 00000000000dec18     UefiShellBcfgCommandLib:UefiShellBcfgCommandLib.obj
 0002:0001ec20       ??_C@_0CK@FNHGLDIL@CurrentOperation?4FileName?5?$DN?$DN?5?$CI?$CI@ 00000000000dec20     UefiShellBcfgCommandLib:UefiShellBcfgCommandLib.obj
 0002:0001ec50       ??_C@_0CN@KKKPOPMN@CurrentOperation?4Description?5?$DN?$DN@ 00000000000dec50     UefiShellBcfgCommandLib:UefiShellBcfgCommandLib.obj
 0002:0001ec80       ??_C@_19IOKLLLFG@?$AAa?$AAd?$AAd?$AAp@ 00000000000dec80     UefiShellBcfgCommandLib:UefiShellBcfgCommandLib.obj
 0002:0001ec90       ??_C@_19BLAGMECG@?$AAa?$AAd?$AAd?$AAh@ 00000000000dec90     UefiShellBcfgCommandLib:UefiShellBcfgCommandLib.obj
 0002:0001eca0       ??_C@_17JMNFEICH@?$AAm?$AAo?$AAd@ 00000000000deca0     UefiShellBcfgCommandLib:UefiShellBcfgCommandLib.obj
 0002:0001eca8       ??_C@_19LMIPEPMN@?$AAm?$AAo?$AAd?$AAf@ 00000000000deca8     UefiShellBcfgCommandLib:UefiShellBcfgCommandLib.obj
 0002:0001ecb8       ??_C@_19MJPNEHIO@?$AAm?$AAo?$AAd?$AAp@ 00000000000decb8     UefiShellBcfgCommandLib:UefiShellBcfgCommandLib.obj
 0002:0001ecc8       ??_C@_19FMFADIPO@?$AAm?$AAo?$AAd?$AAh@ 00000000000decc8     UefiShellBcfgCommandLib:UefiShellBcfgCommandLib.obj
 0002:0001ed28       ??_C@_0DP@PENCBBJA@f?3?2uefiworkspace?2edk2?2NetworkPk@ 00000000000ded28     DxeNetLib:DxeNetLib.obj
 0002:0001ed68       ??_C@_0N@NMJPNKHJ@NetMask?5?$CB?$DN?50@ 00000000000ded68     DxeNetLib:DxeNetLib.obj
 0002:0001ed78       ??_C@_0CI@KOOBFNBF@?$CIMaskLength?5?$DO?$DN?50?$CJ?5?$CG?$CG?5?$CIMaskLengt@ 00000000000ded78     DxeNetLib:DxeNetLib.obj
 0002:0001eda0       ??_C@_0BE@FCBOEPIJ@Ip6?5?$CB?$DN?5?$CI?$CIvoid?5?$CK?$CJ?50?$CJ@ 00000000000deda0     DxeNetLib:DxeNetLib.obj
 0002:0001edb8       ??_C@_0BN@NHNKBDLL@MediaPresent?5?$CB?$DN?5?$CI?$CIvoid?5?$CK?$CJ?50?$CJ@ 00000000000dedb8     DxeNetLib:DxeNetLib.obj
 0002:0001edd8       ??_C@_0BM@CPKMECHF@MCastFilter?5?$CB?$DN?5?$CI?$CIvoid?5?$CK?$CJ?50?$CJ@ 00000000000dedd8     DxeNetLib:DxeNetLib.obj
 0002:0001edf8       ??_C@_1BA@IBFPPJON@?$AAS?$AAy?$AAs?$AAP?$AAr?$AAe?$AAp@ 00000000000dedf8     UefiBootManagerLib:BmLoadOption.obj
 0002:0001ee08       ??_C@_1CC@LGMJPJO@?$AAP?$AAl?$AAa?$AAt?$AAf?$AAo?$AAr?$AAm?$AAR?$AAe?$AAc?$AAo?$AAv?$AAe?$AAr@ 00000000000dee08     UefiBootManagerLib:BmLoadOption.obj
 0002:0001ee30       ??_C@_0EN@GMIALPFM@f?3?2uefiworkspace?2edk2?2MdeModule@ 00000000000dee30     UefiBootManagerLib:BmLoadOption.obj
 0002:0001ee80       ??_C@_0BJ@DLOFCCCI@Variable?5?$CB?$DN?5?$CI?$CIvoid?5?$CK?$CJ?50?$CJ@ 00000000000dee80     UefiBootManagerLib:BmLoadOption.obj
 0002:0001eea0       ??_C@_0CM@MAOCOHA@String?5?$CB?$DN?5?$CI?$CIvoid?5?$CK?$CJ?50?$CJ?5?$CG?$CG?5MaxSt@ 00000000000deea0     UefiBootManagerLib:BmLoadOption.obj
 0002:0001eed0       ??_C@_0BO@DIMHDDCF@TotalSize?5?$DM?$DN?5?$CI?$CIUINT16?$CJ0xFFFF?$CJ@ 00000000000deed0     VariablePolicyHelperLib:VariablePolicyHelperLib.obj
 0002:0001eef0       ??_C@_0FN@OLMPFOCM@f?3?2uefiworkspace?2edk2?2MdeModule@ 00000000000deef0     VariablePolicyHelperLib:VariablePolicyHelperLib.obj
 0002:0001efa4       __volatile_metadata        00000000000defa4     <linker-defined>
 0003:00000000       gEfiStatusCodeSpecificDataGuid 00000000000e0000     Shell:AutoGen.obj
 0003:00000010       gEfiDriverDiagnostics2ProtocolGuid 00000000000e0010     Shell:AutoGen.obj
 0003:00000020       gEfiResetArchProtocolGuid  00000000000e0020     Shell:AutoGen.obj
 0003:00000030       gEfiAdapterInfoUndiIpv6SupportGuid 00000000000e0030     Shell:AutoGen.obj
 0003:00000040       gEfiMmAccessProtocolGuid   00000000000e0040     Shell:AutoGen.obj
 0003:00000050       gEfiMmStatusCodeProtocolGuid 00000000000e0050     Shell:AutoGen.obj
 0003:00000060       gEfiI2cMasterProtocolGuid  00000000000e0060     Shell:AutoGen.obj
 0003:00000070       gEfiAuthenticationInfoProtocolGuid 00000000000e0070     Shell:AutoGen.obj
 0003:00000080       gEfiMpServiceProtocolGuid  00000000000e0080     Shell:AutoGen.obj
 0003:00000090       gEfiSecurityPolicyProtocolGuid 00000000000e0090     Shell:AutoGen.obj
 0003:000000a0       gEfiDriverHealthProtocolGuid 00000000000e00a0     Shell:AutoGen.obj
 0003:000000b0       gEfiDns4ServiceBindingProtocolGuid 00000000000e00b0     Shell:AutoGen.obj
 0003:000000c0       gEfiBluetoothIoProtocolGuid 00000000000e00c0     Shell:AutoGen.obj
 0003:000000d0       gEfiUserCredentialProtocolGuid 00000000000e00d0     Shell:AutoGen.obj
 0003:000000e0       gEfiDhcp6ServiceBindingProtocolGuid 00000000000e00e0     Shell:AutoGen.obj
 0003:000000f0       gEfiPciRootBridgeIoProtocolGuid 00000000000e00f0     Shell:AutoGen.obj
 0003:00000100       gEfiGlobalVariableGuid     00000000000e0100     Shell:AutoGen.obj
 0003:00000110       gEfiMmRscHandlerProtocolGuid 00000000000e0110     Shell:AutoGen.obj
 0003:00000120       gEfiAdapterInfoSanMacAddressGuid 00000000000e0120     Shell:AutoGen.obj
 0003:00000130       gEfiJsonConfigDataTableGuid 00000000000e0130     Shell:AutoGen.obj
 0003:00000140       gEfiRestProtocolGuid       00000000000e0140     Shell:AutoGen.obj
 0003:00000150       gEfiVirtualCdGuid          00000000000e0150     Shell:AutoGen.obj
 0003:00000160       gEfiSmmCommunicationProtocolGuid 00000000000e0160     Shell:AutoGen.obj
 0003:00000170       gEfiStatusCodeRuntimeProtocolGuid 00000000000e0170     Shell:AutoGen.obj
 0003:00000180       gEfiSmartCardReaderProtocolGuid 00000000000e0180     Shell:AutoGen.obj
 0003:00000190       gEfiPkcs7VerifyProtocolGuid 00000000000e0190     Shell:AutoGen.obj
 0003:000001a0       gEfiSecurityArchProtocolGuid 00000000000e01a0     Shell:AutoGen.obj
 0003:000001b0       gEfiBluetoothHcProtocolGuid 00000000000e01b0     Shell:AutoGen.obj
 0003:000001c0       gEfiDiskInfoProtocolGuid   00000000000e01c0     Shell:AutoGen.obj
 0003:000001d0       gEfiFirmwareVolumeBlockProtocolGuid 00000000000e01d0     Shell:AutoGen.obj
 0003:000001e0       gEfiEraseBlockProtocolGuid 00000000000e01e0     Shell:AutoGen.obj
 0003:000001f0       gEfiIpSecProtocolGuid      00000000000e01f0     Shell:AutoGen.obj
 0003:00000200       gEfiDriverDiagnosticsProtocolGuid 00000000000e0200     Shell:AutoGen.obj
 0003:00000210       gEfiConsoleOutDeviceGuid   00000000000e0210     Shell:AutoGen.obj
 0003:00000220       gEfiRamDiskProtocolGuid    00000000000e0220     Shell:AutoGen.obj
 0003:00000230       gEfiI2cHostProtocolGuid    00000000000e0230     Shell:AutoGen.obj
 0003:00000240       gEfiI2cIoProtocolGuid      00000000000e0240     Shell:AutoGen.obj
 0003:00000250       gEfiPxeBaseCodeProtocolGuid 00000000000e0250     Shell:AutoGen.obj
 0003:00000260       gShellLevel2HiiGuid        00000000000e0260     Shell:AutoGen.obj
 0003:00000270       gEfiEdidDiscoveredProtocolGuid 00000000000e0270     Shell:AutoGen.obj
 0003:00000280       ShellStrings               00000000000e0280     Shell:AutoGen.obj
 0003:00000838       gEfiEapProtocolGuid        00000000000e0838     Shell:AutoGen.obj
 0003:00000848       gEfiWatchdogTimerArchProtocolGuid 00000000000e0848     Shell:AutoGen.obj
 0003:00000858       gEfiExtScsiPassThruProtocolGuid 00000000000e0858     Shell:AutoGen.obj
 0003:00000868       gEfiMmSxDispatchProtocolGuid 00000000000e0868     Shell:AutoGen.obj
 0003:00000878       gEfiMmGpiDispatchProtocolGuid 00000000000e0878     Shell:AutoGen.obj
 0003:00000888       gEfiSmmUsbDispatch2ProtocolGuid 00000000000e0888     Shell:AutoGen.obj
 0003:00000898       gEfiUsbHcProtocolGuid      00000000000e0898     Shell:AutoGen.obj
 0003:000008a8       gEfiDns4ProtocolGuid       00000000000e08a8     Shell:AutoGen.obj
 0003:000008b8       gEfiLoadedImageDevicePathProtocolGuid 00000000000e08b8     Shell:AutoGen.obj
 0003:000008c8       gEfiIScsiInitiatorNameProtocolGuid 00000000000e08c8     Shell:AutoGen.obj
 0003:000008d8       gShellBcfgHiiGuid          00000000000e08d8     Shell:AutoGen.obj
 0003:000008e8       gEfiUnicodeCollation2ProtocolGuid 00000000000e08e8     Shell:AutoGen.obj
 0003:000008f8       gEfiDriverSupportedEfiVersionProtocolGuid 00000000000e08f8     Shell:AutoGen.obj
 0003:00000908       gEfiKmsProtocolGuid        00000000000e0908     Shell:AutoGen.obj
 0003:00000918       gEfiMpsTableGuid           00000000000e0918     Shell:AutoGen.obj
 0003:00000928       gEfiSmmStatusCodeProtocolGuid 00000000000e0928     Shell:AutoGen.obj
 0003:00000938       gEfiTlsProtocolGuid        00000000000e0938     Shell:AutoGen.obj
 0003:00000948       gEfiAtaPassThruProtocolGuid 00000000000e0948     Shell:AutoGen.obj
 0003:00000958       gEfiJsonCapsuleResultTableGuid 00000000000e0958     Shell:AutoGen.obj
 0003:00000968       gEfiRngProtocolGuid        00000000000e0968     Shell:AutoGen.obj
 0003:00000978       gEfiBdsArchProtocolGuid    00000000000e0978     Shell:AutoGen.obj
 0003:00000988       gEfiDxeMmReadyToLockProtocolGuid 00000000000e0988     Shell:AutoGen.obj
 0003:00000998       gEfiSupplicantProtocolGuid 00000000000e0998     Shell:AutoGen.obj
 0003:000009a8       gEfiMtftp4ProtocolGuid     00000000000e09a8     Shell:AutoGen.obj
 0003:000009b8       gEfiHiiPackageListProtocolGuid 00000000000e09b8     Shell:AutoGen.obj
 0003:000009c8       gEfiComponentName2ProtocolGuid 00000000000e09c8     Shell:AutoGen.obj
 0003:000009d8       gEfiIncompatiblePciDeviceSupportProtocolGuid 00000000000e09d8     Shell:AutoGen.obj
 0003:000009e8       gEfiPersistentVirtualDiskGuid 00000000000e09e8     Shell:AutoGen.obj
 0003:000009f8       gEfiPartTypeLegacyMbrGuid  00000000000e09f8     Shell:AutoGen.obj
 0003:00000a08       gEfiBlockIo2ProtocolGuid   00000000000e0a08     Shell:AutoGen.obj
 0003:00000a18       gEfiHash2ServiceBindingProtocolGuid 00000000000e0a18     Shell:AutoGen.obj
 0003:00000a28       gEfiSupplicantServiceBindingProtocolGuid 00000000000e0a28     Shell:AutoGen.obj
 0003:00000a38       gEfiImageSecurityDatabaseGuid 00000000000e0a38     Shell:AutoGen.obj
 0003:00000a48       gEfiVariableWriteArchProtocolGuid 00000000000e0a48     Shell:AutoGen.obj
 0003:00000a58       gEfiSdMmcPassThruProtocolGuid 00000000000e0a58     Shell:AutoGen.obj
 0003:00000a68       gEfiEapManagementProtocolGuid 00000000000e0a68     Shell:AutoGen.obj
 0003:00000a78       gEfiRegularExpressionProtocolGuid 00000000000e0a78     Shell:AutoGen.obj
 0003:00000a88       gEfiTlsServiceBindingProtocolGuid 00000000000e0a88     Shell:AutoGen.obj
 0003:00000a98       gEfiHttpProtocolGuid       00000000000e0a98     Shell:AutoGen.obj
 0003:00000aa8       gPcdProtocolGuid           00000000000e0aa8     Shell:AutoGen.obj
 0003:00000ab8       gEfiDxeSmmReadyToLockProtocolGuid 00000000000e0ab8     Shell:AutoGen.obj
 0003:00000ac8       gEfiSmmCpuProtocolGuid     00000000000e0ac8     Shell:AutoGen.obj
 0003:00000ad8       gEfiAdapterInformationProtocolGuid 00000000000e0ad8     Shell:AutoGen.obj
 0003:00000ae8       gEfiSimpleTextOutProtocolGuid 00000000000e0ae8     Shell:AutoGen.obj
 0003:00000af8       gEfiVTUTF8Guid             00000000000e0af8     Shell:AutoGen.obj
 0003:00000b08       gEfiLoadFileProtocolGuid   00000000000e0b08     Shell:AutoGen.obj
 0003:00000b18       gEfiConfigKeywordHandlerProtocolGuid 00000000000e0b18     Shell:AutoGen.obj
 0003:00000b28       gEfiCapsuleArchProtocolGuid 00000000000e0b28     Shell:AutoGen.obj
 0003:00000b38       gEfiSmbusHcProtocolGuid    00000000000e0b38     Shell:AutoGen.obj
 0003:00000b48       gEfiDeferredImageLoadProtocolGuid 00000000000e0b48     Shell:AutoGen.obj
 0003:00000b58       gEfiUsb2HcProtocolGuid     00000000000e0b58     Shell:AutoGen.obj
 0003:00000b68       gEfiShellDynamicCommandProtocolGuid 00000000000e0b68     Shell:AutoGen.obj
 0003:00000b78       gEfiMtftp6ServiceBindingProtocolGuid 00000000000e0b78     Shell:AutoGen.obj
 0003:00000b88       gEfiDhcp6ProtocolGuid      00000000000e0b88     Shell:AutoGen.obj
 0003:00000b98       gEfiFileSystemInfoGuid     00000000000e0b98     Shell:AutoGen.obj
 0003:00000ba8       gEfiSimplePointerProtocolGuid 00000000000e0ba8     Shell:AutoGen.obj
 0003:00000bb8       gEfiSmmCpuIo2ProtocolGuid  00000000000e0bb8     Shell:AutoGen.obj
 0003:00000bc8       gEfiMmCpuIoProtocolGuid    00000000000e0bc8     Shell:AutoGen.obj
 0003:00000bd8       gEfiMmBaseProtocolGuid     00000000000e0bd8     Shell:AutoGen.obj
 0003:00000be8       gEfiRestExProtocolGuid     00000000000e0be8     Shell:AutoGen.obj
 0003:00000bf8       gEfiUserCredential2ProtocolGuid 00000000000e0bf8     Shell:AutoGen.obj
 0003:00000c08       gEfiDriverConfiguration2ProtocolGuid 00000000000e0c08     Shell:AutoGen.obj
 0003:00000c18       gShellLevel1HiiGuid        00000000000e0c18     Shell:AutoGen.obj
 0003:00000c28       gEfiHiiImageExProtocolGuid 00000000000e0c28     Shell:AutoGen.obj
 0003:00000c38       gEfiSerialIoProtocolGuid   00000000000e0c38     Shell:AutoGen.obj
 0003:00000c48       gEfiDiskIoProtocolGuid     00000000000e0c48     Shell:AutoGen.obj
 0003:00000c58       gEfiVlanConfigProtocolGuid 00000000000e0c58     Shell:AutoGen.obj
 0003:00000c68       gEfiShellEnvironment2ExtGuid 00000000000e0c68     Shell:AutoGen.obj
 0003:00000c78       gEfiPciHotPlugRequestProtocolGuid 00000000000e0c78     Shell:AutoGen.obj
 0003:00000c88       gEfiNetworkInterfaceIdentifierProtocolGuid_31 00000000000e0c88     Shell:AutoGen.obj
 0003:00000c98       gEfiMmReadyToLockProtocolGuid 00000000000e0c98     Shell:AutoGen.obj
 0003:00000ca8       gEfiFirmwareVolumeBlock2ProtocolGuid 00000000000e0ca8     Shell:AutoGen.obj
 0003:00000cb8       gEfiGetPcdInfoProtocolGuid 00000000000e0cb8     Shell:AutoGen.obj
 0003:00000cc8       gEfiFileInfoGuid           00000000000e0cc8     Shell:AutoGen.obj
 0003:00000cd8       gEfiHashServiceBindingProtocolGuid 00000000000e0cd8     Shell:AutoGen.obj
 0003:00000ce8       gEfiSioControlProtocolGuid 00000000000e0ce8     Shell:AutoGen.obj
 0003:00000cf8       gEfiUartDevicePathGuid     00000000000e0cf8     Shell:AutoGen.obj
 0003:00000d08       gEfiEbcProtocolGuid        00000000000e0d08     Shell:AutoGen.obj
 0003:00000d18       gEfiSmmRscHandlerProtocolGuid 00000000000e0d18     Shell:AutoGen.obj
 0003:00000d28       gEfiDhcp4ServiceBindingProtocolGuid 00000000000e0d28     Shell:AutoGen.obj
 0003:00000d38       gEfiNvmExpressPassThruProtocolGuid 00000000000e0d38     Shell:AutoGen.obj
 0003:00000d48       gEfiJsonCapsuleDataTableGuid 00000000000e0d48     Shell:AutoGen.obj
 0003:00000d58       gEfiRtPropertiesTableGuid  00000000000e0d58     Shell:AutoGen.obj
 0003:00000d68       gEfiVT100Guid              00000000000e0d68     Shell:AutoGen.obj
 0003:00000d78       gEfiDevicePathProtocolGuid 00000000000e0d78     Shell:AutoGen.obj
 0003:00000d88       gEfiDriverFamilyOverrideProtocolGuid 00000000000e0d88     Shell:AutoGen.obj
 0003:00000d98       gEfiPciIoProtocolGuid      00000000000e0d98     Shell:AutoGen.obj
 0003:00000da8       gEfiLoadedImageProtocolGuid 00000000000e0da8     Shell:AutoGen.obj
 0003:00000db8       gEfiPciHostBridgeResourceAllocationProtocolGuid 00000000000e0db8     Shell:AutoGen.obj
 0003:00000dc8       gEfiSmmGpiDispatch2ProtocolGuid 00000000000e0dc8     Shell:AutoGen.obj
 0003:00000dd8       gEfiStandardErrorDeviceGuid 00000000000e0dd8     Shell:AutoGen.obj
 0003:00000de8       gShellDebug1HiiGuid        00000000000e0de8     Shell:AutoGen.obj
 0003:00000df8       gEfiFirmwareVolume2ProtocolGuid 00000000000e0df8     Shell:AutoGen.obj
 0003:00000e08       gEfiMemoryAttributesTableGuid 00000000000e0e08     Shell:AutoGen.obj
 0003:00000e18       gEfiWiFi2ProtocolGuid      00000000000e0e18     Shell:AutoGen.obj
 0003:00000e28       gEfiIp6ConfigProtocolGuid  00000000000e0e28     Shell:AutoGen.obj
 0003:00000e38       gEfiBootManagerPolicyProtocolGuid 00000000000e0e38     Shell:AutoGen.obj
 0003:00000e48       gEfiMmPowerButtonDispatchProtocolGuid 00000000000e0e48     Shell:AutoGen.obj
 0003:00000e58       gEfiSmbiosProtocolGuid     00000000000e0e58     Shell:AutoGen.obj
 0003:00000e68       gEfiSimpleNetworkProtocolGuid 00000000000e0e68     Shell:AutoGen.obj
 0003:00000e78       gEfiCallerBaseName         00000000000e0e78     Shell:AutoGen.obj
 0003:00000e80       gEfiSmmIoTrapDispatch2ProtocolGuid 00000000000e0e80     Shell:AutoGen.obj
 0003:00000e90       gEfiBusSpecificDriverOverrideProtocolGuid 00000000000e0e90     Shell:AutoGen.obj
 0003:00000ea0       gEfiIpSec2ProtocolGuid     00000000000e0ea0     Shell:AutoGen.obj
 0003:00000eb0       gEfiDevicePathToTextProtocolGuid 00000000000e0eb0     Shell:AutoGen.obj
 0003:00000ec0       gEfiIsaHcProtocolGuid      00000000000e0ec0     Shell:AutoGen.obj
 0003:00000ed0       gEfiLegacyRegion2ProtocolGuid 00000000000e0ed0     Shell:AutoGen.obj
 0003:00000ee0       gEfiUsbFunctionIoProtocolGuid 00000000000e0ee0     Shell:AutoGen.obj
 0003:00000ef0       gEfiHiiConfigRoutingProtocolGuid 00000000000e0ef0     Shell:AutoGen.obj
 0003:00000f00       gEfiI2cBusConfigurationManagementProtocolGuid 00000000000e0f00     Shell:AutoGen.obj
 0003:00000f10       gEfiAcpi10TableGuid        00000000000e0f10     Shell:AutoGen.obj
 0003:00000f20       gEfiEapConfigurationProtocolGuid 00000000000e0f20     Shell:AutoGen.obj
 0003:00000f30       gEfiWiFiProtocolGuid       00000000000e0f30     Shell:AutoGen.obj
 0003:00000f40       gEfiMmSwDispatchProtocolGuid 00000000000e0f40     Shell:AutoGen.obj
 0003:00000f50       gEfiS3SmmSaveStateProtocolGuid 00000000000e0f50     Shell:AutoGen.obj
 0003:00000f60       gEfiPciOverrideProtocolGuid 00000000000e0f60     Shell:AutoGen.obj
 0003:00000f70       gEfiPcdProtocolGuid        00000000000e0f70     Shell:AutoGen.obj
 0003:00000f80       gEfiSimpleTextInputExProtocolGuid 00000000000e0f80     Shell:AutoGen.obj
 0003:00000f90       gShellDriver1HiiGuid       00000000000e0f90     Shell:AutoGen.obj
 0003:00000fa0       gEfiHiiPopupProtocolGuid   00000000000e0fa0     Shell:AutoGen.obj
 0003:00000fb0       gEfiHttpUtilitiesProtocolGuid 00000000000e0fb0     Shell:AutoGen.obj
 0003:00000fc0       gEfiFirmwareManagementProtocolGuid 00000000000e0fc0     Shell:AutoGen.obj
 0003:00000fd0       gEfiSmmPowerButtonDispatch2ProtocolGuid 00000000000e0fd0     Shell:AutoGen.obj
 0003:00000fe0       gShellNetwork1HiiGuid      00000000000e0fe0     Shell:AutoGen.obj
 0003:00000ff0       gEfiDns6ServiceBindingProtocolGuid 00000000000e0ff0     Shell:AutoGen.obj
 0003:00001000       gEfiSimpleTextInProtocolGuid 00000000000e1000     Shell:AutoGen.obj
 0003:00001010       gEfiFtp4ServiceBindingProtocolGuid 00000000000e1010     Shell:AutoGen.obj
 0003:00001020       gEfiPxeBaseCodeCallbackProtocolGuid 00000000000e1020     Shell:AutoGen.obj
 0003:00001030       gEfiUdp4ServiceBindingProtocolGuid 00000000000e1030     Shell:AutoGen.obj
 0003:00001040       gEfiStatusCodeDataTypeDebugGuid 00000000000e1040     Shell:AutoGen.obj
 0003:00001050       gEfiUsbIoProtocolGuid      00000000000e1050     Shell:AutoGen.obj
 0003:00001060       gEfiResetNotificationProtocolGuid 00000000000e1060     Shell:AutoGen.obj
 0003:00001070       gEfiAdapterInfoNetworkBootGuid 00000000000e1070     Shell:AutoGen.obj
 0003:00001080       gEfiIp4Config2ProtocolGuid 00000000000e1080     Shell:AutoGen.obj
 0003:00001090       gEfiCpuArchProtocolGuid    00000000000e1090     Shell:AutoGen.obj
 0003:000010a0       gEfiPartitionInfoProtocolGuid 00000000000e10a0     Shell:AutoGen.obj
 0003:000010b0       gEfiSmmControl2ProtocolGuid 00000000000e10b0     Shell:AutoGen.obj
 0003:000010c0       gEfiBlockIoCryptoProtocolGuid 00000000000e10c0     Shell:AutoGen.obj
 0003:000010d0       gEfiPlatformToDriverConfigurationProtocolGuid 00000000000e10d0     Shell:AutoGen.obj
 0003:000010e0       gEfiHiiImageProtocolGuid   00000000000e10e0     Shell:AutoGen.obj
 0003:000010f0       gEfiBisProtocolGuid        00000000000e10f0     Shell:AutoGen.obj
 0003:00001100       gEfiMtftp6ProtocolGuid     00000000000e1100     Shell:AutoGen.obj
 0003:00001110       gEfiS3SaveStateProtocolGuid 00000000000e1110     Shell:AutoGen.obj
 0003:00001120       gEfiSioProtocolGuid        00000000000e1120     Shell:AutoGen.obj
 0003:00001130       gEfiDevicePathUtilitiesProtocolGuid 00000000000e1130     Shell:AutoGen.obj
 0003:00001140       gEfiIp4ServiceBindingProtocolGuid 00000000000e1140     Shell:AutoGen.obj
 0003:00001150       gEfiI2cEnumerateProtocolGuid 00000000000e1150     Shell:AutoGen.obj
 0003:00001160       gEfiDebugImageInfoTableGuid 00000000000e1160     Shell:AutoGen.obj
 0003:00001170       gEfiPciEnumerationCompleteProtocolGuid 00000000000e1170     Shell:AutoGen.obj
 0003:00001180       gEfiDevicePathFromTextProtocolGuid 00000000000e1180     Shell:AutoGen.obj
 0003:00001190       gEfiGraphicsOutputProtocolGuid 00000000000e1190     Shell:AutoGen.obj
 0003:000011a0       gEfiTapeIoProtocolGuid     00000000000e11a0     Shell:AutoGen.obj
 0003:000011b0       gEfiUdp6ProtocolGuid       00000000000e11b0     Shell:AutoGen.obj
 0003:000011c0       gEfiShellParametersProtocolGuid 00000000000e11c0     Shell:AutoGen.obj
 0003:000011d0       gEfiHiiDatabaseProtocolGuid 00000000000e11d0     Shell:AutoGen.obj
 0003:000011e0       gEfiRedfishDiscoverProtocolGuid 00000000000e11e0     Shell:AutoGen.obj
 0003:000011f0       gEfiRscHandlerProtocolGuid 00000000000e11f0     Shell:AutoGen.obj
 0003:00001200       gEfiSimpleFileSystemProtocolGuid 00000000000e1200     Shell:AutoGen.obj
 0003:00001210       gEfiSmbios3TableGuid       00000000000e1210     Shell:AutoGen.obj
 0003:00001220       gEfiMmCommunicationProtocolGuid 00000000000e1220     Shell:AutoGen.obj
 0003:00001230       gEfiMmStandbyButtonDispatchProtocolGuid 00000000000e1230     Shell:AutoGen.obj
 0003:00001240       gEfiHiiStringProtocolGuid  00000000000e1240     Shell:AutoGen.obj
 0003:00001250       gEfiPciHotPlugInitProtocolGuid 00000000000e1250     Shell:AutoGen.obj
 0003:00001260       gEfiUdp6ServiceBindingProtocolGuid 00000000000e1260     Shell:AutoGen.obj
 0003:00001270       gEfiIp6ServiceBindingProtocolGuid 00000000000e1270     Shell:AutoGen.obj
 0003:00001280       gEfiUgaDrawProtocolGuid    00000000000e1280     Shell:AutoGen.obj
 0003:00001290       gEfiBluetoothConfigProtocolGuid 00000000000e1290     Shell:AutoGen.obj
 0003:000012a0       gEfiSmartCardEdgeProtocolGuid 00000000000e12a0     Shell:AutoGen.obj
 0003:000012b0       gEfiTimestampProtocolGuid  00000000000e12b0     Shell:AutoGen.obj
 0003:000012c0       gEfiTcg2ProtocolGuid       00000000000e12c0     Shell:AutoGen.obj
 0003:000012d0       gEfiNetworkInterfaceIdentifierProtocolGuid 00000000000e12d0     Shell:AutoGen.obj
 0003:000012e0       gEfiVT100PlusGuid          00000000000e12e0     Shell:AutoGen.obj
 0003:000012f0       gEfiRuntimeArchProtocolGuid 00000000000e12f0     Shell:AutoGen.obj
 0003:00001300       gEfiEapManagement2ProtocolGuid 00000000000e1300     Shell:AutoGen.obj
 0003:00001310       gEfiAcpiTableProtocolGuid  00000000000e1310     Shell:AutoGen.obj
 0003:00001320       gEfiBluetoothLeConfigProtocolGuid 00000000000e1320     Shell:AutoGen.obj
 0003:00001330       gEfiAcpiSdtProtocolGuid    00000000000e1330     Shell:AutoGen.obj
 0003:00001340       gEfiSmbiosTableGuid        00000000000e1340     Shell:AutoGen.obj
 0003:00001350       gEfiMetronomeArchProtocolGuid 00000000000e1350     Shell:AutoGen.obj
 0003:00001360       gEfiShellEnvironment2Guid  00000000000e1360     Shell:AutoGen.obj
 0003:00001370       gEfiUnicodeCollationProtocolGuid 00000000000e1370     Shell:AutoGen.obj
 0003:00001380       gEfiSmmReadyToLockProtocolGuid 00000000000e1380     Shell:AutoGen.obj
 0003:00001390       gEfiPartTypeSystemPartGuid 00000000000e1390     Shell:AutoGen.obj
 0003:000013a0       gEfiDns6ProtocolGuid       00000000000e13a0     Shell:AutoGen.obj
 0003:000013b0       gEfiScsiPassThruProtocolGuid 00000000000e13b0     Shell:AutoGen.obj
 0003:000013c0       gEfiEdidActiveProtocolGuid 00000000000e13c0     Shell:AutoGen.obj
 0003:000013d0       gEfiHiiConfigAccessProtocolGuid 00000000000e13d0     Shell:AutoGen.obj
 0003:000013e0       gEfiTimerArchProtocolGuid  00000000000e13e0     Shell:AutoGen.obj
 0003:000013f0       gEfiHttpServiceBindingProtocolGuid 00000000000e13f0     Shell:AutoGen.obj
 0003:00001400       gEfiHobListGuid            00000000000e1400     Shell:AutoGen.obj
 0003:00001410       gEfiUserManagerProtocolGuid 00000000000e1410     Shell:AutoGen.obj
 0003:00001420       gEfiHiiImageDecoderProtocolGuid 00000000000e1420     Shell:AutoGen.obj
 0003:00001430       gEfiIp4ProtocolGuid        00000000000e1430     Shell:AutoGen.obj
 0003:00001440       gEfiDebugPortProtocolGuid  00000000000e1440     Shell:AutoGen.obj
 0003:00001450       gEfiBluetoothAttributeProtocolGuid 00000000000e1450     Shell:AutoGen.obj
 0003:00001460       gEfiMmPciRootBridgeIoProtocolGuid 00000000000e1460     Shell:AutoGen.obj
 0003:00001470       gEfiPciPlatformProtocolGuid 00000000000e1470     Shell:AutoGen.obj
 0003:00001480       gEfiAdapterInfoMediaStateGuid 00000000000e1480     Shell:AutoGen.obj
 0003:00001490       gEfiDriverConfigurationProtocolGuid 00000000000e1490     Shell:AutoGen.obj
 0003:000014a0       gEfiConsoleInDeviceGuid    00000000000e14a0     Shell:AutoGen.obj
 0003:000014b0       gEfiSmmPeriodicTimerDispatch2ProtocolGuid 00000000000e14b0     Shell:AutoGen.obj
 0003:000014c0       gEfiTcgProtocolGuid        00000000000e14c0     Shell:AutoGen.obj
 0003:000014d0       gEfiHash2ProtocolGuid      00000000000e14d0     Shell:AutoGen.obj
 0003:000014e0       gShellVariableGuid         00000000000e14e0     Shell:AutoGen.obj
 0003:000014f0       gEfiIp4ConfigProtocolGuid  00000000000e14f0     Shell:AutoGen.obj
 0003:00001500       gEfiDiskIo2ProtocolGuid    00000000000e1500     Shell:AutoGen.obj
 0003:00001510       gEfiManagedNetworkServiceBindingProtocolGuid 00000000000e1510     Shell:AutoGen.obj
 0003:00001520       gEfiHashProtocolGuid       00000000000e1520     Shell:AutoGen.obj
 0003:00001530       gEfiDebugSupportProtocolGuid 00000000000e1530     Shell:AutoGen.obj
 0003:00001540       gEfiFormBrowser2ProtocolGuid 00000000000e1540     Shell:AutoGen.obj
 0003:00001550       gEfiSystemResourceTableGuid 00000000000e1550     Shell:AutoGen.obj
 0003:00001560       gEfiBluetoothAttributeServiceBindingProtocolGuid 00000000000e1560     Shell:AutoGen.obj
 0003:00001570       gEfiMtftp4ServiceBindingProtocolGuid 00000000000e1570     Shell:AutoGen.obj
 0003:00001580       gEfiDriverBindingProtocolGuid 00000000000e1580     Shell:AutoGen.obj
 0003:00001590       gShellAliasGuid            00000000000e1590     Shell:AutoGen.obj
 0003:000015a0       gEfiMmConfigurationProtocolGuid 00000000000e15a0     Shell:AutoGen.obj
 0003:000015b0       gEfiShellProtocolGuid      00000000000e15b0     Shell:AutoGen.obj
 0003:000015c0       gEfiArpServiceBindingProtocolGuid 00000000000e15c0     Shell:AutoGen.obj
 0003:000015d0       gEfiRealTimeClockArchProtocolGuid 00000000000e15d0     Shell:AutoGen.obj
 0003:000015e0       gEfiUdp4ProtocolGuid       00000000000e15e0     Shell:AutoGen.obj
 0003:000015f0       gEfiIp6ProtocolGuid        00000000000e15f0     Shell:AutoGen.obj
 0003:00001600       gEfiHttpBootCallbackProtocolGuid 00000000000e1600     Shell:AutoGen.obj
 0003:00001610       gEfiCpuIo2ProtocolGuid     00000000000e1610     Shell:AutoGen.obj
 0003:00001620       gEfiSecurity2ArchProtocolGuid 00000000000e1620     Shell:AutoGen.obj
 0003:00001630       gEfiAcpi20TableGuid        00000000000e1630     Shell:AutoGen.obj
 0003:00001640       gEfiSmmEndOfDxeProtocolGuid 00000000000e1640     Shell:AutoGen.obj
 0003:00001650       gEfiFtp4ProtocolGuid       00000000000e1650     Shell:AutoGen.obj
 0003:00001660       gEfiTcp4ServiceBindingProtocolGuid 00000000000e1660     Shell:AutoGen.obj
 0003:00001670       gEfiVirtualDiskGuid        00000000000e1670     Shell:AutoGen.obj
 0003:00001680       gEfiMmUsbDispatchProtocolGuid 00000000000e1680     Shell:AutoGen.obj
 0003:00001690       gEfiMmCpuProtocolGuid      00000000000e1690     Shell:AutoGen.obj
 0003:000016a0       gEfiIdeControllerInitProtocolGuid 00000000000e16a0     Shell:AutoGen.obj
 0003:000016b0       gEfiStorageSecurityCommandProtocolGuid 00000000000e16b0     Shell:AutoGen.obj
 0003:000016c0       gEfiMonotonicCounterArchProtocolGuid 00000000000e16c0     Shell:AutoGen.obj
 0003:000016d0       gEfiComponentNameProtocolGuid 00000000000e16d0     Shell:AutoGen.obj
 0003:000016e0       gEfiMmControlProtocolGuid  00000000000e16e0     Shell:AutoGen.obj
 0003:000016f0       gEfiBlockIoProtocolGuid    00000000000e16f0     Shell:AutoGen.obj
 0003:00001700       gEfiSmmBase2ProtocolGuid   00000000000e1700     Shell:AutoGen.obj
 0003:00001710       gEfiPlatformDriverOverrideProtocolGuid 00000000000e1710     Shell:AutoGen.obj
 0003:00001720       gEfiDxeServicesTableGuid   00000000000e1720     Shell:AutoGen.obj
 0003:00001730       gEfiScsiIoProtocolGuid     00000000000e1730     Shell:AutoGen.obj
 0003:00001740       gEfiSasDevicePathGuid      00000000000e1740     Shell:AutoGen.obj
 0003:00001750       gEfiDecompressProtocolGuid 00000000000e1750     Shell:AutoGen.obj
 0003:00001760       gEfiDeviceIoProtocolGuid   00000000000e1760     Shell:AutoGen.obj
 0003:00001770       gEfiPersistentVirtualCdGuid 00000000000e1770     Shell:AutoGen.obj
 0003:00001780       gEfiSmmSxDispatch2ProtocolGuid 00000000000e1780     Shell:AutoGen.obj
 0003:00001790       gEfiSmmStandbyButtonDispatch2ProtocolGuid 00000000000e1790     Shell:AutoGen.obj
 0003:000017a0       gEfiTlsConfigurationProtocolGuid 00000000000e17a0     Shell:AutoGen.obj
 0003:000017b0       gEfiCallerIdGuid           00000000000e17b0     Shell:AutoGen.obj
 0003:000017c0       gEfiIsaHcServiceBindingProtocolGuid 00000000000e17c0     Shell:AutoGen.obj
 0003:000017d0       gEfiUgaIoProtocolGuid      00000000000e17d0     Shell:AutoGen.obj
 0003:000017e0       gEfiDhcp4ProtocolGuid      00000000000e17e0     Shell:AutoGen.obj
 0003:000017f0       gEfiMmEndOfDxeProtocolGuid 00000000000e17f0     Shell:AutoGen.obj
 0003:00001800       gEfiSmmAccess2ProtocolGuid 00000000000e1800     Shell:AutoGen.obj
 0003:00001810       gEfiUfsDeviceConfigProtocolGuid 00000000000e1810     Shell:AutoGen.obj
 0003:00001820       gGetPcdInfoProtocolGuid    00000000000e1820     Shell:AutoGen.obj
 0003:00001830       gEfiSmmSwDispatch2ProtocolGuid 00000000000e1830     Shell:AutoGen.obj
 0003:00001840       gEfiTcp6ServiceBindingProtocolGuid 00000000000e1840     Shell:AutoGen.obj
 0003:00001850       gEfiSmmPciRootBridgeIoProtocolGuid 00000000000e1850     Shell:AutoGen.obj
 0003:00001860       gEfiSmmConfigurationProtocolGuid 00000000000e1860     Shell:AutoGen.obj
 0003:00001870       gEfiManagedNetworkProtocolGuid 00000000000e1870     Shell:AutoGen.obj
 0003:00001880       gEfiPcAnsiGuid             00000000000e1880     Shell:AutoGen.obj
 0003:00001890       gEfiEdidOverrideProtocolGuid 00000000000e1890     Shell:AutoGen.obj
 0003:000018a0       gEfiIpSecConfigProtocolGuid 00000000000e18a0     Shell:AutoGen.obj
 0003:000018b0       gEfiMmPeriodicTimerDispatchProtocolGuid 00000000000e18b0     Shell:AutoGen.obj
 0003:000018c0       gEfiArpProtocolGuid        00000000000e18c0     Shell:AutoGen.obj
 0003:000018d0       gEfiTcp6ProtocolGuid       00000000000e18d0     Shell:AutoGen.obj
 0003:000018e0       gEfiShellInterfaceGuid     00000000000e18e0     Shell:AutoGen.obj
 0003:000018f0       gEdkiiVariablePolicyProtocolGuid 00000000000e18f0     Shell:AutoGen.obj
 0003:00001900       gEfiAbsolutePointerProtocolGuid 00000000000e1900     Shell:AutoGen.obj
 0003:00001910       gEfiTcp4ProtocolGuid       00000000000e1910     Shell:AutoGen.obj
 0003:00001920       gEfiVariableArchProtocolGuid 00000000000e1920     Shell:AutoGen.obj
 0003:00001930       gEfiHiiFontProtocolGuid    00000000000e1930     Shell:AutoGen.obj
 0003:00001940       gEfiMmIoTrapDispatchProtocolGuid 00000000000e1940     Shell:AutoGen.obj
 0003:00001950       gEfiLoadFile2ProtocolGuid  00000000000e1950     Shell:AutoGen.obj
 0003:00001960       gEfiBluetoothIoServiceBindingProtocolGuid 00000000000e1960     Shell:AutoGen.obj
 0003:00001970       gShellLevel3HiiGuid        00000000000e1970     Shell:AutoGen.obj
 0003:00001980       gHandleParsingHiiGuid      00000000000e1980     Shell:AutoGen.obj
 0003:00001990       ShellInfoObject            00000000000e1990     Shell:Shell.obj
 0003:00001ad0       mShellProtocol             00000000000e1ad0     Shell:ShellProtocol.obj
 0003:00001c40       FileInterfaceNulFile       00000000000e1c40     Shell:FileHandleWrappers.obj
 0003:00001cc0       FileInterfaceStdOut        00000000000e1cc0     Shell:FileHandleWrappers.obj
 0003:00001d40       FileInterfaceStdErr        00000000000e1d40     Shell:FileHandleWrappers.obj
 0003:00001dc0       FileInterfaceStdIn         00000000000e1dc0     Shell:FileHandleWrappers.obj
 0003:00001e38       mShellManHiiDevicePath     00000000000e1e38     Shell:ShellManParser.obj
 0003:00001e50       mUefiDevicePathLibDevPathFromTextTable 00000000000e1e50     UefiDevicePathLib:DevicePathFromText.obj
 0003:000023c0       EmptyParamList             00000000000e23c0     UefiShellLib:UefiShellLib.obj
 0003:000023d0       SfoParamList               00000000000e23d0     UefiShellLib:UefiShellLib.obj
 0003:000023f0       UefiHandleParsingLibStrings 00000000000e23f0     UefiHandleParsingLib:AutoGen.obj
 0003:000069f0       SupportLevel               00000000000e69f0     UefiShellCommandLib:UefiShellCommandLib.obj
 0003:00006a10       mMTDName                   00000000000e6a10     UefiShellCommandLib:ConsistMapping.obj
 0003:00006a60       DevPathConsistMappingTable 00000000000e6a60     UefiShellCommandLib:ConsistMapping.obj
 0003:00006c60       UefiShellLevel2CommandsLibStrings 00000000000e6c60     UefiShellLevel2CommandsLib:AutoGen.obj
 0003:0001a560       mDayOfMonth                00000000000fa560     UefiShellLevel2CommandsLib:Ls.obj
 0003:0001a5c0       UefiShellLevel1CommandsLibStrings 00000000000fa5c0     UefiShellLevel1CommandsLib:AutoGen.obj
 0003:00022c30       UefiShellLevel3CommandsLibStrings 0000000000102c30     UefiShellLevel3CommandsLib:AutoGen.obj
 0003:0002afe0       UefiShellDriver1CommandsLibStrings 000000000010afe0     UefiShellDriver1CommandsLib:AutoGen.obj
 0003:00037ae8       mGuidDataLen               0000000000117ae8     UefiShellDriver1CommandsLib:Dh.obj
 0003:00037b28       PCIBlankEntry              0000000000117b28     UefiShellDebug1CommandsLib:Pci.obj
 0003:00037b60       PcieExplainList            0000000000117b60     UefiShellDebug1CommandsLib:Pci.obj
 0003:00037de0       PCIPIFClass_0801           0000000000117de0     UefiShellDebug1CommandsLib:Pci.obj
 0003:00037e40       PCIPIFClass_0701           0000000000117e40     UefiShellDebug1CommandsLib:Pci.obj
 0003:00037ed0       PCISubClass_0a             0000000000117ed0     UefiShellDebug1CommandsLib:Pci.obj
 0003:00037f20       PCIPIFClass_0101           0000000000117f20     UefiShellDebug1CommandsLib:Pci.obj
 0003:00038238       SlotPwrLmtScaleTable       0000000000118238     UefiShellDebug1CommandsLib:Pci.obj
 0003:00038260       gClassStringList           0000000000118260     UefiShellDebug1CommandsLib:Pci.obj
 0003:00038470       PCISubClass_01             0000000000118470     UefiShellDebug1CommandsLib:Pci.obj
 0003:00038590       L1LatencyStrTable          0000000000118590     UefiShellDebug1CommandsLib:Pci.obj
 0003:000385d0       PCIPIFClass_0800           00000000001185d0     UefiShellDebug1CommandsLib:Pci.obj
 0003:00038660       PCIPIFClass_0100           0000000000118660     UefiShellDebug1CommandsLib:Pci.obj
 0003:000386f0       L0sLatencyStrTable         00000000001186f0     UefiShellDebug1CommandsLib:Pci.obj
 0003:00038730       PCISubClass_07             0000000000118730     UefiShellDebug1CommandsLib:Pci.obj
 0003:000387f0       PCISubClass_06             00000000001187f0     UefiShellDebug1CommandsLib:Pci.obj
 0003:00038940       PCIPIFClass_060b           0000000000118940     UefiShellDebug1CommandsLib:Pci.obj
 0003:00038990       PCIPIFClass_0c03           0000000000118990     UefiShellDebug1CommandsLib:Pci.obj
 0003:00038a40       PCISubClass_05             0000000000118a40     UefiShellDebug1CommandsLib:Pci.obj
 0003:00038aa0       PCIPIFClass_0703           0000000000118aa0     UefiShellDebug1CommandsLib:Pci.obj
 0003:00038b30       PCISubClass_0e             0000000000118b30     UefiShellDebug1CommandsLib:Pci.obj
 0003:00038b60       DevicePortTypeTable        0000000000118b60     UefiShellDebug1CommandsLib:Pci.obj
 0003:00038bc0       PCIPIFClass_0108           0000000000118bc0     UefiShellDebug1CommandsLib:Pci.obj
 0003:00038c20       PCIPIFClass_0d01           0000000000118c20     UefiShellDebug1CommandsLib:Pci.obj
 0003:00038c70       PCIPIFClass_0107           0000000000118c70     UefiShellDebug1CommandsLib:Pci.obj
 0003:00038cc0       PCIPIFClass_0106           0000000000118cc0     UefiShellDebug1CommandsLib:Pci.obj
 0003:00038d20       PCISubClass_11             0000000000118d20     UefiShellDebug1CommandsLib:Pci.obj
 0003:00038db0       PCISubClass_02             0000000000118db0     UefiShellDebug1CommandsLib:Pci.obj
 0003:00038ea0       PCIPIFClass_0803           0000000000118ea0     UefiShellDebug1CommandsLib:Pci.obj
 0003:00038f00       PCISubClass_0c             0000000000118f00     UefiShellDebug1CommandsLib:Pci.obj
 0003:00039020       PCISubClass_09             0000000000119020     UefiShellDebug1CommandsLib:Pci.obj
 0003:000390d0       PCIPIFClass_0802           00000000001190d0     UefiShellDebug1CommandsLib:Pci.obj
 0003:00039130       PCISubClass_03             0000000000119130     UefiShellDebug1CommandsLib:Pci.obj
 0003:000391b0       PCIPIFClass_0604           00000000001191b0     UefiShellDebug1CommandsLib:Pci.obj
 0003:000391f8       PCISubClass_12             00000000001191f8     UefiShellDebug1CommandsLib:Pci.obj
 0003:00039228       ASPMCtrlStrTable           0000000000119228     UefiShellDebug1CommandsLib:Pci.obj
 0003:00039250       PCISubClass_0f             0000000000119250     UefiShellDebug1CommandsLib:Pci.obj
 0003:000392e0       PCIPIFClass_0c00           00000000001192e0     UefiShellDebug1CommandsLib:Pci.obj
 0003:00039328       PCISubClass_13             0000000000119328     UefiShellDebug1CommandsLib:Pci.obj
 0003:00039360       PCIPIFClass_0c07           0000000000119360     UefiShellDebug1CommandsLib:Pci.obj
 0003:000393c0       PCIPIFClass_0904           00000000001193c0     UefiShellDebug1CommandsLib:Pci.obj
 0003:00039410       PCIPIFClass_0609           0000000000119410     UefiShellDebug1CommandsLib:Pci.obj
 0003:00039460       PCIPIFClass_0109           0000000000119460     UefiShellDebug1CommandsLib:Pci.obj
 0003:000394b0       PCIPIFClass_0700           00000000001194b0     UefiShellDebug1CommandsLib:Pci.obj
 0003:00039570       PCISubClass_04             0000000000119570     UefiShellDebug1CommandsLib:Pci.obj
 0003:00039600       PCISubClass_00             0000000000119600     UefiShellDebug1CommandsLib:Pci.obj
 0003:00039650       PCIPIFClass_0e00           0000000000119650     UefiShellDebug1CommandsLib:Pci.obj
 0003:000396a0       PCIPIFClass_0300           00000000001196a0     UefiShellDebug1CommandsLib:Pci.obj
 0003:000396f0       PCISubClass_08             00000000001196f0     UefiShellDebug1CommandsLib:Pci.obj
 0003:000397e0       PCISubClass_10             00000000001197e0     UefiShellDebug1CommandsLib:Pci.obj
 0003:00039840       PCISubClass_0b             0000000000119840     UefiShellDebug1CommandsLib:Pci.obj
 0003:00039920       PCISubClass_0d             0000000000119920     UefiShellDebug1CommandsLib:Pci.obj
 0003:000399f8       IndicatorTable             00000000001199f8     UefiShellDebug1CommandsLib:Pci.obj
 0003:00039a20       PCIPIFClass_0105           0000000000119a20     UefiShellDebug1CommandsLib:Pci.obj
 0003:00039a70       UefiShellDebug1CommandsLibStrings 0000000000119a70     UefiShellDebug1CommandsLib:AutoGen.obj
 0003:00057557       gShowType                  0000000000137557     UefiShellDebug1CommandsLib:SmbiosView.obj
 0003:00057560       HMainEditorConst           0000000000137560     UefiShellDebug1CommandsLib:MainHexEditor.obj
 0003:000575b0       HexMainMenuHelpInfo        00000000001375b0     UefiShellDebug1CommandsLib:MainHexEditor.obj
 0003:000575e0       HexMainControlBasedMenuFunctions 00000000001375e0     UefiShellDebug1CommandsLib:MainHexEditor.obj
 0003:000576c0       HBufferImageConst          00000000001376c0     UefiShellDebug1CommandsLib:BufferImage.obj
 0003:00057750       MainControlBasedMenuFunctions 0000000000137750     UefiShellDebug1CommandsLib:MainTextEditor.obj
 0003:00057828       MainMenuHelpInfo           0000000000137828     UefiShellDebug1CommandsLib:MainTextEditor.obj
 0003:00057860       MainMenuItems              0000000000137860     UefiShellDebug1CommandsLib:MainTextEditor.obj
 0003:00057910       MainEditorConst            0000000000137910     UefiShellDebug1CommandsLib:MainTextEditor.obj
 0003:00057960       FileBufferConst            0000000000137960     UefiShellDebug1CommandsLib:FileBuffer.obj
 0003:000579e0       SESecurityStatusTable      00000000001379e0     UefiShellDebug1CommandsLib:QueryTable.obj
 0003:00057a30       MemoryDeviceFormFactorTable 0000000000137a30     UefiShellDebug1CommandsLib:QueryTable.obj
 0003:00057b30       MDAddressTypeTable         0000000000137b30     UefiShellDebug1CommandsLib:QueryTable.obj
 0003:00057b80       FirmwareInventoryStateTable 0000000000137b80     UefiShellDebug1CommandsLib:QueryTable.obj
 0003:00057c00       McErrorCorrectCapabilityTable 0000000000137c00     UefiShellDebug1CommandsLib:QueryTable.obj
 0003:00057c60       CacheAssociativityTable    0000000000137c60     UefiShellDebug1CommandsLib:QueryTable.obj
 0003:00057d40       TemperatureProbeLocTable   0000000000137d40     UefiShellDebug1CommandsLib:QueryTable.obj
 0003:00057df0       ProcessorUpgradeTable      0000000000137df0     UefiShellDebug1CommandsLib:QueryTable.obj
 0003:00058270       MDTypeTable                0000000000138270     UefiShellDebug1CommandsLib:QueryTable.obj
 0003:00058340       MemoryDeviceTypeTable      0000000000138340     UefiShellDebug1CommandsLib:QueryTable.obj
 0003:00058540       TemperatureProbeStatusTable 0000000000138540     UefiShellDebug1CommandsLib:QueryTable.obj
 0003:000585a0       MemoryModuleVoltageTable   00000000001385a0     UefiShellDebug1CommandsLib:QueryTable.obj
 0003:000585d0       SystemSlotLengthTable      00000000001385d0     UefiShellDebug1CommandsLib:QueryTable.obj
 0003:00058610       StructureTypeInfoTable     0000000000138610     UefiShellDebug1CommandsLib:QueryTable.obj
 0003:00058900       BaseBoardFeatureFlagsTable 0000000000138900     UefiShellDebug1CommandsLib:QueryTable.obj
 0003:00058950       PMAErrorCorrectionTypesTable 0000000000138950     UefiShellDebug1CommandsLib:QueryTable.obj
 0003:000589c0       MemoryDeviceTypeDetailTable 00000000001389c0     UefiShellDebug1CommandsLib:QueryTable.obj
 0003:00058aa0       MemoryErrorOperationTable  0000000000138aa0     UefiShellDebug1CommandsLib:QueryTable.obj
 0003:00058af0       SystemEnclosureTypeTable   0000000000138af0     UefiShellDebug1CommandsLib:QueryTable.obj
 0003:00058d30       PointingDeviceTypeTable    0000000000138d30     UefiShellDebug1CommandsLib:QueryTable.obj
 0003:00058da0       SELVarDataFormatTypeTable  0000000000138da0     UefiShellDebug1CommandsLib:QueryTable.obj
 0003:00058e30       PMAUseTable                0000000000138e30     UefiShellDebug1CommandsLib:QueryTable.obj
 0003:00058ea0       VPStatusTable              0000000000138ea0     UefiShellDebug1CommandsLib:QueryTable.obj
 0003:00058f50       ECPStatusTable             0000000000138f50     UefiShellDebug1CommandsLib:QueryTable.obj
 0003:00058fb0       CacheSRAMTypeTable         0000000000138fb0     UefiShellDebug1CommandsLib:QueryTable.obj
 0003:00059020       SlotCharacteristics2Table  0000000000139020     UefiShellDebug1CommandsLib:QueryTable.obj
 0003:000590a0       ProcessorArchitectureTypesTable 00000000001390a0     UefiShellDebug1CommandsLib:QueryTable.obj
 0003:00059130       MemoryErrorTypeTable       0000000000139130     UefiShellDebug1CommandsLib:QueryTable.obj
 0003:00059210       ECPLocTable                0000000000139210     UefiShellDebug1CommandsLib:QueryTable.obj
 0003:000592c0       SystemEnclosureStatusTable 00000000001392c0     UefiShellDebug1CommandsLib:QueryTable.obj
 0003:00059320       MemoryDeviceMemoryTechnologyTable 0000000000139320     UefiShellDebug1CommandsLib:QueryTable.obj
 0003:00059390       ProcessorCharacteristicsTable 0000000000139390     UefiShellDebug1CommandsLib:QueryTable.obj
 0003:00059420       PMALocationTable           0000000000139420     UefiShellDebug1CommandsLib:QueryTable.obj
 0003:00059510       MemoryErrorGranularityTable 0000000000139510     UefiShellDebug1CommandsLib:QueryTable.obj
 0003:00059550       PostResultsBitmapDw2Table  0000000000139550     UefiShellDebug1CommandsLib:QueryTable.obj
 0003:00059750       McErrorDetectMethodTable   0000000000139750     UefiShellDebug1CommandsLib:QueryTable.obj
 0003:000597d0       SELTypesTable              00000000001397d0     UefiShellDebug1CommandsLib:QueryTable.obj
 0003:00059980       SystemWakeupTypeTable      0000000000139980     UefiShellDebug1CommandsLib:QueryTable.obj
 0003:00059a00       SystemSlotPhysicalWidthTable 0000000000139a00     UefiShellDebug1CommandsLib:QueryTable.obj
 0003:00059ae0       McInterleaveSupportTable   0000000000139ae0     UefiShellDebug1CommandsLib:QueryTable.obj
 0003:00059b50       PostResultsBitmapDw1Table  0000000000139b50     UefiShellDebug1CommandsLib:QueryTable.obj
 0003:00059d50       SystemSlotTypeTable        0000000000139d50     UefiShellDebug1CommandsLib:QueryTable.obj
 0003:0005a240       PortTypeTable              000000000013a240     UefiShellDebug1CommandsLib:QueryTable.obj
 0003:0005a4b0       MemoryChannelTypeTable     000000000013a4b0     UefiShellDebug1CommandsLib:QueryTable.obj
 0003:0005a4f0       SlotCharacteristics1Table  000000000013a4f0     UefiShellDebug1CommandsLib:QueryTable.obj
 0003:0005a570       CacheSystemCacheTypeTable  000000000013a570     UefiShellDebug1CommandsLib:QueryTable.obj
 0003:0005a5c0       SystemSlotHeightTable      000000000013a5c0     UefiShellDebug1CommandsLib:QueryTable.obj
 0003:0005a610       PortConnectorTypeTable     000000000013a610     UefiShellDebug1CommandsLib:QueryTable.obj
 0003:0005a8b0       CoolingDeviceTypeTable     000000000013a8b0     UefiShellDebug1CommandsLib:QueryTable.obj
 0003:0005a960       SystemSlotInformationTable 000000000013a960     UefiShellDebug1CommandsLib:QueryTable.obj
 0003:0005a9d0       OnboardDeviceTypesTable    000000000013a9d0     UefiShellDebug1CommandsLib:QueryTable.obj
 0003:0005aad0       IPMIDIBMCInterfaceTypeTable 000000000013aad0     UefiShellDebug1CommandsLib:QueryTable.obj
 0003:0005ab30       McMemorySpeedsTable        000000000013ab30     UefiShellDebug1CommandsLib:QueryTable.obj
 0003:0005ab80       PointingDeviceInterfaceTable 000000000013ab80     UefiShellDebug1CommandsLib:QueryTable.obj
 0003:0005ac30       BaseBoardBoardTypeTable    000000000013ac30     UefiShellDebug1CommandsLib:QueryTable.obj
 0003:0005ad00       CacheErrCorrectingTypeTable 000000000013ad00     UefiShellDebug1CommandsLib:QueryTable.obj
 0003:0005ad60       SELSysManagementTypesTable 000000000013ad60     UefiShellDebug1CommandsLib:QueryTable.obj
 0003:0005ae60       SystemSlotDataBusWidthTable 000000000013ae60     UefiShellDebug1CommandsLib:QueryTable.obj
 0003:0005af40       SystemSlotCurrentUsageTable 000000000013af40     UefiShellDebug1CommandsLib:QueryTable.obj
 0003:0005af90       MemoryDeviceMemoryOperatingModeCapabilityTable 000000000013af90     UefiShellDebug1CommandsLib:QueryTable.obj
 0003:0005afe0       MmErrorStatusTable         000000000013afe0     UefiShellDebug1CommandsLib:QueryTable.obj
 0003:0005b010       PBDeviceChemistryTable     000000000013b010     UefiShellDebug1CommandsLib:QueryTable.obj
 0003:0005b090       MCHostInterfaceTypeTable   000000000013b090     UefiShellDebug1CommandsLib:QueryTable.obj
 0003:0005b0c0       VPLocationTable            000000000013b0c0     UefiShellDebug1CommandsLib:QueryTable.obj
 0003:0005b120       MmMemoryTypeTable          000000000013b120     UefiShellDebug1CommandsLib:QueryTable.obj
 0003:0005b1d0       FirmwareInventoryCharTable 000000000013b1d0     UefiShellDebug1CommandsLib:QueryTable.obj
 0003:0005b1f0       CoolingDeviceStatusTable   000000000013b1f0     UefiShellDebug1CommandsLib:QueryTable.obj
 0003:0005b250       ProcessorTypeTable         000000000013b250     UefiShellDebug1CommandsLib:QueryTable.obj
 0003:0005b2b0       mIfConfigCheckList         000000000013b2b0     UefiShellNetwork1CommandsLib:Ifconfig.obj
 0003:0005b310       mSetCheckList              000000000013b310     UefiShellNetwork1CommandsLib:Ifconfig.obj
 0003:0005b370       UefiShellNetwork1CommandsLibStrings 000000000013b370     UefiShellNetwork1CommandsLib:AutoGen.obj
 0003:0005da20       UefiShellBcfgCommandLibStrings 000000000013da20     UefiShellBcfgCommandLib:AutoGen.obj
 0003:00060a60       gIp4AllMasks               0000000000140a60     DxeNetLib:DxeNetLib.obj
 0003:00060ae8       mBmLoadOptionName          0000000000140ae8     UefiBootManagerLib:BmLoadOption.obj
 0003:00060b20       AsciiRedirection           0000000000140b20     Shell:ShellParametersProtocol.obj
 0003:00060b28       mShellManHiiHandle         0000000000140b28     Shell:ShellManParser.obj
 0003:00060b30       mShellManDriverHandle      0000000000140b30     Shell:ShellManParser.obj
 0003:00060b38       gST                        0000000000140b38     UefiBootServicesTableLib:UefiBootServicesTableLib.obj
 0003:00060b40       gImageHandle               0000000000140b40     UefiBootServicesTableLib:UefiBootServicesTableLib.obj
 0003:00060b48       gBS                        0000000000140b48     UefiBootServicesTableLib:UefiBootServicesTableLib.obj
 0003:00060b50       gRT                        0000000000140b50     UefiRuntimeServicesTableLib:UefiRuntimeServicesTableLib.obj
 0003:00060b58       gHiiDatabase               0000000000140b58     UefiHiiServicesLib:UefiHiiServicesLib.obj
 0003:00060b60       gHiiString                 0000000000140b60     UefiHiiServicesLib:UefiHiiServicesLib.obj
 0003:00060b68       gHiiFont                   0000000000140b68     UefiHiiServicesLib:UefiHiiServicesLib.obj
 0003:00060b70       gHiiConfigRouting          0000000000140b70     UefiHiiServicesLib:UefiHiiServicesLib.obj
 0003:00060b78       gHiiImage                  0000000000140b78     UefiHiiServicesLib:UefiHiiServicesLib.obj
 0003:00060b80       mHobList                   0000000000140b80     DxeHobLib:HobLib.obj
 0003:00060b90       gDS                        0000000000140b90     DxeServicesTableLib:DxeServicesTableLib.obj
 0003:00060b98       mHandleList                0000000000140b98     UefiHandleParsingLib:UefiHandleParsingLib.obj
 0003:00060bc0       mHandleParsingHiiHandle    0000000000140bc0     UefiHandleParsingLib:UefiHandleParsingLib.obj
 0003:00060bc8       gShellCurMapping           0000000000140bc8     UefiShellCommandLib:UefiShellCommandLib.obj
 0003:00060bd0       gUnicodeCollation          0000000000140bd0     UefiShellCommandLib:UefiShellCommandLib.obj
 0003:00060be8       gShellLevel2HiiHandle      0000000000140be8     UefiShellLevel2CommandsLib:UefiShellLevel2CommandsLib.obj
 0003:00060bf0       gShellLevel1HiiHandle      0000000000140bf0     UefiShellLevel1CommandsLib:UefiShellLevel1CommandsLib.obj
 0003:00060bf8       gShellLevel3HiiHandle      0000000000140bf8     UefiShellLevel3CommandsLib:UefiShellLevel3CommandsLib.obj
 0003:00060c00       gInReconnect               0000000000140c00     UefiShellDriver1CommandsLib:UefiShellDriver1CommandsLib.obj
 0003:00060c08       gShellDriver1HiiHandle     0000000000140c08     UefiShellDriver1CommandsLib:UefiShellDriver1CommandsLib.obj
 0003:00060c10       gShellDebug1HiiHandle      0000000000140c10     UefiShellDebug1CommandsLib:UefiShellDebug1CommandsLib.obj
 0003:00060c18       mConfigSpace               0000000000140c18     UefiShellDebug1CommandsLib:Pci.obj
 0003:00060c30       mHuffmanDepth              0000000000140c30     UefiShellDebug1CommandsLib:Compress.obj
 0003:000632b0       HClipBoardConst            00000000001432b0     UefiShellDebug1CommandsLib:Clipboard.obj
 0003:000632c0       Title                      00000000001432c0     UefiShellDebug1CommandsLib:EditTitleBar.obj
 0003:000632c8       HMemImageConst             00000000001432c8     UefiShellDebug1CommandsLib:MemImage.obj
 0003:000632e0       HDiskImageConst            00000000001432e0     UefiShellDebug1CommandsLib:DiskImage.obj
 0003:00063300       HFileImageConst            0000000000143300     UefiShellDebug1CommandsLib:FileImage.obj
 0003:00063378       gShellNetwork1HiiHandle    0000000000143378     UefiShellNetwork1CommandsLib:UefiShellNetwork1CommandsLib.obj
 0003:00063380       mReportStatusCodeLibStatusCodeProtocol 0000000000143380     DxeReportStatusCodeLib:ReportStatusCodeLib.obj
 0003:00063390       mZeroIp4Addr               0000000000143390     DxeNetLib:DxeNetLib.obj
 0003:000633a0       HFileImageBackupVar        00000000001433a0     <common>
 0003:000633c0       HFileImage                 00000000001433c0     <common>
 0003:000633e0       HDiskImage                 00000000001433e0     <common>
 0003:00063400       HDiskImageBackupVar        0000000000143400     <common>
 0003:00063420       HMemImage                  0000000000143420     <common>
 0003:00063440       HMemImageBackupVar         0000000000143440     <common>
 0003:00063458       mTextInEx                  0000000000143458     <common>
 0003:00063460       mReturnString              0000000000143460     <common>
 0003:00063468       StringSize                 0000000000143468     <common>
 0003:00063470       mPrompt                    0000000000143470     <common>
 0003:00063480       HClipBoard                 0000000000143480     <common>
 0003:00063490       MenuItems                  0000000000143490     <common>
 0003:00063498       NumItems                   0000000000143498     <common>
 0003:000634a0       ControlBasedMenuFunctions  00000000001434a0     <common>
 0003:000634c0       FileBuffer                 00000000001434c0     <common>
 0003:00063538       FileBufferMouseNeedRefresh 0000000000143538     <common>
 0003:00063540       FileBufferBackupVar        0000000000143540     <common>
 0003:000635b8       FileBufferOnlyLineNeedRefresh 00000000001435b8     <common>
 0003:000635b9       FileBufferNeedRefresh      00000000001435b9     <common>
 0003:000635ba       EditorFirst                00000000001435ba     <common>
 0003:000635bb       EditorMouseAction          00000000001435bb     <common>
 0003:000635bc       OriginalColors             00000000001435bc     <common>
 0003:000635c0       EditorExit                 00000000001435c0     <common>
 0003:000635c8       OriginalMode               00000000001435c8     <common>
 0003:000635e0       MainEditor                 00000000001435e0     <common>
 0003:00063640       HBufferImage               0000000000143640     <common>
 0003:000636b8       HBufferImageNeedRefresh    00000000001436b8     <common>
 0003:000636c0       HBufferImageBackupVar      00000000001436c0     <common>
 0003:00063738       HBufferImageOnlyLineNeedRefresh 0000000000143738     <common>
 0003:00063739       HBufferImageMouseNeedRefresh 0000000000143739     <common>
 0003:0006373a       StatusStringChanged        000000000014373a     <common>
 0003:00063740       StatusString               0000000000143740     <common>
 0003:00063748       StatusBarNeedRefresh       0000000000143748     <common>
 0003:0006374c       HOriginalColors            000000000014374c     <common>
 0003:00063760       HMainEditor                0000000000143760     <common>
 0003:000637b0       HOriginalMode              00000000001437b0     <common>
 0003:000637b8       HEditorMouseAction         00000000001437b8     <common>
 0003:000637b9       HEditorExit                00000000001437b9     <common>
 0003:000637ba       HEditorFirst               00000000001437ba     <common>
 0003:000637c0       HMainEditorBackupVar       00000000001437c0     <common>
 0003:00063810       mSmbios64BitTableLength    0000000000143810     <common>
 0003:00063818       SmbiosMinorVersion         0000000000143818     <common>
 0003:00063820       mNumberOfSmbios64BitStructures 0000000000143820     <common>
 0003:00063828       SmbiosMajorVersion         0000000000143828     <common>
 0003:00063840       gShellMapList              0000000000143840     <common>
 0003:00063870       mGuidListCount             0000000000143870     <common>
 0003:00063878       mGuidList                  0000000000143878     <common>
 0003:00063880       FileFunctionMap            0000000000143880     <common>
 0003:000638d0       mEfiShellEnvironment2      00000000001438d0     <common>
 0003:000638d8       mEfiShellInterface         00000000001438d8     <common>
 0003:000638e0       mUnicodeCollationProtocol  00000000001438e0     <common>
 0003:000638e8       mEfiShellEnvironment2Handle 00000000001438e8     <common>
 0003:000638f0       gEfiShellParametersProtocol 00000000001438f0     <common>
 0003:000638f8       gEfiShellProtocol          00000000001438f8     <common>
 0003:00063900       gShellEnvVarList           0000000000143900     <common>

 entry point at        0001:00000004

 Static symbols

 0000:ffec4000       .debug$S                   0000000000010000     Shell.exp
 0001:0000944c       NestingEnabled             000000000001a44c f   Shell:ShellProtocol.obj
 0001:00033ff0       DevicePathProtocolDumpInformationEx 0000000000044ff0 f   UefiHandleParsingLib:UefiHandleParsingLib.obj
 0001:0003c568       UniqueNameCompare          000000000004d568 f   UefiShellCommandLib:UefiShellCommandLib.obj
 0001:0003c5b0       UniqueNameAliasCompare     000000000004d5b0 f   UefiShellCommandLib:UefiShellCommandLib.obj
 0001:00056a30       CopyListOfCommandNamesWithDynamic 0000000000067a30 f   UefiShellLevel3CommandsLib:Help.obj
 0001:00074128       FileBufferInit             0000000000085128 f   UefiShellDebug1CommandsLib:Comp.obj
 0001:00074168       FileBufferUninit           0000000000085168 f   UefiShellDebug1CommandsLib:Comp.obj
 0001:000741a0       FileBufferReadByte         00000000000851a0 f   UefiShellDebug1CommandsLib:Comp.obj
 0001:0008f9a4       $LN226                     00000000000a09a4     UefiShellDebug1CommandsLib:PrintInfo.obj
 0001:000ae278       PopulateCommonData         00000000000bf278 f   VariablePolicyHelperLib:VariablePolicyHelperLib.obj
 0002:00000930       mScriptExtension           00000000000c0930     Shell:Shell.obj
 0002:00000940       mExecutableExtensions      00000000000c0940     Shell:Shell.obj
 0002:00000968       mStartupScript             00000000000c0968     Shell:Shell.obj
 0002:00002060       Hex                        00000000000c2060     UefiShellCommandLib:UefiShellCommandLib.obj
 0002:00006438       EfiIsaIoProtocolGuid       00000000000c6438     UefiHandleParsingLib:UefiHandleParsingLib.obj
 0002:00006448       WinNtThunkProtocolGuid     00000000000c6448     UefiHandleParsingLib:UefiHandleParsingLib.obj
 0002:00006460       mGuidStringListNT          00000000000c6460     UefiHandleParsingLib:UefiHandleParsingLib.obj
 0002:000064c0       EfiIsaAcpiProtocolGuid     00000000000c64c0     UefiHandleParsingLib:UefiHandleParsingLib.obj
 0002:000064d0       WinNtSerialPortGuid        00000000000c64d0     UefiHandleParsingLib:UefiHandleParsingLib.obj
 0002:000064e0       WinNtIoProtocolGuid        00000000000c64e0     UefiHandleParsingLib:UefiHandleParsingLib.obj
 0002:000064f0       VersionStringSize          00000000000c64f0     UefiHandleParsingLib:UefiHandleParsingLib.obj
 0002:00006500       mGuidStringList            00000000000c6500     UefiHandleParsingLib:UefiHandleParsingLib.obj
 0002:00008810       ResetParamList             00000000000c8810     UefiShellLevel2CommandsLib:Reset.obj
 0002:000088e0       LoadParamList              00000000000c88e0     UefiShellLevel2CommandsLib:Load.obj
 0002:00008a20       TimeZoneList               00000000000c8a20     UefiShellLevel2CommandsLib:TimeDate.obj
 0002:00008ab0       TimeZoneParamList3         00000000000c8ab0     UefiShellLevel2CommandsLib:TimeDate.obj
 0002:00008af0       TimeParamList2             00000000000c8af0     UefiShellLevel2CommandsLib:TimeDate.obj
 0002:00008b10       TimeZoneParamList2         00000000000c8b10     UefiShellLevel2CommandsLib:TimeDate.obj
 0002:00008b40       TimeParamList3             00000000000c8b40     UefiShellLevel2CommandsLib:TimeDate.obj
 0002:00008c30       ParamList                  00000000000c8c30     UefiShellLevel2CommandsLib:Parse.obj
 0002:00008d8c       AllFiles                   00000000000c8d8c     UefiShellLevel2CommandsLib:Attrib.obj
 0002:00008d90       AttribParamList            00000000000c8d90     UefiShellLevel2CommandsLib:Attrib.obj
 0002:000090c0       LsParamList                00000000000c90c0     UefiShellLevel2CommandsLib:Ls.obj
 0002:000091d0       MapParamList               00000000000c91d0     UefiShellLevel2CommandsLib:Map.obj
 0002:000093d8       ParamList                  00000000000c93d8     UefiShellLevel2CommandsLib:Cp.obj
 0002:00009478       ParamList                  00000000000c9478     UefiShellLevel2CommandsLib:Vol.obj
 0002:000094f8       ParamList                  00000000000c94f8     UefiShellLevel2CommandsLib:Rm.obj
 0002:00009568       SetParamList               00000000000c9568     UefiShellLevel2CommandsLib:Set.obj
 0002:00009748       mFileName                  00000000000c9748     UefiShellLevel1CommandsLib:UefiShellLevel1CommandsLib.obj
 0002:00009dc0       ParamList                  00000000000c9dc0     UefiShellLevel1CommandsLib:Exit.obj
 0002:0000a010       ParamList                  00000000000ca010     UefiShellLevel3CommandsLib:Help.obj
 0002:0000a0e0       ParamList                  00000000000ca0e0     UefiShellLevel3CommandsLib:Type.obj
 0002:0000a180       ParamList                  00000000000ca180     UefiShellLevel3CommandsLib:Echo.obj
 0002:0000a200       ParamList                  00000000000ca200     UefiShellLevel3CommandsLib:Pause.obj
 0002:0000a270       ParamList                  00000000000ca270     UefiShellLevel3CommandsLib:Touch.obj
 0002:0000a380       ParamList                  00000000000ca380     UefiShellLevel3CommandsLib:Ver.obj
 0002:0000a440       ParamList                  00000000000ca440     UefiShellLevel3CommandsLib:Alias.obj
 0002:0000a4b8       ParamList                  00000000000ca4b8     UefiShellLevel3CommandsLib:Cls.obj
 0002:0000a5a8       mFileName                  00000000000ca5a8     UefiShellDriver1CommandsLib:UefiShellDriver1CommandsLib.obj
 0002:0000a6a8       ParamList                  00000000000ca6a8     UefiShellDriver1CommandsLib:Connect.obj
 0002:0000a788       ParamList                  00000000000ca788     UefiShellDriver1CommandsLib:Devices.obj
 0002:0000a820       ParamList                  00000000000ca820     UefiShellDriver1CommandsLib:Unload.obj
 0002:0000a8b0       ParamList                  00000000000ca8b0     UefiShellDriver1CommandsLib:Reconnect.obj
 0002:0000a938       StringExclusive            00000000000ca938     UefiShellDriver1CommandsLib:OpenInfo.obj
 0002:0000a950       StringTestProt             00000000000ca950     UefiShellDriver1CommandsLib:OpenInfo.obj
 0002:0000a968       StringChild                00000000000ca968     UefiShellDriver1CommandsLib:OpenInfo.obj
 0002:0000a980       StringGetProt              00000000000ca980     UefiShellDriver1CommandsLib:OpenInfo.obj
 0002:0000a998       StringUnknown              00000000000ca998     UefiShellDriver1CommandsLib:OpenInfo.obj
 0002:0000a9b0       StringDriverEx             00000000000ca9b0     UefiShellDriver1CommandsLib:OpenInfo.obj
 0002:0000a9c8       StringDriver               00000000000ca9c8     UefiShellDriver1CommandsLib:OpenInfo.obj
 0002:0000a9e0       StringHandProt             00000000000ca9e0     UefiShellDriver1CommandsLib:OpenInfo.obj
 0002:0000aa50       ParamList                  00000000000caa50     UefiShellDriver1CommandsLib:Drivers.obj
 0002:0000abb0       ParamList                  00000000000cabb0     UefiShellDriver1CommandsLib:DrvDiag.obj
 0002:0000ade0       ParamList                  00000000000cade0     UefiShellDriver1CommandsLib:Dh.obj
 0002:0000aee8       ParamList                  00000000000caee8     UefiShellDriver1CommandsLib:DevTree.obj
 0002:0000b120       ParamListPreHii            00000000000cb120     UefiShellDriver1CommandsLib:DrvCfg.obj
 0002:0000b180       ParamListHii               00000000000cb180     UefiShellDriver1CommandsLib:DrvCfg.obj
 0002:0000b298       ParamList                  00000000000cb298     UefiShellDriver1CommandsLib:Disconnect.obj
 0002:0000b4b0       mFileName                  00000000000cb4b0     UefiShellDebug1CommandsLib:UefiShellDebug1CommandsLib.obj
 0002:0000b530       ParamList                  00000000000cb530     UefiShellDebug1CommandsLib:Dmem.obj
 0002:00011470       ParamList                  00000000000d1470     UefiShellDebug1CommandsLib:Pci.obj
 0002:00011510       ParamList                  00000000000d1510     UefiShellDebug1CommandsLib:HexEdit.obj
 0002:000115b0       NameEfiReservedMemoryType  00000000000d15b0     UefiShellDebug1CommandsLib:MemMap.obj
 0002:000115c8       NameEfiBootServicesCode    00000000000d15c8     UefiShellDebug1CommandsLib:MemMap.obj
 0002:000115e8       NameEfiRuntimeServicesCodeShort 00000000000d15e8     UefiShellDebug1CommandsLib:MemMap.obj
 0002:000115f8       NameEfiConventionalMemory  00000000000d15f8     UefiShellDebug1CommandsLib:MemMap.obj
 0002:00011610       NameEfiMemoryMappedIO      00000000000d1610     UefiShellDebug1CommandsLib:MemMap.obj
 0002:00011630       NameEfiMemoryMappedIOPortSpace 00000000000d1630     UefiShellDebug1CommandsLib:MemMap.obj
 0002:00011660       NameEfiMemoryMappedIOPortSpaceShort 00000000000d1660     UefiShellDebug1CommandsLib:MemMap.obj
 0002:00011678       NameEfiUnacceptedMemoryType 00000000000d1678     UefiShellDebug1CommandsLib:MemMap.obj
 0002:00011690       NameEfiRuntimeServicesCode 00000000000d1690     UefiShellDebug1CommandsLib:MemMap.obj
 0002:000116a8       NameEfiBootServicesDataShort 00000000000d16a8     UefiShellDebug1CommandsLib:MemMap.obj
 0002:000116b8       NameEfiPersistentMemory    00000000000d16b8     UefiShellDebug1CommandsLib:MemMap.obj
 0002:000116d0       NameEfiACPIMemoryNVSShort  00000000000d16d0     UefiShellDebug1CommandsLib:MemMap.obj
 0002:000116e8       NameEfiLoaderCode          00000000000d16e8     UefiShellDebug1CommandsLib:MemMap.obj
 0002:00011700       NameEfiBootServicesData    00000000000d1700     UefiShellDebug1CommandsLib:MemMap.obj
 0002:00011720       NameEfiACPIReclaimMemory   00000000000d1720     UefiShellDebug1CommandsLib:MemMap.obj
 0002:00011748       NameEfiACPIMemoryNVS       00000000000d1748     UefiShellDebug1CommandsLib:MemMap.obj
 0002:00011768       NameEfiBootServicesCodeShort 00000000000d1768     UefiShellDebug1CommandsLib:MemMap.obj
 0002:00011778       NameEfiMemoryMappedIOShort 00000000000d1778     UefiShellDebug1CommandsLib:MemMap.obj
 0002:00011788       NameEfiLoaderData          00000000000d1788     UefiShellDebug1CommandsLib:MemMap.obj
 0002:000117a0       NameEfiRuntimeServicesDataShort 00000000000d17a0     UefiShellDebug1CommandsLib:MemMap.obj
 0002:000117b0       NameEfiACPIReclaimMemoryShort 00000000000d17b0     UefiShellDebug1CommandsLib:MemMap.obj
 0002:000117c8       NameEfiUnusableMemory      00000000000d17c8     UefiShellDebug1CommandsLib:MemMap.obj
 0002:000117e8       NameEfiRuntimeServicesData 00000000000d17e8     UefiShellDebug1CommandsLib:MemMap.obj
 0002:00011800       NameEfiPalCode             00000000000d1800     UefiShellDebug1CommandsLib:MemMap.obj
 0002:00011810       NameEfiUnusableMemoryShort 00000000000d1810     UefiShellDebug1CommandsLib:MemMap.obj
 0002:00011b70       ParamList                  00000000000d1b70     UefiShellDebug1CommandsLib:Mm.obj
 0002:00011cb8       ParamList                  00000000000d1cb8     UefiShellDebug1CommandsLib:Comp.obj
 0002:00012000       ParamList                  00000000000d2000     UefiShellDebug1CommandsLib:SmbiosView.obj
 0002:000120c0       ParamList                  00000000000d20c0     UefiShellDebug1CommandsLib:LoadPciRom.obj
 0002:00012240       ParamList                  00000000000d2240     UefiShellDebug1CommandsLib:DmpStore.obj
 0002:00012360       ParamList                  00000000000d2360     UefiShellDebug1CommandsLib:SetVar.obj
 0002:0001de40       PingParamList              00000000000dde40     UefiShellNetwork1CommandsLib:Ping.obj
 0002:0001dfe8       PermanentString            00000000000ddfe8     UefiShellNetwork1CommandsLib:Ifconfig.obj
 0002:0001ecd8       mFileName                  00000000000decd8     UefiShellBcfgCommandLib:UefiShellBcfgCommandLib.obj
 0002:0001ecf8       ParamList                  00000000000decf8     UefiShellBcfgCommandLib:UefiShellBcfgCommandLib.obj
 0003:00037ad0       DiagGuidList               0000000000117ad0     UefiShellDriver1CommandsLib:DrvDiag.obj
 0003:00037b10       CfgGuidList                0000000000117b10     UefiShellDriver1CommandsLib:DrvCfg.obj
 0003:00057738       mSmbiosStruct              0000000000137738     UefiShellDebug1CommandsLib:LibSmbiosView.obj
 0003:00057740       mSmbios64BitStruct         0000000000137740     UefiShellDebug1CommandsLib:LibSmbiosView.obj
 0003:00060b88       mUnicodeCollation          0000000000140b88     UefiSortLib:UefiSortLib.obj
 0003:00060bd8       mFsMaxCount                0000000000140bd8     UefiShellCommandLib:UefiShellCommandLib.obj
 0003:00060be0       mBlkMaxCount               0000000000140be0     UefiShellCommandLib:UefiShellCommandLib.obj
 0003:00060c20       mStatisticsTable           0000000000140c20     UefiShellDebug1CommandsLib:SmbiosView.obj
 0003:00060c28       mSmbios64BitStatisticsTable 0000000000140c28     UefiShellDebug1CommandsLib:SmbiosView.obj
 0003:00060c34       mBufSiz                    0000000000140c34     UefiShellDebug1CommandsLib:Compress.obj
 0003:00060c38       mNext                      0000000000140c38     UefiShellDebug1CommandsLib:Compress.obj
 0003:00060c40       m_SmbiosStruct             0000000000140c40     UefiShellDebug1CommandsLib:LibSmbiosView.obj
 0003:00060c48       m_Smbios64BitStruct        0000000000140c48     UefiShellDebug1CommandsLib:LibSmbiosView.obj
 0003:00060c50       mAliasList                 0000000000140c50     UefiShellCommandLib:UefiShellCommandLib.obj
 0003:00060c70       mExitRequested             0000000000140c70     UefiShellCommandLib:UefiShellCommandLib.obj
 0003:00060c71       mExitScript                0000000000140c71     UefiShellCommandLib:UefiShellCommandLib.obj
 0003:00060c72       mEchoState                 0000000000140c72     UefiShellCommandLib:UefiShellCommandLib.obj
 0003:00060c78       mExitCode                  0000000000140c78     UefiShellCommandLib:UefiShellCommandLib.obj
 0003:00060c80       mScriptList                0000000000140c80     UefiShellCommandLib:UefiShellCommandLib.obj
 0003:00060c98       mProfileList               0000000000140c98     UefiShellCommandLib:UefiShellCommandLib.obj
 0003:00060ca0       mCommandList               0000000000140ca0     UefiShellCommandLib:UefiShellCommandLib.obj
 0003:00060ce0       mProfileListSize           0000000000140ce0     UefiShellCommandLib:UefiShellCommandLib.obj
 0003:00060ce8       mFileHandleList            0000000000140ce8     UefiShellCommandLib:UefiShellCommandLib.obj
 0003:00060d00       mCLen                      0000000000140d00     UefiShellDebug1CommandsLib:Compress.obj
 0003:00060f00       mText                      0000000000140f00     UefiShellDebug1CommandsLib:Compress.obj
 0003:00060f08       mRemainder                 0000000000140f08     UefiShellDebug1CommandsLib:Compress.obj
 0003:00060f10       mTFreq                     0000000000140f10     UefiShellDebug1CommandsLib:Compress.obj
 0003:00060f5c       mMatchLen                  0000000000140f5c     UefiShellDebug1CommandsLib:Compress.obj
 0003:00060f60       mSortPtr                   0000000000140f60     UefiShellDebug1CommandsLib:Compress.obj
 0003:00060f68       mChildCount                0000000000140f68     UefiShellDebug1CommandsLib:Compress.obj
 0003:00060f70       mHeap                      0000000000140f70     UefiShellDebug1CommandsLib:Compress.obj
 0003:00061370       mCFreq                     0000000000141370     UefiShellDebug1CommandsLib:Compress.obj
 0003:00061b68       mBuf                       0000000000141b68     UefiShellDebug1CommandsLib:Compress.obj
 0003:00061b70       mCCode                     0000000000141b70     UefiShellDebug1CommandsLib:Compress.obj
 0003:00061f6c       mAvail                     0000000000141f6c     UefiShellDebug1CommandsLib:Compress.obj
 0003:00061f70       mPTCode                    0000000000141f70     UefiShellDebug1CommandsLib:Compress.obj
 0003:00061f98       mPFreq                     0000000000141f98     UefiShellDebug1CommandsLib:Compress.obj
 0003:00061fd0       mHeapSize                  0000000000141fd0     UefiShellDebug1CommandsLib:Compress.obj
 0003:00061fd4       ?CPos@?1??CompressOutput@@9@9 0000000000141fd4     UefiShellDebug1CommandsLib:Compress.obj
 0003:00061fd8       mDstUpperLimit             0000000000141fd8     UefiShellDebug1CommandsLib:Compress.obj
 0003:00061fe0       mFreq                      0000000000141fe0     UefiShellDebug1CommandsLib:Compress.obj
 0003:00061fe8       mPTLen                     0000000000141fe8     UefiShellDebug1CommandsLib:Compress.obj
 0003:00062000       mLeft                      0000000000142000     UefiShellDebug1CommandsLib:Compress.obj
 0003:000627f8       mPosition                  00000000001427f8     UefiShellDebug1CommandsLib:Compress.obj
 0003:00062800       mOutputPos                 0000000000142800     UefiShellDebug1CommandsLib:Compress.obj
 0003:00062804       mOrigSize                  0000000000142804     UefiShellDebug1CommandsLib:Compress.obj
 0003:00062808       mLenCnt                    0000000000142808     UefiShellDebug1CommandsLib:Compress.obj
 0003:0006282c       mTempInt32                 000000000014282c     UefiShellDebug1CommandsLib:Compress.obj
 0003:00062830       mCrcTable                  0000000000142830     UefiShellDebug1CommandsLib:Compress.obj
 0003:00062a30       mLen                       0000000000142a30     UefiShellDebug1CommandsLib:Compress.obj
 0003:00062a38       mParent                    0000000000142a38     UefiShellDebug1CommandsLib:Compress.obj
 0003:00062a40       mBitCount                  0000000000142a40     UefiShellDebug1CommandsLib:Compress.obj
 0003:00062a44       mMatchPos                  0000000000142a44     UefiShellDebug1CommandsLib:Compress.obj
 0003:00062a48       mSrcUpperLimit             0000000000142a48     UefiShellDebug1CommandsLib:Compress.obj
 0003:00062a50       mSrc                       0000000000142a50     UefiShellDebug1CommandsLib:Compress.obj
 0003:00062a58       mLevel                     0000000000142a58     UefiShellDebug1CommandsLib:Compress.obj
 0003:00062a60       mCompSize                  0000000000142a60     UefiShellDebug1CommandsLib:Compress.obj
 0003:00062a64       mCrc                       0000000000142a64     UefiShellDebug1CommandsLib:Compress.obj
 0003:00062a68       mDst                       0000000000142a68     UefiShellDebug1CommandsLib:Compress.obj
 0003:00062a70       mPrev                      0000000000142a70     UefiShellDebug1CommandsLib:Compress.obj
 0003:00062a78       mPos                       0000000000142a78     UefiShellDebug1CommandsLib:Compress.obj
 0003:00062a7c       mSubBitBuf                 0000000000142a7c     UefiShellDebug1CommandsLib:Compress.obj
 0003:00062a80       mRight                     0000000000142a80     UefiShellDebug1CommandsLib:Compress.obj
 0003:00063278       mOutputMask                0000000000143278     UefiShellDebug1CommandsLib:Compress.obj
 0003:0006327c       ?CheckConflict@?1??IfConfigRetriveCheckListByName@@9@9 000000000014327c     UefiShellNetwork1CommandsLib:Ifconfig.obj
 0003:00063280       mDstString                 0000000000143280     UefiShellNetwork1CommandsLib:Ping.obj
 0003:00063288       mSrcString                 0000000000143288     UefiShellNetwork1CommandsLib:Ping.obj
 0003:00063290       ?CheckDuplicate@?1??IfConfigRetriveCheckListByName@@9@9 0000000000143290     UefiShellNetwork1CommandsLib:Ifconfig.obj
 0003:00063298       mSmbiosTable               0000000000143298     UefiShellDebug1CommandsLib:LibSmbiosView.obj
 0003:000632a0       mSmbios64BitTable          00000000001432a0     UefiShellDebug1CommandsLib:LibSmbiosView.obj
 0003:000632a8       mInit                      00000000001432a8     UefiShellDebug1CommandsLib:LibSmbiosView.obj
 0003:000632a9       m64Init                    00000000001432a9     UefiShellDebug1CommandsLib:LibSmbiosView.obj
 0003:00063388       gShellBcfgHiiHandle        0000000000143388     UefiShellBcfgCommandLib:UefiShellBcfgCommandLib.obj
 0004:00000000       .edata                     0000000000144000     Shell.exp
 0004:00000028       rgpv                       0000000000144028     Shell.exp
 0004:0000002c       rgszName                   000000000014402c     Shell.exp
 0004:00000030       rgwOrd                     0000000000144030     Shell.exp
 0004:00000032       szName                     0000000000144032     Shell.exp
 0004:0000003c       $N00001                    000000000014403c     Shell.exp
 0006:00000000       $unwind$BmGetDevicePathSizeEx 0000000000149000     UefiBootManagerLib:BmLoadOption.obj
 0006:00000000       $unwind$BmStrSizeEx        0000000000149000     UefiBootManagerLib:BmLoadOption.obj
 0006:00000000       $unwind$UefiHiiServicesLibConstructor 0000000000149000     UefiHiiServicesLib:UefiHiiServicesLib.obj
 0006:00000000       $unwind$StringNoCaseCompare 0000000000149000     UefiSortLib:UefiSortLib.obj
 0006:00000000       $unwind$MmioWrite16        0000000000149000     BaseIoLibIntrinsic:IoLib.obj
 0006:00000000       $unwind$MmioWrite64        0000000000149000     BaseIoLibIntrinsic:IoLib.obj
 0006:00000000       $unwind$IoWrite16          0000000000149000     BaseIoLibIntrinsic:IoLibMsc.obj
 0006:00000000       $unwind$IsNodeAtEnd        0000000000149000     BaseLib:LinkedList.obj
 0006:00000000       $unwind$IsNull             0000000000149000     BaseLib:LinkedList.obj
 0006:00000000       $unwind$SwapListEntries    0000000000149000     BaseLib:LinkedList.obj
 0006:00000000       $unwind$MultU64x64         0000000000149000     BaseLib:MultU64x64.obj
 0006:00000000       $unwind$StrnLenS           0000000000149000     BaseLib:SafeString.obj
 0006:00000000       $unwind$StrStr             0000000000149000     BaseLib:String.obj
 0006:00000000       $unwind$OrderedCollectionInit 0000000000149000     BaseOrderedCollectionRedBlackTreeLib:BaseOrderedCollectionRedBlackTreeLib.obj
 0006:00000000       $unwind$SPrintLength       0000000000149000     BasePrintLib:PrintLib.obj
 0006:00000000       $unwind$DxeServicesTableLibConstructor 0000000000149000     DxeServicesTableLib:DxeServicesTableLib.obj
 0006:00000000       $unwind$_ModuleEntryPoint  0000000000149000     UefiApplicationEntryPoint:ApplicationEntryPoint.obj
 0006:00000000       $unwind$CatIPv4Address     0000000000149000     UefiDevicePathLib:DevicePathToText.obj
 0006:00000000       $unwind$FileHandleFindFirstFile 0000000000149000     UefiFileHandleLib:UefiFileHandleLib.obj
 0006:00000000       $unwind$FileHandleGetSize  0000000000149000     UefiFileHandleLib:UefiFileHandleLib.obj
 0006:00000000       $unwind$FileHandleSetSize  0000000000149000     UefiFileHandleLib:UefiFileHandleLib.obj
 0006:00000000       $unwind$EfiGetSystemConfigurationTable 0000000000149000     UefiLib:UefiLib.obj
 0006:00000000       $unwind$NetLibStrToIp4     0000000000149000     DxeNetLib:DxeNetLib.obj
 0006:00000000       $unwind$NetLibStrToIp6     0000000000149000     DxeNetLib:DxeNetLib.obj
 0006:00000000       $unwind$ProcessLibraryConstructorList 0000000000149000     Shell:AutoGen.obj
 0006:00000000       $unwind$ProcessLibraryDestructorList 0000000000149000     Shell:AutoGen.obj
 0006:00000000       $unwind$ConsoleLoggerInstall 0000000000149000     Shell:ConsoleLogger.obj
 0006:00000000       $unwind$ConsoleLoggerOutputStringSplit 0000000000149000     Shell:ConsoleLogger.obj
 0006:00000000       $unwind$ConsoleLoggerTestString 0000000000149000     Shell:ConsoleLogger.obj
 0006:00000000       $unwind$FileBasedSimpleTextInReadKeyStroke 0000000000149000     Shell:ConsoleWrappers.obj
 0006:00000000       $unwind$FileBasedSimpleTextOutOutputString 0000000000149000     Shell:ConsoleWrappers.obj
 0006:00000000       $unwind$IsValidEnvironmentVariableName 0000000000149000     Shell:Shell.obj
 0006:00000000       $unwind$SearchPathForFile  0000000000149000     Shell:ShellManParser.obj
 0006:00000000       $unwind$EfiShellGetGuidFromName 0000000000149000     Shell:ShellProtocol.obj
 0006:00000000       $unwind$EfiShellGetGuidName 0000000000149000     Shell:ShellProtocol.obj
 0006:00000000       $unwind$EfiShellOpenRoot   0000000000149000     Shell:ShellProtocol.obj
 0006:00000000       $unwind$EfiShellSetMap     0000000000149000     Shell:ShellProtocol.obj
 0006:00000000       $unwind$GetStringNameFromGuid 0000000000149000     UefiHandleParsingLib:UefiHandleParsingLib.obj
 0006:00000000       $unwind$HandleParsingLibDestructor 0000000000149000     UefiHandleParsingLib:UefiHandleParsingLib.obj
 0006:00000000       $unwind$AppendCSDNum       0000000000149000     UefiShellCommandLib:ConsistMapping.obj
 0006:00000000       $unwind$DevPathCompareDefault 0000000000149000     UefiShellCommandLib:ConsistMapping.obj
 0006:00000000       $unwind$DevPathComparePci  0000000000149000     UefiShellCommandLib:ConsistMapping.obj
 0006:00000000       $unwind$ConvertEfiFileProtocolToShellHandle 0000000000149000     UefiShellCommandLib:UefiShellCommandLib.obj
 0006:00000000       $unwind$ShellCommandLibConstructor 0000000000149000     UefiShellCommandLib:UefiShellCommandLib.obj
 0006:00000000       $unwind$UniqueNameAliasCompare 0000000000149000     UefiShellCommandLib:UefiShellCommandLib.obj
 0006:00000000       $unwind$UniqueNameCompare  0000000000149000     UefiShellCommandLib:UefiShellCommandLib.obj
 0006:00000000       $unwind$LineCat            0000000000149000     UefiShellDebug1CommandsLib:FileBuffer.obj
 0006:00000000       $unwind$LibGetSmbiosString 0000000000149000     UefiShellDebug1CommandsLib:LibSmbiosView.obj
 0006:00000000       $unwind$GetSystemConfigurationTable 0000000000149000     UefiShellDebug1CommandsLib:UefiShellDebug1CommandsLib.obj
 0006:00000000       $unwind$InternalIsAliasOnList 0000000000149000     UefiShellLevel1CommandsLib:For.obj
 0006:00000000       $unwind$InternalRemoveAliasFromList 0000000000149000     UefiShellLevel1CommandsLib:For.obj
 0006:00000000       $unwind$IsCurrentFileSystem 0000000000149000     UefiShellLevel2CommandsLib:Cd.obj
 0006:00000000       $unwind$ShellLevel2StripQuotes 0000000000149000     UefiShellLevel2CommandsLib:UefiShellLevel2CommandsLib.obj
 0006:00000000       $unwind$InternalShellStripQuotes 0000000000149000     UefiShellLib:UefiShellLib.obj
 0006:00000000       $unwind$ShellCommandLineCheckDuplicate 0000000000149000     UefiShellLib:UefiShellLib.obj
 0006:00000000       $unwind$ShellCommandLineGetFlag 0000000000149000     UefiShellLib:UefiShellLib.obj
 0006:00000000       $unwind$ShellCommandLineGetRawValue 0000000000149000     UefiShellLib:UefiShellLib.obj
 0006:00000000       $unwind$ShellCommandLineGetValue 0000000000149000     UefiShellLib:UefiShellLib.obj
 0006:00000000       $unwind$ShellLibDestructor 0000000000149000     UefiShellLib:UefiShellLib.obj
 0006:00000008       $unwind$EfiBootManagerVariableToLoadOption 0000000000149008     UefiBootManagerLib:BmLoadOption.obj
 0006:00000008       $unwind$StringCompare      0000000000149008     UefiSortLib:UefiSortLib.obj
 0006:00000008       $unwind$IoWrite64          0000000000149008     BaseIoLibIntrinsic:IoLib.obj
 0006:00000008       $unwind$TdIoWrite16        0000000000149008     BaseIoLibIntrinsic:IoLibInternalTdxNull.obj
 0006:00000008       $unwind$TdMmioWrite16      0000000000149008     BaseIoLibIntrinsic:IoLibInternalTdxNull.obj
 0006:00000008       $unwind$TdMmioWrite64      0000000000149008     BaseIoLibIntrinsic:IoLibInternalTdxNull.obj
 0006:00000008       $unwind$LShiftU64          0000000000149008     BaseLib:LShiftU64.obj
 0006:00000008       $unwind$GetNextNode        0000000000149008     BaseLib:LinkedList.obj
 0006:00000008       $unwind$GetPreviousNode    0000000000149008     BaseLib:LinkedList.obj
 0006:00000008       $unwind$InsertHeadList     0000000000149008     BaseLib:LinkedList.obj
 0006:00000008       $unwind$InsertTailList     0000000000149008     BaseLib:LinkedList.obj
 0006:00000008       $unwind$RShiftU64          0000000000149008     BaseLib:RShiftU64.obj
 0006:00000008       $unwind$StrnSizeS          0000000000149008     BaseLib:SafeString.obj
 0006:00000008       $unwind$StrCmp             0000000000149008     BaseLib:String.obj
 0006:00000008       $unwind$WriteUnaligned16   0000000000149008     BaseLib:Unaligned.obj
 0006:00000008       $unwind$WriteUnaligned64   0000000000149008     BaseLib:Unaligned.obj
 0006:00000008       $unwind$InternalMemZeroMem 0000000000149008     BaseMemoryLib:MemLibGeneric.obj
 0006:00000008       $unwind$CopyGuid           0000000000149008     BaseMemoryLib:MemLibGuid.obj
 0006:00000008       $unwind$ZeroMem            0000000000149008     BaseMemoryLib:ZeroMemWrapper.obj
 0006:00000008       $unwind$RedBlackTreeRotateLeft 0000000000149008     BaseOrderedCollectionRedBlackTreeLib:BaseOrderedCollectionRedBlackTreeLib.obj
 0006:00000008       $unwind$RedBlackTreeRotateRight 0000000000149008     BaseOrderedCollectionRedBlackTreeLib:BaseOrderedCollectionRedBlackTreeLib.obj
 0006:00000008       $unwind$HobLibConstructor  0000000000149008     DxeHobLib:HobLib.obj
 0006:00000008       $unwind$UefiBootServicesTableLibConstructor 0000000000149008     UefiBootServicesTableLib:UefiBootServicesTableLib.obj
 0006:00000008       $unwind$GetNextDeviceNodeStr 0000000000149008     UefiDevicePathLib:DevicePathFromText.obj
 0006:00000008       $unwind$Strtoi64           0000000000149008     UefiDevicePathLib:DevicePathFromText.obj
 0006:00000008       $unwind$CatNetworkProtocol 0000000000149008     UefiDevicePathLib:DevicePathToText.obj
 0006:00000008       $unwind$SetDevicePathNodeLength 0000000000149008     UefiDevicePathLib:DevicePathUtilities.obj
 0006:00000008       $unwind$AppendDevicePath   0000000000149008     UefiDevicePathLib:UefiDevicePathLib.obj
 0006:00000008       $unwind$AppendDevicePathNode 0000000000149008     UefiDevicePathLib:UefiDevicePathLib.obj
 0006:00000008       $unwind$GetNextDevicePathInstance 0000000000149008     UefiDevicePathLib:UefiDevicePathLib.obj
 0006:00000008       $unwind$FileHandleGetPosition 0000000000149008     UefiFileHandleLib:UefiFileHandleLib.obj
 0006:00000008       $unwind$FileHandleSetInfo  0000000000149008     UefiFileHandleLib:UefiFileHandleLib.obj
 0006:00000008       $unwind$FileHandleSetPosition 0000000000149008     UefiFileHandleLib:UefiFileHandleLib.obj
 0006:00000008       $unwind$AllocateCopyPool   0000000000149008     UefiMemoryAllocationLib:MemoryAllocationLib.obj
 0006:00000008       $unwind$UefiRuntimeServicesTableLibConstructor 0000000000149008     UefiRuntimeServicesTableLib:UefiRuntimeServicesTableLib.obj
 0006:00000008       $unwind$ProcessModuleEntryPointList 0000000000149008     Shell:AutoGen.obj
 0006:00000008       $unwind$ConInWaitForKey    0000000000149008     Shell:ConsoleWrappers.obj
 0006:00000008       $unwind$FileInterfaceFileGetPosition 0000000000149008     Shell:FileHandleWrappers.obj
 0006:00000008       $unwind$FileInterfaceFileSetPosition 0000000000149008     Shell:FileHandleWrappers.obj
 0006:00000008       $unwind$IsCommand          0000000000149008     Shell:Shell.obj
 0006:00000008       $unwind$EfiShellRegisterGuidName 0000000000149008     Shell:ShellProtocol.obj
 0006:00000008       $unwind$BcfgLibraryUnregisterBcfgCommand 0000000000149008     UefiShellBcfgCommandLib:UefiShellBcfgCommandLib.obj
 0006:00000008       $unwind$HClipBoardSet      0000000000149008     UefiShellDebug1CommandsLib:Clipboard.obj
 0006:00000008       $unwind$UefiShellDebug1CommandsLibDestructor 0000000000149008     UefiShellDebug1CommandsLib:UefiShellDebug1CommandsLib.obj
 0006:00000008       $unwind$UefiShellDriver1CommandsLibDestructor 0000000000149008     UefiShellDriver1CommandsLib:UefiShellDriver1CommandsLib.obj
 0006:00000008       $unwind$ShellInstall1CommandsLibConstructor 0000000000149008     UefiShellInstall1CommandsLib:UefiShellInstall1CommandsLib.obj
 0006:00000008       $unwind$ShellInstall1CommandsLibDestructor 0000000000149008     UefiShellInstall1CommandsLib:UefiShellInstall1CommandsLib.obj
 0006:00000008       $unwind$ShellLevel1CommandsLibDestructor 0000000000149008     UefiShellLevel1CommandsLib:UefiShellLevel1CommandsLib.obj
 0006:00000008       $unwind$ShellLevel2CommandsLibDestructor 0000000000149008     UefiShellLevel2CommandsLib:UefiShellLevel2CommandsLib.obj
 0006:00000008       $unwind$ShellLevel3CommandsLibDestructor 0000000000149008     UefiShellLevel3CommandsLib:UefiShellLevel3CommandsLib.obj
 0006:00000008       $unwind$ShellCreateDirectory 0000000000149008     UefiShellLib:UefiShellLib.obj
 0006:00000008       $unwind$ShellGetFilePosition 0000000000149008     UefiShellLib:UefiShellLib.obj
 0006:00000008       $unwind$ShellGetFileSize   0000000000149008     UefiShellLib:UefiShellLib.obj
 0006:00000008       $unwind$ShellLibConstructor 0000000000149008     UefiShellLib:UefiShellLib.obj
 0006:00000008       $unwind$ShellSetFileInfo   0000000000149008     UefiShellLib:UefiShellLib.obj
 0006:00000008       $unwind$ShellSetFilePosition 0000000000149008     UefiShellLib:UefiShellLib.obj
 0006:00000008       $unwind$ShellNetwork1CommandsLibDestructor 0000000000149008     UefiShellNetwork1CommandsLib:UefiShellNetwork1CommandsLib.obj
 0006:00000010       $unwind$EfiBootManagerFreeLoadOption 0000000000149010     UefiBootManagerLib:BmLoadOption.obj
 0006:00000010       $unwind$IoRead64           0000000000149010     BaseIoLibIntrinsic:IoLib.obj
 0006:00000010       $unwind$TdIoRead16         0000000000149010     BaseIoLibIntrinsic:IoLibInternalTdxNull.obj
 0006:00000010       $unwind$TdIoRead32         0000000000149010     BaseIoLibIntrinsic:IoLibInternalTdxNull.obj
 0006:00000010       $unwind$TdIoRead8          0000000000149010     BaseIoLibIntrinsic:IoLibInternalTdxNull.obj
 0006:00000010       $unwind$TdMmioRead16       0000000000149010     BaseIoLibIntrinsic:IoLibInternalTdxNull.obj
 0006:00000010       $unwind$TdMmioRead32       0000000000149010     BaseIoLibIntrinsic:IoLibInternalTdxNull.obj
 0006:00000010       $unwind$TdMmioRead64       0000000000149010     BaseIoLibIntrinsic:IoLibInternalTdxNull.obj
 0006:00000010       $unwind$TdMmioRead8        0000000000149010     BaseIoLibIntrinsic:IoLibInternalTdxNull.obj
 0006:00000010       $unwind$GetFirstNode       0000000000149010     BaseLib:LinkedList.obj
 0006:00000010       $unwind$InitializeListHead 0000000000149010     BaseLib:LinkedList.obj
 0006:00000010       $unwind$RemoveEntryList    0000000000149010     BaseLib:LinkedList.obj
 0006:00000010       $unwind$AsciiStrSize       0000000000149010     BaseLib:String.obj
 0006:00000010       $unwind$InternalHexCharToUintn 0000000000149010     BaseLib:String.obj
 0006:00000010       $unwind$StrSize            0000000000149010     BaseLib:String.obj
 0006:00000010       $unwind$SwapBytes64        0000000000149010     BaseLib:SwapBytes64.obj
 0006:00000010       $unwind$ReadUnaligned16    0000000000149010     BaseLib:Unaligned.obj
 0006:00000010       $unwind$ReadUnaligned32    0000000000149010     BaseLib:Unaligned.obj
 0006:00000010       $unwind$ReadUnaligned64    0000000000149010     BaseLib:Unaligned.obj
 0006:00000010       $unwind$OrderedCollectionUninit 0000000000149010     BaseOrderedCollectionRedBlackTreeLib:BaseOrderedCollectionRedBlackTreeLib.obj
 0006:00000010       $unwind$DevPathFromTextAcpiPath 0000000000149010     UefiDevicePathLib:DevicePathFromText.obj
 0006:00000010       $unwind$DevPathFromTextBbsPath 0000000000149010     UefiDevicePathLib:DevicePathFromText.obj
 0006:00000010       $unwind$DevPathFromTextFloppy 0000000000149010     UefiDevicePathLib:DevicePathFromText.obj
 0006:00000010       $unwind$DevPathFromTextHardwarePath 0000000000149010     UefiDevicePathLib:DevicePathFromText.obj
 0006:00000010       $unwind$DevPathFromTextKeyboard 0000000000149010     UefiDevicePathLib:DevicePathFromText.obj
 0006:00000010       $unwind$DevPathFromTextMediaPath 0000000000149010     UefiDevicePathLib:DevicePathFromText.obj
 0006:00000010       $unwind$DevPathFromTextMsg 0000000000149010     UefiDevicePathLib:DevicePathFromText.obj
 0006:00000010       $unwind$DevPathFromTextParallelPort 0000000000149010     UefiDevicePathLib:DevicePathFromText.obj
 0006:00000010       $unwind$DevPathFromTextPciRoot 0000000000149010     UefiDevicePathLib:DevicePathFromText.obj
 0006:00000010       $unwind$DevPathFromTextPcieRoot 0000000000149010     UefiDevicePathLib:DevicePathFromText.obj
 0006:00000010       $unwind$DevPathFromTextSerial 0000000000149010     UefiDevicePathLib:DevicePathFromText.obj
 0006:00000010       $unwind$DevPathFromTextVenHw 0000000000149010     UefiDevicePathLib:DevicePathFromText.obj
 0006:00000010       $unwind$DevPathFromTextVenMedia 0000000000149010     UefiDevicePathLib:DevicePathFromText.obj
 0006:00000010       $unwind$DevPathFromTextVenMsg 0000000000149010     UefiDevicePathLib:DevicePathFromText.obj
 0006:00000010       $unwind$GetNextParamStr    0000000000149010     UefiDevicePathLib:DevicePathFromText.obj
 0006:00000010       $unwind$NetworkProtocolFromText 0000000000149010     UefiDevicePathLib:DevicePathFromText.obj
 0006:00000010       $unwind$Strtoi             0000000000149010     UefiDevicePathLib:DevicePathFromText.obj
 0006:00000010       $unwind$UefiDevicePathLibStrDuplicate 0000000000149010     UefiDevicePathLib:DevicePathFromText.obj
 0006:00000010       $unwind$DevicePathNodeLength 0000000000149010     UefiDevicePathLib:DevicePathUtilities.obj
 0006:00000010       $unwind$DevicePathSubType  0000000000149010     UefiDevicePathLib:DevicePathUtilities.obj
 0006:00000010       $unwind$DevicePathType     0000000000149010     UefiDevicePathLib:DevicePathUtilities.obj
 0006:00000010       $unwind$NextDevicePathNode 0000000000149010     UefiDevicePathLib:DevicePathUtilities.obj
 0006:00000010       $unwind$SetDevicePathEndNode 0000000000149010     UefiDevicePathLib:DevicePathUtilities.obj
 0006:00000010       $unwind$ConvertTextToDevicePath 0000000000149010     UefiDevicePathLib:UefiDevicePathLib.obj
 0006:00000010       $unwind$DuplicateDevicePath 0000000000149010     UefiDevicePathLib:UefiDevicePathLib.obj
 0006:00000010       $unwind$GetDevicePathSize  0000000000149010     UefiDevicePathLib:UefiDevicePathLib.obj
 0006:00000010       $unwind$FileHandleFlush    0000000000149010     UefiFileHandleLib:UefiFileHandleLib.obj
 0006:00000010       $unwind$EfiGetNameGuidFromFwVolDevicePathNode 0000000000149010     UefiLib:UefiNotTiano.obj
 0006:00000010       $unwind$AllocatePool       0000000000149010     UefiMemoryAllocationLib:MemoryAllocationLib.obj
 0006:00000010       $unwind$AllocateZeroPool   0000000000149010     UefiMemoryAllocationLib:MemoryAllocationLib.obj
 0006:00000010       $unwind$ConsoleLoggerStopHistory 0000000000149010     Shell:ConsoleLogger.obj
 0006:00000010       $unwind$FileInterfaceFileFlush 0000000000149010     Shell:FileHandleWrappers.obj
 0006:00000010       $unwind$FileInterfaceMemClose 0000000000149010     Shell:FileHandleWrappers.obj
 0006:00000010       $unwind$IsScriptOnlyCommand 0000000000149010     Shell:Shell.obj
 0006:00000010       $unwind$RestoreBufferList  0000000000149010     Shell:Shell.obj
 0006:00000010       $unwind$RunCommand         0000000000149010     Shell:Shell.obj
 0006:00000010       $unwind$SaveBufferList     0000000000149010     Shell:Shell.obj
 0006:00000010       $unwind$TrimSpaces         0000000000149010     Shell:Shell.obj
 0006:00000010       $unwind$EfiShellClose      0000000000149010     Shell:ShellProtocol.obj
 0006:00000010       $unwind$EfiShellGetEnv     0000000000149010     Shell:ShellProtocol.obj
 0006:00000010       $unwind$InternalFreeShellFileInfoNode 0000000000149010     Shell:ShellProtocol.obj
 0006:00000010       $unwind$NotificationFunction 0000000000149010     Shell:ShellProtocol.obj
 0006:00000010       $unwind$InitBcfgStruct     0000000000149010     UefiShellBcfgCommandLib:UefiShellBcfgCommandLib.obj
 0006:00000010       $unwind$ShellCommandIsCommandOnList 0000000000149010     UefiShellCommandLib:UefiShellCommandLib.obj
 0006:00000010       $unwind$FileBufferInit     0000000000149010     UefiShellDebug1CommandsLib:Comp.obj
 0006:00000010       $unwind$FileBufferUninit   0000000000149010     UefiShellDebug1CommandsLib:Comp.obj
 0006:00000010       $unwind$InputBarSetPrompt  0000000000149010     UefiShellDebug1CommandsLib:EditInputBar.obj
 0006:00000010       $unwind$InputBarSetStringSize 0000000000149010     UefiShellDebug1CommandsLib:EditInputBar.obj
 0006:00000010       $unwind$StatusBarSetStatusString 0000000000149010     UefiShellDebug1CommandsLib:EditStatusBar.obj
 0006:00000010       $unwind$MainTitleBarInit   0000000000149010     UefiShellDebug1CommandsLib:EditTitleBar.obj
 0006:00000010       $unwind$FileBufferSetFileName 0000000000149010     UefiShellDebug1CommandsLib:FileBuffer.obj
 0006:00000010       $unwind$LineFree           0000000000149010     UefiShellDebug1CommandsLib:Misc.obj
 0006:00000010       $unwind$HFileImageSetFileName 0000000000149010     UefiShellDebug1CommandsLib:FileImage.obj
 0006:00000010       $unwind$HLineFree          0000000000149010     UefiShellDebug1CommandsLib:Misc.obj
 0006:00000010       $unwind$ExplainPcieDeviceStatus 0000000000149010     UefiShellDebug1CommandsLib:Pci.obj
 0006:00000010       $unwind$ExplainPcieRootCap 0000000000149010     UefiShellDebug1CommandsLib:Pci.obj
 0006:00000010       $unwind$ExplainPcieRootControl 0000000000149010     UefiShellDebug1CommandsLib:Pci.obj
 0006:00000010       $unwind$ExplainPcieRootStatus 0000000000149010     UefiShellDebug1CommandsLib:Pci.obj
 0006:00000010       $unwind$ExplainPcieSlotCap 0000000000149010     UefiShellDebug1CommandsLib:Pci.obj
 0006:00000010       $unwind$ExplainPcieSlotControl 0000000000149010     UefiShellDebug1CommandsLib:Pci.obj
 0006:00000010       $unwind$ExplainPcieSlotStatus 0000000000149010     UefiShellDebug1CommandsLib:Pci.obj
 0006:00000010       $unwind$TestDataType       0000000000149010     UefiShellDebug1CommandsLib:SetVar.obj
 0006:00000010       $unwind$IsValidGuidString  0000000000149010     UefiShellDriver1CommandsLib:Dh.obj
 0006:00000010       $unwind$ShellIsValidForNumber 0000000000149010     UefiShellLevel1CommandsLib:For.obj
 0006:00000010       $unwind$InternalShellHexCharToUintn 0000000000149010     UefiShellLib:UefiShellLib.obj
 0006:00000010       $unwind$ShellCloseFile     0000000000149010     UefiShellLib:UefiShellLib.obj
 0006:00000010       $unwind$ShellDeleteFile    0000000000149010     UefiShellLib:UefiShellLib.obj
 0006:00000010       $unwind$ShellGetCurrentDir 0000000000149010     UefiShellLib:UefiShellLib.obj
 0006:00000010       $unwind$ShellGetEnvironmentVariable 0000000000149010     UefiShellLib:UefiShellLib.obj
 0006:00000010       $unwind$ShellGetFileInfo   0000000000149010     UefiShellLib:UefiShellLib.obj
 0006:00000010       $unwind$PingFreeRttTimer   0000000000149010     UefiShellNetwork1CommandsLib:Ping.obj
 0006:00000018       $unwind$BasePrintLibValueToString 0000000000149018     BasePrintLib:PrintLibInternal.obj
 0006:00000018       $unwind$FileHandleFindNextFile 0000000000149018     UefiFileHandleLib:UefiFileHandleLib.obj
 0006:00000018       $unwind$CreateSimpleTextOutOnFile 0000000000149018     Shell:ConsoleWrappers.obj
 0006:00000018       $unwind$FileInterfaceMemRead 0000000000149018     Shell:FileHandleWrappers.obj
 0006:00000018       $unwind$FileInterfaceMemWrite 0000000000149018     Shell:FileHandleWrappers.obj
 0006:00000018       $unwind$FileInterfaceStdOutWrite 0000000000149018     Shell:FileHandleWrappers.obj
 0006:00000018       $unwind$FindNextInstance   0000000000149018     Shell:Shell.obj
 0006:00000018       $unwind$RestoreArgcArgv    0000000000149018     Shell:ShellParametersProtocol.obj
 0006:00000018       $unwind$AddNewGuidNameMapping 0000000000149018     UefiHandleParsingLib:UefiHandleParsingLib.obj
 0006:00000018       $unwind$GetProtocolInformationDump 0000000000149018     UefiHandleParsingLib:UefiHandleParsingLib.obj
 0006:00000018       $unwind$DevPathSerialAcpi  0000000000149018     UefiShellCommandLib:ConsistMapping.obj
 0006:00000018       $unwind$DevPathSerialAtapi 0000000000149018     UefiShellCommandLib:ConsistMapping.obj
 0006:00000018       $unwind$DevPathSerialCdRom 0000000000149018     UefiShellCommandLib:ConsistMapping.obj
 0006:00000018       $unwind$DevPathSerialFibre 0000000000149018     UefiShellCommandLib:ConsistMapping.obj
 0006:00000018       $unwind$DevPathSerialHardDrive 0000000000149018     UefiShellCommandLib:ConsistMapping.obj
 0006:00000018       $unwind$DevPathSerialI2O   0000000000149018     UefiShellCommandLib:ConsistMapping.obj
 0006:00000018       $unwind$DevPathSerialLun   0000000000149018     UefiShellCommandLib:ConsistMapping.obj
 0006:00000018       $unwind$DevPathSerialSata  0000000000149018     UefiShellCommandLib:ConsistMapping.obj
 0006:00000018       $unwind$DevPathSerialScsi  0000000000149018     UefiShellCommandLib:ConsistMapping.obj
 0006:00000018       $unwind$DevPathSerialUart  0000000000149018     UefiShellCommandLib:ConsistMapping.obj
 0006:00000018       $unwind$ShellCommandRunCommandHandler 0000000000149018     UefiShellCommandLib:UefiShellCommandLib.obj
 0006:00000018       $unwind$PciGetProtocolAndResource 0000000000149018     UefiShellDebug1CommandsLib:Pci.obj
 0006:00000018       $unwind$PrintPciExtendedCapabilityDetails 0000000000149018     UefiShellDebug1CommandsLib:Pci.obj
 0006:00000018       $unwind$CalculateSmbios64BitStructureCountAndLength 0000000000149018     UefiShellDebug1CommandsLib:SmbiosView.obj
 0006:00000018       $unwind$InternalUpdateAliasOnList 0000000000149018     UefiShellLevel1CommandsLib:For.obj
 0006:00000018       $unwind$IsNextFragment     0000000000149018     UefiShellLevel1CommandsLib:If.obj
 0006:00000018       $unwind$ExtractDriveAndPath 0000000000149018     UefiShellLevel2CommandsLib:Cd.obj
 0006:00000018       $unwind$CreateFullDestPath 0000000000149018     UefiShellLevel2CommandsLib:Mv.obj
 0006:00000018       $unwind$CopyListOfCommandNames 0000000000149018     UefiShellLevel3CommandsLib:Help.obj
 0006:00000018       $unwind$InternalIsOnCheckList 0000000000149018     UefiShellLib:UefiShellLib.obj
 0006:00000018       $unwind$InternalShellStrDecimalToUint64 0000000000149018     UefiShellLib:UefiShellLib.obj
 0006:00000018       $unwind$InternalShellStrHexToUint64 0000000000149018     UefiShellLib:UefiShellLib.obj
 0006:00000020       $unwind$HiiGetSupportedLanguages 0000000000149020     UefiHiiLib:HiiLanguage.obj
 0006:00000020       $unwind$PathCleanUpDirectories 0000000000149020     BaseLib:FilePaths.obj
 0006:00000020       $unwind$InternalBaseLibIsListValid 0000000000149020     BaseLib:LinkedList.obj
 0006:00000020       $unwind$DevPathFromTextAcpi 0000000000149020     UefiDevicePathLib:DevicePathFromText.obj
 0006:00000020       $unwind$DevPathFromTextAcpiAdr 0000000000149020     UefiDevicePathLib:DevicePathFromText.obj
 0006:00000020       $unwind$DevPathFromTextAta 0000000000149020     UefiDevicePathLib:DevicePathFromText.obj
 0006:00000020       $unwind$DevPathFromTextBluetoothLE 0000000000149020     UefiDevicePathLib:DevicePathFromText.obj
 0006:00000020       $unwind$DevPathFromTextBmc 0000000000149020     UefiDevicePathLib:DevicePathFromText.obj
 0006:00000020       $unwind$DevPathFromTextCDROM 0000000000149020     UefiDevicePathLib:DevicePathFromText.obj
 0006:00000020       $unwind$DevPathFromTextFibre 0000000000149020     UefiDevicePathLib:DevicePathFromText.obj
 0006:00000020       $unwind$DevPathFromTextFibreEx 0000000000149020     UefiDevicePathLib:DevicePathFromText.obj
 0006:00000020       $unwind$DevPathFromTextMAC 0000000000149020     UefiDevicePathLib:DevicePathFromText.obj
 0006:00000020       $unwind$DevPathFromTextMemoryMapped 0000000000149020     UefiDevicePathLib:DevicePathFromText.obj
 0006:00000020       $unwind$DevPathFromTextPci 0000000000149020     UefiDevicePathLib:DevicePathFromText.obj
 0006:00000020       $unwind$DevPathFromTextRelativeOffsetRange 0000000000149020     UefiDevicePathLib:DevicePathFromText.obj
 0006:00000020       $unwind$DevPathFromTextSata 0000000000149020     UefiDevicePathLib:DevicePathFromText.obj
 0006:00000020       $unwind$DevPathFromTextScsi 0000000000149020     UefiDevicePathLib:DevicePathFromText.obj
 0006:00000020       $unwind$DevPathFromTextUfs 0000000000149020     UefiDevicePathLib:DevicePathFromText.obj
 0006:00000020       $unwind$DevPathFromTextUri 0000000000149020     UefiDevicePathLib:DevicePathFromText.obj
 0006:00000020       $unwind$DevPathFromTextUsb 0000000000149020     UefiDevicePathLib:DevicePathFromText.obj
 0006:00000020       $unwind$FileHandleGetInfo  0000000000149020     UefiFileHandleLib:UefiFileHandleLib.obj
 0006:00000020       $unwind$CreateFileInterfaceEnv 0000000000149020     Shell:FileHandleWrappers.obj
 0006:00000020       $unwind$AddLineToCommandHistory 0000000000149020     Shell:Shell.obj
 0006:00000020       $unwind$ChangeMappedDrive  0000000000149020     Shell:Shell.obj
 0006:00000020       $unwind$ContainsSplit      0000000000149020     Shell:Shell.obj
 0006:00000020       $unwind$GetOperationType   0000000000149020     Shell:Shell.obj
 0006:00000020       $unwind$ProcessNewSplitCommandLine 0000000000149020     Shell:Shell.obj
 0006:00000020       $unwind$ShellSubstituteAliases 0000000000149020     Shell:Shell.obj
 0006:00000020       $unwind$CleanUpShellParametersProtocol 0000000000149020     Shell:ShellParametersProtocol.obj
 0006:00000020       $unwind$WriteFileTag       0000000000149020     Shell:ShellParametersProtocol.obj
 0006:00000020       $unwind$CleanUpShellEnvironment 0000000000149020     Shell:ShellProtocol.obj
 0006:00000020       $unwind$EfiShellGetCurDir  0000000000149020     Shell:ShellProtocol.obj
 0006:00000020       $unwind$EfiShellGetDevicePathFromMap 0000000000149020     Shell:ShellProtocol.obj
 0006:00000020       $unwind$EfiShellGetMapFromDevicePath 0000000000149020     Shell:ShellProtocol.obj
 0006:00000020       $unwind$InternalShellProtocolIsBlockIoPresent 0000000000149020     Shell:ShellProtocol.obj
 0006:00000020       $unwind$InternalShellProtocolIsSimpleFileSystemPresent 0000000000149020     Shell:ShellProtocol.obj
 0006:00000020       $unwind$ConvertHandleIndexToHandle 0000000000149020     UefiHandleParsingLib:UefiHandleParsingLib.obj
 0006:00000020       $unwind$ConvertHandleToHandleIndex 0000000000149020     UefiHandleParsingLib:UefiHandleParsingLib.obj
 0006:00000020       $unwind$ShellCommandFindDynamicCommand 0000000000149020     UefiShellCommandLib:UefiShellCommandLib.obj
 0006:00000020       $unwind$ShellFileHandleEof 0000000000149020     UefiShellCommandLib:UefiShellCommandLib.obj
 0006:00000020       $unwind$MoveCurrentLine    0000000000149020     UefiShellDebug1CommandsLib:FileBuffer.obj
 0006:00000020       $unwind$MoveLine           0000000000149020     UefiShellDebug1CommandsLib:FileBuffer.obj
 0006:00000020       $unwind$HLineAdvance       0000000000149020     UefiShellDebug1CommandsLib:Misc.obj
 0006:00000020       $unwind$HLineRetreat       0000000000149020     UefiShellDebug1CommandsLib:Misc.obj
 0006:00000020       $unwind$HMoveCurrentLine   0000000000149020     UefiShellDebug1CommandsLib:Misc.obj
 0006:00000020       $unwind$HMoveLine          0000000000149020     UefiShellDebug1CommandsLib:Misc.obj
 0006:00000020       $unwind$ExplainPcieDeviceCap 0000000000149020     UefiShellDebug1CommandsLib:Pci.obj
 0006:00000020       $unwind$ExplainPcieLinkCap 0000000000149020     UefiShellDebug1CommandsLib:Pci.obj
 0006:00000020       $unwind$EditGetDefaultFileName 0000000000149020     UefiShellDebug1CommandsLib:UefiShellDebug1CommandsLib.obj
 0006:00000020       $unwind$ShellConnectDevicePath 0000000000149020     UefiShellDriver1CommandsLib:Connect.obj
 0006:00000020       $unwind$ReturnDriverConfig 0000000000149020     UefiShellDriver1CommandsLib:Drivers.obj
 0006:00000020       $unwind$ReturnDriverDiag   0000000000149020     UefiShellDriver1CommandsLib:Drivers.obj
 0006:00000020       $unwind$PrintNonSfoHeader  0000000000149020     UefiShellLevel2CommandsLib:Ls.obj
 0006:00000020       $unwind$HandleStringWithEscapeCharForParse 0000000000149020     UefiShellLevel2CommandsLib:Parse.obj
 0006:00000020       $unwind$IsDirectoryEmpty   0000000000149020     UefiShellLevel2CommandsLib:Rm.obj
 0006:00000020       $unwind$GetFullyQualifiedPath 0000000000149020     UefiShellLevel2CommandsLib:UefiShellLevel2CommandsLib.obj
 0006:00000020       $unwind$VerifyIntermediateDirectories 0000000000149020     UefiShellLevel2CommandsLib:UefiShellLevel2CommandsLib.obj
 0006:00000020       $unwind$ShellIsDirectory   0000000000149020     UefiShellLib:UefiShellLib.obj
 0006:00000020       $unwind$IfConfigCleanup    0000000000149020     UefiShellNetwork1CommandsLib:Ifconfig.obj
 0006:00000020       $unwind$Ping6DestroyIp6Instance 0000000000149020     UefiShellNetwork1CommandsLib:Ping.obj
 0006:00000020       $unwind$Ping6ReceiveEchoReply 0000000000149020     UefiShellNetwork1CommandsLib:Ping.obj
 0006:00000020       $unwind$PingInitRttTimer   0000000000149020     UefiShellNetwork1CommandsLib:Ping.obj
 0006:00000028       $unwind$InternalEfiShellStartCtrlSMonitor 0000000000149028     Shell:Shell.obj
 0006:00000028       $unwind$InernalEfiShellStartMonitor 0000000000149028     Shell:ShellProtocol.obj
 0006:00000028       $unwind$InternalShellInitHandleList 0000000000149028     UefiHandleParsingLib:UefiHandleParsingLib.obj
 0006:00000028       $unwind$InsertNode         0000000000149028     UefiShellDebug1CommandsLib:Compress.obj
 0006:00000028       $unwind$FileBufferDoBackspace 0000000000149028     UefiShellDebug1CommandsLib:FileBuffer.obj
 0006:00000028       $unwind$FileBufferDoDelete 0000000000149028     UefiShellDebug1CommandsLib:FileBuffer.obj
 0006:00000028       $unwind$FileBufferPageUp   0000000000149028     UefiShellDebug1CommandsLib:FileBuffer.obj
 0006:00000028       $unwind$FileBufferPasteLine 0000000000149028     UefiShellDebug1CommandsLib:FileBuffer.obj
 0006:00000028       $unwind$MainCommandDisplayHelp 0000000000149028     UefiShellDebug1CommandsLib:MainTextEditor.obj
 0006:00000028       $unwind$MainCommandOpenFile 0000000000149028     UefiShellDebug1CommandsLib:MainTextEditor.obj
 0006:00000028       $unwind$MainCommandSaveFile 0000000000149028     UefiShellDebug1CommandsLib:MainTextEditor.obj
 0006:00000028       $unwind$HBufferImagePageDown 0000000000149028     UefiShellDebug1CommandsLib:BufferImage.obj
 0006:00000028       $unwind$HBufferImageScrollDown 0000000000149028     UefiShellDebug1CommandsLib:BufferImage.obj
 0006:00000028       $unwind$HMainCommandDisplayHelp 0000000000149028     UefiShellDebug1CommandsLib:MainHexEditor.obj
 0006:00000028       $unwind$HMainCommandGoToOffset 0000000000149028     UefiShellDebug1CommandsLib:MainHexEditor.obj
 0006:00000028       $unwind$HMainCommandPaste  0000000000149028     UefiShellDebug1CommandsLib:MainHexEditor.obj
 0006:00000028       $unwind$LoadPciRomConnectAllDriversToAllControllers 0000000000149028     UefiShellDebug1CommandsLib:LoadPciRom.obj
 0006:00000028       $unwind$ShellConnectPciRootBridge 0000000000149028     UefiShellDriver1CommandsLib:Connect.obj
 0006:00000028       $unwind$DisconnectAll      0000000000149028     UefiShellDriver1CommandsLib:Disconnect.obj
 0006:00000028       $unwind$ConnectAllEfi      0000000000149028     UefiShellLevel2CommandsLib:Load.obj
 0006:00000028       $unwind$IsStdInDataAvailable 0000000000149028     UefiShellLevel2CommandsLib:Parse.obj
 0006:00000028       $unwind$PrintAllShellEnvVars 0000000000149028     UefiShellLevel2CommandsLib:Set.obj
 0006:00000030       $unwind$DoStartupScript    0000000000149030     Shell:Shell.obj
 0006:00000030       $unwind$UefiMain           0000000000149030     Shell:Shell.obj
 0006:00000030       $unwind$ShellCommandRunDblk 0000000000149030     UefiShellDebug1CommandsLib:Dblk.obj
 0006:00000030       $unwind$InputBarRefresh    0000000000149030     UefiShellDebug1CommandsLib:EditInputBar.obj
 0006:00000030       $unwind$ShellCommandRunEdit 0000000000149030     UefiShellDebug1CommandsLib:Edit.obj
 0006:00000030       $unwind$ShellCommandRunLoadPciRom 0000000000149030     UefiShellDebug1CommandsLib:LoadPciRom.obj
 0006:00000030       $unwind$ShellCommandRunDh  0000000000149030     UefiShellDriver1CommandsLib:Dh.obj
 0006:00000030       $unwind$ShellCommandRunIf  0000000000149030     UefiShellLevel1CommandsLib:If.obj
 0006:00000030       $unwind$ShellCommandRunMkDir 0000000000149030     UefiShellLevel2CommandsLib:MkDir.obj
 0006:00000030       $unwind$ShellCommandRunParse 0000000000149030     UefiShellLevel2CommandsLib:Parse.obj
 0006:00000030       $unwind$ShellCommandRunReset 0000000000149030     UefiShellLevel2CommandsLib:Reset.obj
 0006:00000030       $unwind$ShellCommandRunVol 0000000000149030     UefiShellLevel2CommandsLib:Vol.obj
 0006:00000030       $unwind$ShellCommandRunAlias 0000000000149030     UefiShellLevel3CommandsLib:Alias.obj
 0006:00000038       $unwind$SetBuiltInAlias    0000000000149038     Shell:Shell.obj
 0006:00000038       $unwind$DeleteNode         0000000000149038     UefiShellDebug1CommandsLib:Compress.obj
 0006:00000038       $unwind$SendBlock          0000000000149038     UefiShellDebug1CommandsLib:Compress.obj
 0006:00000038       $unwind$FileBufferEnd      0000000000149038     UefiShellDebug1CommandsLib:FileBuffer.obj
 0006:00000038       $unwind$FileBufferFreeLines 0000000000149038     UefiShellDebug1CommandsLib:FileBuffer.obj
 0006:00000038       $unwind$FileBufferPageDown 0000000000149038     UefiShellDebug1CommandsLib:FileBuffer.obj
 0006:00000038       $unwind$FileBufferRefresh  0000000000149038     UefiShellDebug1CommandsLib:FileBuffer.obj
 0006:00000038       $unwind$FileBufferScrollDown 0000000000149038     UefiShellDebug1CommandsLib:FileBuffer.obj
 0006:00000038       $unwind$FileBufferScrollLeft 0000000000149038     UefiShellDebug1CommandsLib:FileBuffer.obj
 0006:00000038       $unwind$FileBufferScrollRight 0000000000149038     UefiShellDebug1CommandsLib:FileBuffer.obj
 0006:00000038       $unwind$FileBufferScrollUp 0000000000149038     UefiShellDebug1CommandsLib:FileBuffer.obj
 0006:00000038       $unwind$MainCommandSearch  0000000000149038     UefiShellDebug1CommandsLib:MainTextEditor.obj
 0006:00000038       $unwind$MainEditorCleanup  0000000000149038     UefiShellDebug1CommandsLib:MainTextEditor.obj
 0006:00000038       $unwind$MainEditorRefresh  0000000000149038     UefiShellDebug1CommandsLib:MainTextEditor.obj
 0006:00000038       $unwind$HBufferImageDoBackspace 0000000000149038     UefiShellDebug1CommandsLib:BufferImage.obj
 0006:00000038       $unwind$HBufferImageDoDelete 0000000000149038     UefiShellDebug1CommandsLib:BufferImage.obj
 0006:00000038       $unwind$HBufferImageEnd    0000000000149038     UefiShellDebug1CommandsLib:BufferImage.obj
 0006:00000038       $unwind$HBufferImageGetTotalSize 0000000000149038     UefiShellDebug1CommandsLib:BufferImage.obj
 0006:00000038       $unwind$HBufferImageHome   0000000000149038     UefiShellDebug1CommandsLib:BufferImage.obj
 0006:00000038       $unwind$HBufferImagePageUp 0000000000149038     UefiShellDebug1CommandsLib:BufferImage.obj
 0006:00000038       $unwind$HBufferImageScrollLeft 0000000000149038     UefiShellDebug1CommandsLib:BufferImage.obj
 0006:00000038       $unwind$HBufferImageScrollRight 0000000000149038     UefiShellDebug1CommandsLib:BufferImage.obj
 0006:00000038       $unwind$HBufferImageScrollUp 0000000000149038     UefiShellDebug1CommandsLib:BufferImage.obj
 0006:00000038       $unwind$HMainCommandCut    0000000000149038     UefiShellDebug1CommandsLib:MainHexEditor.obj
 0006:00000038       $unwind$HMainEditorCleanup 0000000000149038     UefiShellDebug1CommandsLib:MainHexEditor.obj
 0006:00000038       $unwind$LibSmbios64BitInit 0000000000149038     UefiShellDebug1CommandsLib:LibSmbiosView.obj
 0006:00000038       $unwind$LibSmbiosInit      0000000000149038     UefiShellDebug1CommandsLib:LibSmbiosView.obj
 0006:00000038       $unwind$PrintAllShellAlias 0000000000149038     UefiShellLevel3CommandsLib:Alias.obj
 0006:00000040       $unwind$DevicePathCompare  0000000000149040     UefiSortLib:UefiSortLib.obj
 0006:00000040       $unwind$CompareGuid        0000000000149040     BaseMemoryLib:MemLibGuid.obj
 0006:00000040       $unwind$ConvertFromTextUsbClass 0000000000149040     UefiDevicePathLib:DevicePathFromText.obj
 0006:00000040       $unwind$UefiDevicePathLibAppendDevicePath 0000000000149040     UefiDevicePathLib:DevicePathUtilities.obj
 0006:00000040       $unwind$UefiDevicePathLibAppendDevicePathNode 0000000000149040     UefiDevicePathLib:DevicePathUtilities.obj
 0006:00000040       $unwind$AppendStringToHistory 0000000000149040     Shell:ConsoleLogger.obj
 0006:00000040       $unwind$CreateSimpleTextInOnFile 0000000000149040     Shell:ConsoleWrappers.obj
 0006:00000040       $unwind$GetDevicePathsForImageAndFile 0000000000149040     Shell:Shell.obj
 0006:00000040       $unwind$CreatePopulateInstallShellParametersProtocol 0000000000149040     Shell:ShellParametersProtocol.obj
 0006:00000040       $unwind$EfiShellOpenRootByHandle 0000000000149040     Shell:ShellProtocol.obj
 0006:00000040       $unwind$GetAllMappingGuids 0000000000149040     UefiHandleParsingLib:UefiHandleParsingLib.obj
 0006:00000040       $unwind$GetStringNameFromHandle 0000000000149040     UefiHandleParsingLib:UefiHandleParsingLib.obj
 0006:00000040       $unwind$GetDevicePathForDriverHandle 0000000000149040     UefiShellBcfgCommandLib:UefiShellBcfgCommandLib.obj
 0006:00000040       $unwind$ShellCommandLibDestructor 0000000000149040     UefiShellCommandLib:UefiShellCommandLib.obj
 0006:00000040       $unwind$InputBarPrintInput 0000000000149040     UefiShellDebug1CommandsLib:EditInputBar.obj
 0006:00000040       $unwind$FileBufferMovePosition 0000000000149040     UefiShellDebug1CommandsLib:FileBuffer.obj
 0006:00000040       $unwind$HBufferImageBufferToList 0000000000149040     UefiShellDebug1CommandsLib:BufferImage.obj
 0006:00000040       $unwind$HBufferImageListToBuffer 0000000000149040     UefiShellDebug1CommandsLib:BufferImage.obj
 0006:00000040       $unwind$PrintInterpretedExtendedCompatibilityAcs 0000000000149040     UefiShellDebug1CommandsLib:Pci.obj
 0006:00000040       $unwind$PrintInterpretedExtendedCompatibilityAri 0000000000149040     UefiShellDebug1CommandsLib:Pci.obj
 0006:00000040       $unwind$PrintInterpretedExtendedCompatibilityLatencyToleranceReporting 0000000000149040     UefiShellDebug1CommandsLib:Pci.obj
 0006:00000040       $unwind$PrintInterpretedExtendedCompatibilityLinkControl 0000000000149040     UefiShellDebug1CommandsLib:Pci.obj
 0006:00000040       $unwind$PrintInterpretedExtendedCompatibilityLinkDeclaration 0000000000149040     UefiShellDebug1CommandsLib:Pci.obj
 0006:00000040       $unwind$PrintInterpretedExtendedCompatibilityPowerBudgeting 0000000000149040     UefiShellDebug1CommandsLib:Pci.obj
 0006:00000040       $unwind$PrintInterpretedExtendedCompatibilityResizeableBar 0000000000149040     UefiShellDebug1CommandsLib:Pci.obj
 0006:00000040       $unwind$PrintInterpretedExtendedCompatibilityTph 0000000000149040     UefiShellDebug1CommandsLib:Pci.obj
 0006:00000040       $unwind$GetDriverImageName 0000000000149040     UefiShellDriver1CommandsLib:Dh.obj
 0006:00000040       $unwind$ShellCommandRunShift 0000000000149040     UefiShellLevel1CommandsLib:Shift.obj
 0006:00000040       $unwind$ReplaceDriveWithCwd 0000000000149040     UefiShellLevel2CommandsLib:Cd.obj
 0006:00000040       $unwind$AddMappingFromMapping 0000000000149040     UefiShellLevel2CommandsLib:Map.obj
 0006:00000040       $unwind$PerformSingleMappingDelete 0000000000149040     UefiShellLevel2CommandsLib:Map.obj
 0006:00000040       $unwind$ShellLevel2CommandsLibConstructor 0000000000149040     UefiShellLevel2CommandsLib:UefiShellLevel2CommandsLib.obj
 0006:00000040       $unwind$ShellFileHandleReturnLine 0000000000149040     UefiShellLib:UefiShellLib.obj
 0006:00000040       $unwind$ShellFindFilePathEx 0000000000149040     UefiShellLib:UefiShellLib.obj
 0006:00000048       $unwind$ProcessCommandLine 0000000000149048     Shell:Shell.obj
 0006:00000048       $unwind$InternalEfiShellGetListAlias 0000000000149048     Shell:ShellProtocol.obj
 0006:00000048       $unwind$CommandInit        0000000000149048     UefiShellCommandLib:UefiShellCommandLib.obj
 0006:00000048       $unwind$FileBufferRestoreMousePosition 0000000000149048     UefiShellDebug1CommandsLib:FileBuffer.obj
 0006:00000048       $unwind$MainCommandSearchReplace 0000000000149048     UefiShellDebug1CommandsLib:MainTextEditor.obj
 0006:00000048       $unwind$HBufferImageRestoreMousePosition 0000000000149048     UefiShellDebug1CommandsLib:BufferImage.obj
 0006:00000048       $unwind$InitSmbios64BitTableStatistics 0000000000149048     UefiShellDebug1CommandsLib:SmbiosView.obj
 0006:00000050       $unwind$BmValidateOption   0000000000149050     UefiBootManagerLib:BmLoadOption.obj
 0006:00000050       $unwind$IsNodeInList       0000000000149050     BaseLib:LinkedList.obj
 0006:00000050       $unwind$OrderedCollectionFind 0000000000149050     BaseOrderedCollectionRedBlackTreeLib:BaseOrderedCollectionRedBlackTreeLib.obj
 0006:00000050       $unwind$GetParamByNodeName 0000000000149050     UefiDevicePathLib:DevicePathFromText.obj
 0006:00000050       $unwind$FileDevicePath     0000000000149050     UefiDevicePathLib:DevicePathUtilities.obj
 0006:00000050       $unwind$IsDevicePathValid  0000000000149050     UefiDevicePathLib:DevicePathUtilities.obj
 0006:00000050       $unwind$UefiDevicePathLibGetNextDevicePathInstance 0000000000149050     UefiDevicePathLib:DevicePathUtilities.obj
 0006:00000050       $unwind$NetLibGetSnpHandle 0000000000149050     DxeNetLib:DxeNetLib.obj
 0006:00000050       $unwind$ConsoleLoggerPrintWithPageBreak 0000000000149050     Shell:ConsoleLogger.obj
 0006:00000050       $unwind$ConsoleLoggerSetAttribute 0000000000149050     Shell:ConsoleLogger.obj
 0006:00000050       $unwind$ConsoleLoggerSetMode 0000000000149050     Shell:ConsoleLogger.obj
 0006:00000050       $unwind$LocateStartupScript 0000000000149050     Shell:Shell.obj
 0006:00000050       $unwind$AppendCSDNum2      0000000000149050     UefiShellCommandLib:ConsistMapping.obj
 0006:00000050       $unwind$AppendCSDStr       0000000000149050     UefiShellCommandLib:ConsistMapping.obj
 0006:00000050       $unwind$GetDeviceConsistMappingInfo 0000000000149050     UefiShellCommandLib:ConsistMapping.obj
 0006:00000050       $unwind$ShellCommandRegisterAlias 0000000000149050     UefiShellCommandLib:UefiShellCommandLib.obj
 0006:00000050       $unwind$HBufferImageIsInSelectedArea 0000000000149050     UefiShellDebug1CommandsLib:BufferImage.obj
 0006:00000050       $unwind$HMemImageSave      0000000000149050     UefiShellDebug1CommandsLib:MemImage.obj
 0006:00000050       $unwind$HFreeLines         0000000000149050     UefiShellDebug1CommandsLib:Misc.obj
 0006:00000050       $unwind$PrintInterpretedExtendedCompatibilityECEA 0000000000149050     UefiShellDebug1CommandsLib:Pci.obj
 0006:00000050       $unwind$PrintInterpretedExtendedCompatibilitySerialNumber 0000000000149050     UefiShellDebug1CommandsLib:Pci.obj
 0006:00000050       $unwind$PrintInterpretedExtendedCompatibilityVendorSpecific 0000000000149050     UefiShellDebug1CommandsLib:Pci.obj
 0006:00000050       $unwind$UefiShellDebug1CommandsLibConstructor 0000000000149050     UefiShellDebug1CommandsLib:UefiShellDebug1CommandsLib.obj
 0006:00000050       $unwind$ConvertStrToGuid   0000000000149050     UefiShellDriver1CommandsLib:Dh.obj
 0006:00000050       $unwind$UefiShellDriver1CommandsLibConstructor 0000000000149050     UefiShellDriver1CommandsLib:UefiShellDriver1CommandsLib.obj
 0006:00000050       $unwind$IsSoucePathValid   0000000000149050     UefiShellLevel2CommandsLib:Mv.obj
 0006:00000050       $unwind$CopyListOfCommandNamesWithDynamic 0000000000149050     UefiShellLevel3CommandsLib:Help.obj
 0006:00000050       $unwind$ShellLevel3CommandsLibConstructor 0000000000149050     UefiShellLevel3CommandsLib:UefiShellLevel3CommandsLib.obj
 0006:00000050       $unwind$InternalShellConvertFileListType 0000000000149050     UefiShellLib:UefiShellLib.obj
 0006:00000050       $unwind$ShellLibConstructorWorker 0000000000149050     UefiShellLib:UefiShellLib.obj
 0006:00000050       $unwind$SplitStrToList     0000000000149050     UefiShellNetwork1CommandsLib:Ifconfig.obj
 0006:00000050       $unwind$Ping6MatchEchoReply 0000000000149050     UefiShellNetwork1CommandsLib:Ping.obj
 0006:00000050       $unwind$ShellNetwork1CommandsLibConstructor 0000000000149050     UefiShellNetwork1CommandsLib:UefiShellNetwork1CommandsLib.obj
 0006:00000058       $unwind$DoShellPrompt      0000000000149058     Shell:Shell.obj
 0006:00000058       $unwind$ShellCommandCreateInitialMappingsAndPaths 0000000000149058     UefiShellCommandLib:UefiShellCommandLib.obj
 0006:00000058       $unwind$HBufferImageRefresh 0000000000149058     UefiShellDebug1CommandsLib:BufferImage.obj
 0006:00000058       $unwind$HMainEditorRefresh 0000000000149058     UefiShellDebug1CommandsLib:MainHexEditor.obj
 0006:00000060       $unwind$HiiRemovePackages  0000000000149060     UefiHiiLib:HiiLib.obj
 0006:00000060       $unwind$MmioRead16         0000000000149060     BaseIoLibIntrinsic:IoLib.obj
 0006:00000060       $unwind$MmioRead32         0000000000149060     BaseIoLibIntrinsic:IoLib.obj
 0006:00000060       $unwind$MmioRead64         0000000000149060     BaseIoLibIntrinsic:IoLib.obj
 0006:00000060       $unwind$MmioRead8          0000000000149060     BaseIoLibIntrinsic:IoLib.obj
 0006:00000060       $unwind$IoRead16           0000000000149060     BaseIoLibIntrinsic:IoLibMsc.obj
 0006:00000060       $unwind$IoRead32           0000000000149060     BaseIoLibIntrinsic:IoLibMsc.obj
 0006:00000060       $unwind$IoRead8            0000000000149060     BaseIoLibIntrinsic:IoLibMsc.obj
 0006:00000060       $unwind$IsListEmpty        0000000000149060     BaseLib:LinkedList.obj
 0006:00000060       $unwind$InternalMathSwapBytes64 0000000000149060     BaseLib:Math64.obj
 0006:00000060       $unwind$AsciiStrLen        0000000000149060     BaseLib:String.obj
 0006:00000060       $unwind$InternalIsHexaDecimalDigitCharacter 0000000000149060     BaseLib:String.obj
 0006:00000060       $unwind$StrDecimalToUint64 0000000000149060     BaseLib:String.obj
 0006:00000060       $unwind$StrDecimalToUintn  0000000000149060     BaseLib:String.obj
 0006:00000060       $unwind$StrHexToUint64     0000000000149060     BaseLib:String.obj
 0006:00000060       $unwind$StrHexToUintn      0000000000149060     BaseLib:String.obj
 0006:00000060       $unwind$StrLen             0000000000149060     BaseLib:String.obj
 0006:00000060       $unwind$RedBlackTreeRecursiveCheck 0000000000149060     BaseOrderedCollectionRedBlackTreeLib:BaseOrderedCollectionRedBlackTreeLib.obj
 0006:00000060       $unwind$DevPathFromText1394 0000000000149060     UefiDevicePathLib:DevicePathFromText.obj
 0006:00000060       $unwind$DevPathFromTextBluetooth 0000000000149060     UefiDevicePathLib:DevicePathFromText.obj
 0006:00000060       $unwind$DevPathFromTextCtrl 0000000000149060     UefiDevicePathLib:DevicePathFromText.obj
 0006:00000060       $unwind$DevPathFromTextDebugPort 0000000000149060     UefiDevicePathLib:DevicePathFromText.obj
 0006:00000060       $unwind$DevPathFromTextEmmc 0000000000149060     UefiDevicePathLib:DevicePathFromText.obj
 0006:00000060       $unwind$DevPathFromTextFilePath 0000000000149060     UefiDevicePathLib:DevicePathFromText.obj
 0006:00000060       $unwind$DevPathFromTextFv  0000000000149060     UefiDevicePathLib:DevicePathFromText.obj
 0006:00000060       $unwind$DevPathFromTextFvFile 0000000000149060     UefiDevicePathLib:DevicePathFromText.obj
 0006:00000060       $unwind$DevPathFromTextI2O 0000000000149060     UefiDevicePathLib:DevicePathFromText.obj
 0006:00000060       $unwind$DevPathFromTextMedia 0000000000149060     UefiDevicePathLib:DevicePathFromText.obj
 0006:00000060       $unwind$DevPathFromTextPath 0000000000149060     UefiDevicePathLib:DevicePathFromText.obj
 0006:00000060       $unwind$DevPathFromTextPcCard 0000000000149060     UefiDevicePathLib:DevicePathFromText.obj
 0006:00000060       $unwind$DevPathFromTextSd  0000000000149060     UefiDevicePathLib:DevicePathFromText.obj
 0006:00000060       $unwind$DevPathFromTextUartFlowCtrl 0000000000149060     UefiDevicePathLib:DevicePathFromText.obj
 0006:00000060       $unwind$DevPathFromTextUnit 0000000000149060     UefiDevicePathLib:DevicePathFromText.obj
 0006:00000060       $unwind$DevPathFromTextUsbAudio 0000000000149060     UefiDevicePathLib:DevicePathFromText.obj
 0006:00000060       $unwind$DevPathFromTextUsbCDCControl 0000000000149060     UefiDevicePathLib:DevicePathFromText.obj
 0006:00000060       $unwind$DevPathFromTextUsbCDCData 0000000000149060     UefiDevicePathLib:DevicePathFromText.obj
 0006:00000060       $unwind$DevPathFromTextUsbClass 0000000000149060     UefiDevicePathLib:DevicePathFromText.obj
 0006:00000060       $unwind$DevPathFromTextUsbDeviceFirmwareUpdate 0000000000149060     UefiDevicePathLib:DevicePathFromText.obj
 0006:00000060       $unwind$DevPathFromTextUsbDiagnostic 0000000000149060     UefiDevicePathLib:DevicePathFromText.obj
 0006:00000060       $unwind$DevPathFromTextUsbHID 0000000000149060     UefiDevicePathLib:DevicePathFromText.obj
 0006:00000060       $unwind$DevPathFromTextUsbHub 0000000000149060     UefiDevicePathLib:DevicePathFromText.obj
 0006:00000060       $unwind$DevPathFromTextUsbImage 0000000000149060     UefiDevicePathLib:DevicePathFromText.obj
 0006:00000060       $unwind$DevPathFromTextUsbIrdaBridge 0000000000149060     UefiDevicePathLib:DevicePathFromText.obj
 0006:00000060       $unwind$DevPathFromTextUsbMassStorage 0000000000149060     UefiDevicePathLib:DevicePathFromText.obj
 0006:00000060       $unwind$DevPathFromTextUsbPrinter 0000000000149060     UefiDevicePathLib:DevicePathFromText.obj
 0006:00000060       $unwind$DevPathFromTextUsbSmartCard 0000000000149060     UefiDevicePathLib:DevicePathFromText.obj
 0006:00000060       $unwind$DevPathFromTextUsbTestAndMeasurement 0000000000149060     UefiDevicePathLib:DevicePathFromText.obj
 0006:00000060       $unwind$DevPathFromTextUsbVideo 0000000000149060     UefiDevicePathLib:DevicePathFromText.obj
 0006:00000060       $unwind$DevPathFromTextUsbWireless 0000000000149060     UefiDevicePathLib:DevicePathFromText.obj
 0006:00000060       $unwind$DevPathFromTextVenPcAnsi 0000000000149060     UefiDevicePathLib:DevicePathFromText.obj
 0006:00000060       $unwind$DevPathFromTextVenUtf8 0000000000149060     UefiDevicePathLib:DevicePathFromText.obj
 0006:00000060       $unwind$DevPathFromTextVenVt100 0000000000149060     UefiDevicePathLib:DevicePathFromText.obj
 0006:00000060       $unwind$DevPathFromTextVenVt100Plus 0000000000149060     UefiDevicePathLib:DevicePathFromText.obj
 0006:00000060       $unwind$DevPathFromTextVlan 0000000000149060     UefiDevicePathLib:DevicePathFromText.obj
 0006:00000060       $unwind$EisaIdFromText     0000000000149060     UefiDevicePathLib:DevicePathFromText.obj
 0006:00000060       $unwind$IsDevicePathEnd    0000000000149060     UefiDevicePathLib:DevicePathUtilities.obj
 0006:00000060       $unwind$IsDevicePathEndType 0000000000149060     UefiDevicePathLib:DevicePathUtilities.obj
 0006:00000060       $unwind$UefiDevicePathLibDuplicateDevicePath 0000000000149060     UefiDevicePathLib:DevicePathUtilities.obj
 0006:00000060       $unwind$UefiDevicePathLibGetDevicePathSize 0000000000149060     UefiDevicePathLib:DevicePathUtilities.obj
 0006:00000060       $unwind$DevicePathFromHandle 0000000000149060     UefiDevicePathLib:DevicePathUtilitiesDxeSmm.obj
 0006:00000060       $unwind$FileHandleClose    0000000000149060     UefiFileHandleLib:UefiFileHandleLib.obj
 0006:00000060       $unwind$FileHandleDelete   0000000000149060     UefiFileHandleLib:UefiFileHandleLib.obj
 0006:00000060       $unwind$FileHandleIsDirectory 0000000000149060     UefiFileHandleLib:UefiFileHandleLib.obj
 0006:00000060       $unwind$FreePool           0000000000149060     UefiMemoryAllocationLib:MemoryAllocationLib.obj
 0006:00000060       $unwind$NetIp6IsLinkLocalAddr 0000000000149060     DxeNetLib:DxeNetLib.obj
 0006:00000060       $unwind$NetIp6IsUnspecifiedAddr 0000000000149060     DxeNetLib:DxeNetLib.obj
 0006:00000060       $unwind$ConsoleLoggerResetBuffers 0000000000149060     Shell:ConsoleLogger.obj
 0006:00000060       $unwind$ConsoleLoggerUninstall 0000000000149060     Shell:ConsoleLogger.obj
 0006:00000060       $unwind$CloseSimpleTextInOnFile 0000000000149060     Shell:ConsoleWrappers.obj
 0006:00000060       $unwind$CloseSimpleTextOutOnFile 0000000000149060     Shell:ConsoleWrappers.obj
 0006:00000060       $unwind$FileInterfaceEnvDelete 0000000000149060     Shell:FileHandleWrappers.obj
 0006:00000060       $unwind$FileInterfaceFileClose 0000000000149060     Shell:FileHandleWrappers.obj
 0006:00000060       $unwind$FileInterfaceFileDelete 0000000000149060     Shell:FileHandleWrappers.obj
 0006:00000060       $unwind$AddBufferToFreeList 0000000000149060     Shell:Shell.obj
 0006:00000060       $unwind$ProcessCommandLineToFinal 0000000000149060     Shell:Shell.obj
 0006:00000060       $unwind$ShellConvertAlias  0000000000149060     Shell:Shell.obj
 0006:00000060       $unwind$ShellSubstituteVariables 0000000000149060     Shell:Shell.obj
 0006:00000060       $unwind$VerifySplit        0000000000149060     Shell:Shell.obj
 0006:00000060       $unwind$FreeEnvironmentVariableList 0000000000149060     Shell:ShellEnvVar.obj
 0006:00000060       $unwind$ShellRemvoeEnvVarFromList 0000000000149060     Shell:ShellEnvVar.obj
 0006:00000060       $unwind$GetManFileName     0000000000149060     Shell:ShellManParser.obj
 0006:00000060       $unwind$CalculateEfiHdrCrc 0000000000149060     Shell:ShellParametersProtocol.obj
 0006:00000060       $unwind$FindEndOfParameter 0000000000149060     Shell:ShellParametersProtocol.obj
 0006:00000060       $unwind$FixFileName        0000000000149060     Shell:ShellParametersProtocol.obj
 0006:00000060       $unwind$FixVarName         0000000000149060     Shell:ShellParametersProtocol.obj
 0006:00000060       $unwind$CleanUpShellProtocol 0000000000149060     Shell:ShellProtocol.obj
 0006:00000060       $unwind$EfiShellDeleteFileByName 0000000000149060     Shell:ShellProtocol.obj
 0006:00000060       $unwind$EfiShellFreeFileList 0000000000149060     Shell:ShellProtocol.obj
 0006:00000060       $unwind$InternalShellGetNodeFromGuid 0000000000149060     UefiHandleParsingLib:UefiHandleParsingLib.obj
 0006:00000060       $unwind$IsHIDevicePathNode 0000000000149060     UefiShellCommandLib:ConsistMapping.obj
 0006:00000060       $unwind$ShellCommandConsistMappingUnInitialize 0000000000149060     UefiShellCommandLib:ConsistMapping.obj
 0006:00000060       $unwind$ShellCommandFindMapItem 0000000000149060     UefiShellCommandLib:ConsistMapping.obj
 0006:00000060       $unwind$DeleteScriptFileStruct 0000000000149060     UefiShellCommandLib:UefiShellCommandLib.obj
 0006:00000060       $unwind$FreeBufferList     0000000000149060     UefiShellCommandLib:UefiShellCommandLib.obj
 0006:00000060       $unwind$FreeFileHandleList 0000000000149060     UefiShellCommandLib:UefiShellCommandLib.obj
 0006:00000060       $unwind$ShellCommandDynamicCommandExists 0000000000149060     UefiShellCommandLib:UefiShellCommandLib.obj
 0006:00000060       $unwind$ShellCommandGetCommandHelp 0000000000149060     UefiShellCommandLib:UefiShellCommandLib.obj
 0006:00000060       $unwind$ShellCommandGetDynamicCommandHelp 0000000000149060     UefiShellCommandLib:UefiShellCommandLib.obj
 0006:00000060       $unwind$ShellCommandGetInternalCommandHelp 0000000000149060     UefiShellCommandLib:UefiShellCommandLib.obj
 0006:00000060       $unwind$ShellCommandGetManFileNameHandler 0000000000149060     UefiShellCommandLib:UefiShellCommandLib.obj
 0006:00000060       $unwind$ShellCommandIsCommandOnInternalList 0000000000149060     UefiShellCommandLib:UefiShellCommandLib.obj
 0006:00000060       $unwind$ShellCommandIsOnAliasList 0000000000149060     UefiShellCommandLib:UefiShellCommandLib.obj
 0006:00000060       $unwind$ShellCommandSetNewScript 0000000000149060     UefiShellCommandLib:UefiShellCommandLib.obj
 0006:00000060       $unwind$ShellFileHandleGetPath 0000000000149060     UefiShellCommandLib:UefiShellCommandLib.obj
 0006:00000060       $unwind$ShellFileHandleRemove 0000000000149060     UefiShellCommandLib:UefiShellCommandLib.obj
 0006:00000060       $unwind$Split              0000000000149060     UefiShellDebug1CommandsLib:Compress.obj
 0006:00000060       $unwind$MenuBarDispatchControlHotKey 0000000000149060     UefiShellDebug1CommandsLib:EditMenuBar.obj
 0006:00000060       $unwind$MenuBarDispatchFunctionKey 0000000000149060     UefiShellDebug1CommandsLib:EditMenuBar.obj
 0006:00000060       $unwind$MenuBarInit        0000000000149060     UefiShellDebug1CommandsLib:EditMenuBar.obj
 0006:00000060       $unwind$FileBufferAddChar  0000000000149060     UefiShellDebug1CommandsLib:FileBuffer.obj
 0006:00000060       $unwind$FileBufferDoCharInput 0000000000149060     UefiShellDebug1CommandsLib:FileBuffer.obj
 0006:00000060       $unwind$FileBufferHandleInput 0000000000149060     UefiShellDebug1CommandsLib:FileBuffer.obj
 0006:00000060       $unwind$LineDup            0000000000149060     UefiShellDebug1CommandsLib:Misc.obj
 0006:00000060       $unwind$HBufferImageDoCharInput 0000000000149060     UefiShellDebug1CommandsLib:BufferImage.obj
 0006:00000060       $unwind$HBufferImageHandleInput 0000000000149060     UefiShellDebug1CommandsLib:BufferImage.obj
 0006:00000060       $unwind$ExplainPcieCapReg  0000000000149060     UefiShellDebug1CommandsLib:Pci.obj
 0006:00000060       $unwind$ExplainPcieDeviceControl 0000000000149060     UefiShellDebug1CommandsLib:Pci.obj
 0006:00000060       $unwind$ExplainPcieLinkControl 0000000000149060     UefiShellDebug1CommandsLib:Pci.obj
 0006:00000060       $unwind$ExplainPcieLinkStatus 0000000000149060     UefiShellDebug1CommandsLib:Pci.obj
 0006:00000060       $unwind$IsStringOfHexNibbles 0000000000149060     UefiShellDebug1CommandsLib:SetVar.obj
 0006:00000060       $unwind$IsValidFileName    0000000000149060     UefiShellDebug1CommandsLib:UefiShellDebug1CommandsLib.obj
 0006:00000060       $unwind$DumpLoadedImageProtocolInfo 0000000000149060     UefiShellDriver1CommandsLib:Unload.obj
 0006:00000060       $unwind$ReturnUintn        0000000000149060     UefiShellLevel1CommandsLib:For.obj
 0006:00000060       $unwind$IsValidProfile     0000000000149060     UefiShellLevel1CommandsLib:If.obj
 0006:00000060       $unwind$GetDeviceMediaType 0000000000149060     UefiShellLevel2CommandsLib:Map.obj
 0006:00000060       $unwind$IsRemoveableDevice 0000000000149060     UefiShellLevel2CommandsLib:Map.obj
 0006:00000060       $unwind$InternalPrintTo    0000000000149060     UefiShellLib:UefiShellLib.obj
 0006:00000060       $unwind$ShellCloseFileMetaArg 0000000000149060     UefiShellLib:UefiShellLib.obj
 0006:00000060       $unwind$ShellCommandLineFreeVarList 0000000000149060     UefiShellLib:UefiShellLib.obj
 0006:00000060       $unwind$ShellCommandLineGetCount 0000000000149060     UefiShellLib:UefiShellLib.obj
 0006:00000060       $unwind$ShellDeleteFileByName 0000000000149060     UefiShellLib:UefiShellLib.obj
 0006:00000060       $unwind$ShellFileExists    0000000000149060     UefiShellLib:UefiShellLib.obj
 0006:00000060       $unwind$ShellIsFile        0000000000149060     UefiShellLib:UefiShellLib.obj
 0006:00000060       $unwind$ShellIsFileInPath  0000000000149060     UefiShellLib:UefiShellLib.obj
 0006:00000060       $unwind$ShellStrToUintn    0000000000149060     UefiShellLib:UefiShellLib.obj
 0006:00000060       $unwind$FreeArgList        0000000000149060     UefiShellNetwork1CommandsLib:Ifconfig.obj
 0006:00000060       $unwind$IfConfig           0000000000149060     UefiShellNetwork1CommandsLib:Ifconfig.obj
 0006:00000060       $unwind$PingNetIp4IsUnspecifiedAddr 0000000000149060     UefiShellNetwork1CommandsLib:Ping.obj
 0006:00000060       $unwind$PingSendEchoRequest 0000000000149060     UefiShellNetwork1CommandsLib:Ping.obj
 0006:00000068       $unwind$DevPathFromTextAcpiExp 0000000000149068     UefiDevicePathLib:DevicePathFromText.obj
 0006:00000068       $unwind$DevPathFromTextBBS 0000000000149068     UefiDevicePathLib:DevicePathFromText.obj
 0006:00000068       $unwind$DevPathFromTextDns 0000000000149068     UefiDevicePathLib:DevicePathFromText.obj
 0006:00000068       $unwind$DevPathFromTextInfiniband 0000000000149068     UefiDevicePathLib:DevicePathFromText.obj
 0006:00000068       $unwind$DevPathFromTextNVMe 0000000000149068     UefiDevicePathLib:DevicePathFromText.obj
 0006:00000068       $unwind$DevPathFromTextPersistentVirtualCd 0000000000149068     UefiDevicePathLib:DevicePathFromText.obj
 0006:00000068       $unwind$DevPathFromTextPersistentVirtualDisk 0000000000149068     UefiDevicePathLib:DevicePathFromText.obj
 0006:00000068       $unwind$DevPathFromTextUsbWwid 0000000000149068     UefiDevicePathLib:DevicePathFromText.obj
 0006:00000068       $unwind$DevPathFromTextVirtualCd 0000000000149068     UefiDevicePathLib:DevicePathFromText.obj
 0006:00000068       $unwind$DevPathFromTextVirtualDisk 0000000000149068     UefiDevicePathLib:DevicePathFromText.obj
 0006:00000068       $unwind$UefiDevicePathLibConvertTextToDeviceNode 0000000000149068     UefiDevicePathLib:DevicePathFromText.obj
 0006:00000068       $unwind$IsValidSplit       0000000000149068     Shell:Shell.obj
 0006:00000068       $unwind$StripUnreplacedEnvironmentVariables 0000000000149068     Shell:Shell.obj
 0006:00000068       $unwind$IsUnicodeFile      0000000000149068     Shell:ShellParametersProtocol.obj
 0006:00000068       $unwind$EfiShellRemoveDupInFileList 0000000000149068     Shell:ShellProtocol.obj
 0006:00000068       $unwind$GetHandleListByProtocol 0000000000149068     UefiHandleParsingLib:UefiHandleParsingLib.obj
 0006:00000068       $unwind$FileBufferCutLine  0000000000149068     UefiShellDebug1CommandsLib:FileBuffer.obj
 0006:00000068       $unwind$HBufferImageAddChar 0000000000149068     UefiShellDebug1CommandsLib:BufferImage.obj
 0006:00000068       $unwind$ReturnDriverVersion 0000000000149068     UefiShellDriver1CommandsLib:Drivers.obj
 0006:00000068       $unwind$MoveToTagSpecial   0000000000149068     UefiShellLevel1CommandsLib:If.obj
 0006:00000068       $unwind$TouchFileByHandle  0000000000149068     UefiShellLevel3CommandsLib:Touch.obj
 0006:00000068       $unwind$ShellFindSE2       0000000000149068     UefiShellLib:UefiShellLib.obj
 0006:00000070       $unwind$ShellConvertVariables 0000000000149070     Shell:Shell.obj
 0006:00000070       $unwind$GetEnvironmentVariableList 0000000000149070     Shell:ShellEnvVar.obj
 0006:00000070       $unwind$GetExecuatableFileName 0000000000149070     Shell:ShellManParser.obj
 0006:00000070       $unwind$GetImageNameFromHandle 0000000000149070     UefiShellDriver1CommandsLib:Drivers.obj
 0006:00000070       $unwind$PrintSfoVolumeInfoTableEntry 0000000000149070     UefiShellLevel2CommandsLib:Ls.obj
 0006:00000078       $unwind$StrCatS            0000000000149078     BaseLib:SafeString.obj
 0006:00000078       $unwind$OrderedCollectionInsert 0000000000149078     BaseOrderedCollectionRedBlackTreeLib:BaseOrderedCollectionRedBlackTreeLib.obj
 0006:00000078       $unwind$RunSplitCommand    0000000000149078     Shell:Shell.obj
 0006:00000078       $unwind$GetBestLanguageForDriver 0000000000149078     UefiHandleParsingLib:UefiHandleParsingLib.obj
 0006:00000078       $unwind$DevPathSerialVendor 0000000000149078     UefiShellCommandLib:ConsistMapping.obj
 0006:00000078       $unwind$HMemImageRead      0000000000149078     UefiShellDebug1CommandsLib:MemImage.obj
 0006:00000078       $unwind$PciExplainPci      0000000000149078     UefiShellDebug1CommandsLib:Pci.obj
 0006:00000078       $unwind$MoveWithinFileSystems 0000000000149078     UefiShellLevel2CommandsLib:Mv.obj
 0006:00000078       $unwind$StrniCmp           0000000000149078     UefiShellLevel2CommandsLib:UefiShellLevel2CommandsLib.obj
 0006:00000078       $unwind$PrintDynamicCommandHelp 0000000000149078     UefiShellLevel3CommandsLib:Help.obj
 0006:00000080       $unwind$RedBlackTreeValidate 0000000000149080     BaseOrderedCollectionRedBlackTreeLib:BaseOrderedCollectionRedBlackTreeLib.obj
 0006:00000080       $unwind$DevPathFromTextHD  0000000000149080     UefiDevicePathLib:DevicePathFromText.obj
 0006:00000080       $unwind$DevPathFromTextIPv4 0000000000149080     UefiDevicePathLib:DevicePathFromText.obj
 0006:00000080       $unwind$DevPathFromTextIPv6 0000000000149080     UefiDevicePathLib:DevicePathFromText.obj
 0006:00000080       $unwind$DevPathFromTextRamDisk 0000000000149080     UefiDevicePathLib:DevicePathFromText.obj
 0006:00000080       $unwind$DevPathFromTextUart 0000000000149080     UefiDevicePathLib:DevicePathFromText.obj
 0006:00000080       $unwind$DevPathFromTextWiFi 0000000000149080     UefiDevicePathLib:DevicePathFromText.obj
 0006:00000080       $unwind$UefiDevicePathLibConvertTextToDevicePath 0000000000149080     UefiDevicePathLib:DevicePathFromText.obj
 0006:00000080       $unwind$ConsoleLoggerClearScreen 0000000000149080     Shell:ConsoleLogger.obj
 0006:00000080       $unwind$FileInterfaceEnvClose 0000000000149080     Shell:FileHandleWrappers.obj
 0006:00000080       $unwind$DoHelpUpdate       0000000000149080     Shell:Shell.obj
 0006:00000080       $unwind$SetEnvironmentVariables 0000000000149080     Shell:ShellEnvVar.obj
 0006:00000080       $unwind$CreatePopulateInstallShellProtocol 0000000000149080     Shell:ShellProtocol.obj
 0006:00000080       $unwind$MainEditorHandleMouseInput 0000000000149080     UefiShellDebug1CommandsLib:MainTextEditor.obj
 0006:00000080       $unwind$DisplaySysEventLogHeaderType1 0000000000149080     UefiShellDebug1CommandsLib:EventLogInfo.obj
 0006:00000080       $unwind$GetDevicePathTextForHandle 0000000000149080     UefiShellDriver1CommandsLib:Drivers.obj
 0006:00000080       $unwind$PerformMappingDelete 0000000000149080     UefiShellLevel2CommandsLib:Map.obj
 0006:00000080       $unwind$PrintSingleShellAlias 0000000000149080     UefiShellLevel3CommandsLib:Alias.obj
 0006:00000080       $unwind$FullyQualifyPath   0000000000149080     UefiShellLib:UefiShellLib.obj
 0006:00000080       $unwind$ShellFindFilePath  0000000000149080     UefiShellLib:UefiShellLib.obj
 0006:00000088       $unwind$SetLastError       0000000000149088     Shell:Shell.obj
 0006:00000088       $unwind$DisplaySmbios64BitStatisticsTable 0000000000149088     UefiShellDebug1CommandsLib:SmbiosView.obj
 0006:00000088       $unwind$DisplayStatisticsTable 0000000000149088     UefiShellDebug1CommandsLib:SmbiosView.obj
 0006:00000090       $unwind$HiiAddPackages     0000000000149090     UefiHiiLib:HiiLib.obj
 0006:00000090       $unwind$HiiSetString       0000000000149090     UefiHiiLib:HiiString.obj
 0006:00000090       $unwind$CreateBasicVariablePolicy 0000000000149090     VariablePolicyHelperLib:VariablePolicyHelperLib.obj
 0006:00000090       $unwind$StrHexToBytes      0000000000149090     BaseLib:SafeString.obj
 0006:00000090       $unwind$StrnCatS           0000000000149090     BaseLib:SafeString.obj
 0006:00000090       $unwind$DevPathToTextSasEx 0000000000149090     UefiDevicePathLib:DevicePathToText.obj
 0006:00000090       $unwind$DevPathToTextUsbClass 0000000000149090     UefiDevicePathLib:DevicePathToText.obj
 0006:00000090       $unwind$GetBestLanguage    0000000000149090     UefiLib:UefiLib.obj
 0006:00000090       $unwind$RunInternalCommand 0000000000149090     Shell:Shell.obj
 0006:00000090       $unwind$ManFileFindSections 0000000000149090     Shell:ShellManParser.obj
 0006:00000090       $unwind$ManFileFindTitleSection 0000000000149090     Shell:ShellManParser.obj
 0006:00000090       $unwind$EfiShellExecute    0000000000149090     Shell:ShellProtocol.obj
 0006:00000090       $unwind$ParseHandleDatabaseByRelationship 0000000000149090     UefiHandleParsingLib:UefiHandleParsingLib.obj
 0006:00000090       $unwind$ProcessValidateAndCopyFiles 0000000000149090     UefiShellLevel2CommandsLib:Cp.obj
 0006:00000090       $unwind$DoTouchByHandle    0000000000149090     UefiShellLevel3CommandsLib:Touch.obj
 0006:00000098       $unwind$RunCommandOrFile   0000000000149098     Shell:Shell.obj
 0006:00000098       $unwind$SMBios64View       0000000000149098     UefiShellDebug1CommandsLib:SmbiosView.obj
 0006:00000098       $unwind$SMBiosView         0000000000149098     UefiShellDebug1CommandsLib:SmbiosView.obj
 0006:000000a0       $unwind$SetupAndRunCommandOrFile 00000000001490a0     Shell:Shell.obj
 0006:000000a0       $unwind$DoDhByHandle       00000000001490a0     UefiShellDriver1CommandsLib:Dh.obj
 0006:000000a8       $unwind$StrToGuid          00000000001490a8     BaseLib:SafeString.obj
 0006:000000a8       $unwind$FileHandleGetFileName 00000000001490a8     UefiFileHandleLib:UefiFileHandleLib.obj
 0006:000000a8       $unwind$ConsoleLoggerOutputString 00000000001490a8     Shell:ConsoleLogger.obj
 0006:000000a8       $unwind$RunShellCommand    00000000001490a8     Shell:Shell.obj
 0006:000000a8       $unwind$IsVolatileEnv      00000000001490a8     Shell:ShellEnvVar.obj
 0006:000000a8       $unwind$EfiShellGetAlias   00000000001490a8     Shell:ShellProtocol.obj
 0006:000000a8       $unwind$EfiShellGetEnvEx   00000000001490a8     Shell:ShellProtocol.obj
 0006:000000a8       $unwind$EfiShellSetCurDir  00000000001490a8     Shell:ShellProtocol.obj
 0006:000000a8       $unwind$GetBootOptionCrc   00000000001490a8     UefiShellBcfgCommandLib:UefiShellBcfgCommandLib.obj
 0006:000000a8       $unwind$DisplayMmioMemory  00000000001490a8     UefiShellDebug1CommandsLib:Dmem.obj
 0006:000000a8       $unwind$HMainEditorHandleMouseInput 00000000001490a8     UefiShellDebug1CommandsLib:MainHexEditor.obj
 0006:000000a8       $unwind$PrintInterpretedExtendedCompatibilityDynamicPowerAllocation 00000000001490a8     UefiShellDebug1CommandsLib:Pci.obj
 0006:000000a8       $unwind$PrintInterpretedExtendedCompatibilityRcrb 00000000001490a8     UefiShellDebug1CommandsLib:Pci.obj
 0006:000000a8       $unwind$ShellCommandRunReconnect 00000000001490a8     UefiShellDriver1CommandsLib:Reconnect.obj
 0006:000000a8       $unwind$ShellCommandRunEndFor 00000000001490a8     UefiShellLevel1CommandsLib:For.obj
 0006:000000a8       $unwind$ShellCommandRunEndIf 00000000001490a8     UefiShellLevel1CommandsLib:If.obj
 0006:000000a8       $unwind$AddMappingFromHandle 00000000001490a8     UefiShellLevel2CommandsLib:Map.obj
 0006:000000a8       $unwind$IfConfigClearInterfaceInfo 00000000001490a8     UefiShellNetwork1CommandsLib:Ifconfig.obj
 0006:000000a8       $unwind$Ping6OnTimerRoutine 00000000001490a8     UefiShellNetwork1CommandsLib:Ping.obj
 0006:000000b0       $unwind$RunScriptFileHandle 00000000001490b0     Shell:Shell.obj
 0006:000000b0       $unwind$ShellCommandRunBcfg 00000000001490b0     UefiShellBcfgCommandLib:UefiShellBcfgCommandLib.obj
 0006:000000b8       $unwind$RegisterBasicVariablePolicy 00000000001490b8     VariablePolicyHelperLib:VariablePolicyHelperLib.obj
 0006:000000b8       $unwind$QuickSort          00000000001490b8     BaseLib:QuickSort.obj
 0006:000000b8       $unwind$AsciiStrnCpyS      00000000001490b8     BaseLib:SafeString.obj
 0006:000000b8       $unwind$StrnCpyS           00000000001490b8     BaseLib:SafeString.obj
 0006:000000b8       $unwind$DevPathToTextAtapi 00000000001490b8     UefiDevicePathLib:DevicePathToText.obj
 0006:000000b8       $unwind$DevPathToTextBluetooth 00000000001490b8     UefiDevicePathLib:DevicePathToText.obj
 0006:000000b8       $unwind$DevPathToTextInfiniBand 00000000001490b8     UefiDevicePathLib:DevicePathToText.obj
 0006:000000b8       $unwind$DevPathToTextUsbWWID 00000000001490b8     UefiDevicePathLib:DevicePathToText.obj
 0006:000000b8       $unwind$DevPathToTextWiFi  00000000001490b8     UefiDevicePathLib:DevicePathToText.obj
 0006:000000b8       $unwind$DevPathToTextiSCSI 00000000001490b8     UefiDevicePathLib:DevicePathToText.obj
 0006:000000b8       $unwind$RunScriptFile      00000000001490b8     Shell:Shell.obj
 0006:000000b8       $unwind$IsTitleHeader      00000000001490b8     Shell:ShellManParser.obj
 0006:000000b8       $unwind$ShellCommandAddMapItemAndUpdatePath 00000000001490b8     UefiShellCommandLib:UefiShellCommandLib.obj
 0006:000000b8       $unwind$AppendSingleVariableToFile 00000000001490b8     UefiShellDebug1CommandsLib:DmpStore.obj
 0006:000000b8       $unwind$ReadFileIntoBuffer 00000000001490b8     UefiShellDebug1CommandsLib:UefiShellDebug1CommandsLib.obj
 0006:000000b8       $unwind$GetDeviceHandleInfo 00000000001490b8     UefiShellDriver1CommandsLib:Devices.obj
 0006:000000b8       $unwind$ShellCmdDriverConfigurationProcessActionRequired 00000000001490b8     UefiShellDriver1CommandsLib:DrvCfg.obj
 0006:000000b8       $unwind$MappingListHasType 00000000001490b8     UefiShellLevel2CommandsLib:Map.obj
 0006:000000b8       $unwind$ShellLevel3CommandsLibSetAlias 00000000001490b8     UefiShellLevel3CommandsLib:Alias.obj
 0006:000000b8       $unwind$ShellFileHandleReadLine 00000000001490b8     UefiShellLib:UefiShellLib.obj
 0006:000000b8       $unwind$ShellOpenFileByName 00000000001490b8     UefiShellLib:UefiShellLib.obj
 0006:000000c0       $unwind$FindFirstCharacter 00000000001490c0     Shell:Shell.obj
 0006:000000c8       $unwind$PeCoffLoaderGetPdbPointer 00000000001490c8     BasePeCoffGetEntryPointLib:PeCoffGetEntryPoint.obj
 0006:000000c8       $unwind$DevPathFromTextSAS 00000000001490c8     UefiDevicePathLib:DevicePathFromText.obj
 0006:000000c8       $unwind$SetEnvironmentVariableList 00000000001490c8     Shell:ShellEnvVar.obj
 0006:000000c8       $unwind$EfiShellGetFilePathFromDevicePath 00000000001490c8     Shell:ShellProtocol.obj
 0006:000000c8       $unwind$FindLoadedImageFileName 00000000001490c8     UefiHandleParsingLib:UefiHandleParsingLib.obj
 0006:000000c8       $unwind$GetHandleListByProtocolList 00000000001490c8     UefiHandleParsingLib:UefiHandleParsingLib.obj
 0006:000000c8       $unwind$PciExplainCommand  00000000001490c8     UefiShellDebug1CommandsLib:Pci.obj
 0006:000000d0       $unwind$DevPathFromTextAcpiEx 00000000001490d0     UefiDevicePathLib:DevicePathFromText.obj
 0006:000000d0       $unwind$DevPathFromTextSasEx 00000000001490d0     UefiDevicePathLib:DevicePathFromText.obj
 0006:000000d0       $unwind$DevPathFromTextiSCSI 00000000001490d0     UefiDevicePathLib:DevicePathFromText.obj
 0006:000000d0       $unwind$EfiShellGetDevicePathFromFilePath 00000000001490d0     Shell:ShellProtocol.obj
 0006:000000d0       $unwind$GetHIDevicePath    00000000001490d0     UefiShellCommandLib:ConsistMapping.obj
 0006:000000d0       $unwind$ShellCommandConsistMappingInitialize 00000000001490d0     UefiShellCommandLib:ConsistMapping.obj
 0006:000000d0       $unwind$HFileImageSave     00000000001490d0     UefiShellDebug1CommandsLib:FileImage.obj
 0006:000000d0       $unwind$CheckAndSetDate    00000000001490d0     UefiShellLevel2CommandsLib:TimeDate.obj
 0006:000000d0       $unwind$CheckAndSetTimeZone 00000000001490d0     UefiShellLevel2CommandsLib:TimeDate.obj
 0006:000000d0       $unwind$IfConfigShowInterfaceInfo 00000000001490d0     UefiShellNetwork1CommandsLib:Ifconfig.obj
 0006:000000d8       $unwind$EfiShellGetDeviceName 00000000001490d8     Shell:ShellProtocol.obj
 0006:000000e0       $unwind$ShellFreeEnvVarList 00000000001490e0     Shell:ShellEnvVar.obj
 0006:000000e0       $unwind$EfiShellBatchIsActive 00000000001490e0     Shell:ShellProtocol.obj
 0006:000000e0       $unwind$HandleParsingHiiInit 00000000001490e0     UefiHandleParsingLib:UefiHandleParsingLib.obj
 0006:000000e0       $unwind$AllocateMemory     00000000001490e0     UefiShellDebug1CommandsLib:Compress.obj
 0006:000000e0       $unwind$FreeMemory         00000000001490e0     UefiShellDebug1CommandsLib:Compress.obj
 0006:000000e0       $unwind$HufEncodeEnd       00000000001490e0     UefiShellDebug1CommandsLib:Compress.obj
 0006:000000e0       $unwind$HufEncodeStart     00000000001490e0     UefiShellDebug1CommandsLib:Compress.obj
 0006:000000e0       $unwind$InputBarCleanup    00000000001490e0     UefiShellDebug1CommandsLib:EditInputBar.obj
 0006:000000e0       $unwind$MenuBarCleanup     00000000001490e0     UefiShellDebug1CommandsLib:EditMenuBar.obj
 0006:000000e0       $unwind$StatusBarCleanup   00000000001490e0     UefiShellDebug1CommandsLib:EditStatusBar.obj
 0006:000000e0       $unwind$StatusBarInit      00000000001490e0     UefiShellDebug1CommandsLib:EditStatusBar.obj
 0006:000000e0       $unwind$MainTitleBarCleanup 00000000001490e0     UefiShellDebug1CommandsLib:EditTitleBar.obj
 0006:000000e0       $unwind$FileBufferBackup   00000000001490e0     UefiShellDebug1CommandsLib:FileBuffer.obj
 0006:000000e0       $unwind$FileBufferFree     00000000001490e0     UefiShellDebug1CommandsLib:FileBuffer.obj
 0006:000000e0       $unwind$FileBufferInit     00000000001490e0     UefiShellDebug1CommandsLib:FileBuffer.obj
 0006:000000e0       $unwind$MainCommandSwitchFileType 00000000001490e0     UefiShellDebug1CommandsLib:MainTextEditor.obj
 0006:000000e0       $unwind$MainEditorBackup   00000000001490e0     UefiShellDebug1CommandsLib:MainTextEditor.obj
 0006:000000e0       $unwind$HBufferImageFree   00000000001490e0     UefiShellDebug1CommandsLib:BufferImage.obj
 0006:000000e0       $unwind$HBufferImageFreeLines 00000000001490e0     UefiShellDebug1CommandsLib:BufferImage.obj
 0006:000000e0       $unwind$HClipBoardCleanup  00000000001490e0     UefiShellDebug1CommandsLib:Clipboard.obj
 0006:000000e0       $unwind$HClipBoardInit     00000000001490e0     UefiShellDebug1CommandsLib:Clipboard.obj
 0006:000000e0       $unwind$HDiskImageBackup   00000000001490e0     UefiShellDebug1CommandsLib:DiskImage.obj
 0006:000000e0       $unwind$HDiskImageCleanup  00000000001490e0     UefiShellDebug1CommandsLib:DiskImage.obj
 0006:000000e0       $unwind$HDiskImageInit     00000000001490e0     UefiShellDebug1CommandsLib:DiskImage.obj
 0006:000000e0       $unwind$HFileImageBackup   00000000001490e0     UefiShellDebug1CommandsLib:FileImage.obj
 0006:000000e0       $unwind$HFileImageCleanup  00000000001490e0     UefiShellDebug1CommandsLib:FileImage.obj
 0006:000000e0       $unwind$HFileImageInit     00000000001490e0     UefiShellDebug1CommandsLib:FileImage.obj
 0006:000000e0       $unwind$HMainEditorBackup  00000000001490e0     UefiShellDebug1CommandsLib:MainHexEditor.obj
 0006:000000e0       $unwind$ConnectAllConsoles 00000000001490e0     UefiShellDriver1CommandsLib:Reconnect.obj
 0006:000000e0       $unwind$ShellGetExecutionBreakFlag 00000000001490e0     UefiShellLib:UefiShellLib.obj
 0006:000000e8       $unwind$StrToIpv4Address   00000000001490e8     BaseLib:SafeString.obj
 0006:000000e8       $unwind$InternalOpenFileDevicePath 00000000001490e8     Shell:ShellProtocol.obj
 0006:000000e8       $unwind$ProcessVariables   00000000001490e8     UefiShellDebug1CommandsLib:DmpStore.obj
 0006:000000e8       $unwind$ConnectControllers 00000000001490e8     UefiShellDriver1CommandsLib:Connect.obj
 0006:000000e8       $unwind$MoveToTag          00000000001490e8     UefiShellLevel1CommandsLib:UefiShellLevel1CommandsLib.obj
 0006:000000e8       $unwind$GetDestinationLocation 00000000001490e8     UefiShellLevel2CommandsLib:Mv.obj
 0006:000000f0       $unwind$StrDecimalToUint64S 00000000001490f0     BaseLib:SafeString.obj
 0006:000000f0       $unwind$StrDecimalToUintnS 00000000001490f0     BaseLib:SafeString.obj
 0006:000000f0       $unwind$InternalPrint      00000000001490f0     UefiLib:UefiLibPrint.obj
 0006:000000f0       $unwind$ConsoleLoggerSetCursorPosition 00000000001490f0     Shell:ConsoleLogger.obj
 0006:000000f0       $unwind$FileInterfaceEnvRead 00000000001490f0     Shell:FileHandleWrappers.obj
 0006:000000f0       $unwind$FileInterfaceFileWrite 00000000001490f0     Shell:FileHandleWrappers.obj
 0006:000000f0       $unwind$EfiShellCreateFile 00000000001490f0     Shell:ShellProtocol.obj
 0006:000000f0       $unwind$EfiShellOpenFileByName 00000000001490f0     Shell:ShellProtocol.obj
 0006:000000f0       $unwind$InternalShellExecute 00000000001490f0     Shell:ShellProtocol.obj
 0006:000000f0       $unwind$GetGuidFromStringName 00000000001490f0     UefiHandleParsingLib:UefiHandleParsingLib.obj
 0006:000000f0       $unwind$BcfgLibraryRegisterBcfgCommand 00000000001490f0     UefiShellBcfgCommandLib:UefiShellBcfgCommandLib.obj
 0006:000000f0       $unwind$InternalEditorMiscLineAdvance 00000000001490f0     UefiShellDebug1CommandsLib:FileBuffer.obj
 0006:000000f0       $unwind$InternalEditorMiscLineRetreat 00000000001490f0     UefiShellDebug1CommandsLib:FileBuffer.obj
 0006:000000f0       $unwind$ConvertHandleToHiiHandle 00000000001490f0     UefiShellDriver1CommandsLib:DrvCfg.obj
 0006:000000f0       $unwind$PrintNonSfoFooter  00000000001490f0     UefiShellLevel2CommandsLib:Ls.obj
 0006:000000f0       $unwind$IsBetweenFileSystem 00000000001490f0     UefiShellLevel2CommandsLib:Mv.obj
 0006:000000f0       $unwind$MoveBetweenFileSystems 00000000001490f0     UefiShellLevel2CommandsLib:Mv.obj
 0006:000000f0       $unwind$ShellOpenFileMetaArg 00000000001490f0     UefiShellLib:UefiShellLib.obj
 0006:000000f0       $unwind$ShellPrintHelp     00000000001490f0     UefiShellLib:UefiShellLib.obj
 0006:000000f8       $unwind$InternalShellExecuteDevicePath 00000000001490f8     Shell:ShellProtocol.obj
 0006:000000f8       $unwind$HBufferImagePrintLine 00000000001490f8     UefiShellDebug1CommandsLib:BufferImage.obj
 0006:000000f8       $unwind$ValidateAndCopyFiles 00000000001490f8     UefiShellLevel2CommandsLib:Cp.obj
 0006:00000100       $unwind$NestingEnabled     0000000000149100     Shell:ShellProtocol.obj
 0006:00000100       $unwind$ShellCommandUpdateMapping 0000000000149100     UefiShellCommandLib:UefiShellCommandLib.obj
 0006:00000100       $unwind$FileBufferDoReturn 0000000000149100     UefiShellDebug1CommandsLib:FileBuffer.obj
 0006:00000100       $unwind$MainEditorInit     0000000000149100     UefiShellDebug1CommandsLib:MainTextEditor.obj
 0006:00000100       $unwind$MainEditorKeyInput 0000000000149100     UefiShellDebug1CommandsLib:MainTextEditor.obj
 0006:00000100       $unwind$HMainCommandExit   0000000000149100     UefiShellDebug1CommandsLib:MainHexEditor.obj
 0006:00000100       $unwind$HMainEditorInit    0000000000149100     UefiShellDebug1CommandsLib:MainHexEditor.obj
 0006:00000100       $unwind$InitSmbiosTableStatistics 0000000000149100     UefiShellDebug1CommandsLib:SmbiosView.obj
 0006:00000100       $unwind$ProbeForMediaChange 0000000000149100     UefiShellLevel2CommandsLib:Map.obj
 0006:00000100       $unwind$GetTimerPeriod     0000000000149100     UefiShellNetwork1CommandsLib:Ping.obj
 0006:00000108       $unwind$MmioWrite32        0000000000149108     BaseIoLibIntrinsic:IoLib.obj
 0006:00000108       $unwind$MmioWrite8         0000000000149108     BaseIoLibIntrinsic:IoLib.obj
 0006:00000108       $unwind$IoWrite32          0000000000149108     BaseIoLibIntrinsic:IoLibMsc.obj
 0006:00000108       $unwind$IoWrite8           0000000000149108     BaseIoLibIntrinsic:IoLibMsc.obj
 0006:00000108       $unwind$MultU64x32         0000000000149108     BaseLib:MultU64x32.obj
 0006:00000108       $unwind$ConvertFromTextAcpi 0000000000149108     UefiDevicePathLib:DevicePathFromText.obj
 0006:00000108       $unwind$InternalAllocatePool 0000000000149108     UefiMemoryAllocationLib:MemoryAllocationLib.obj
 0006:00000108       $unwind$InternalAllocateZeroPool 0000000000149108     UefiMemoryAllocationLib:MemoryAllocationLib.obj
 0006:00000108       $unwind$CreateFileInterfaceFile 0000000000149108     Shell:FileHandleWrappers.obj
 0006:00000108       $unwind$InternalDuplicateShellFileInfo 0000000000149108     Shell:ShellProtocol.obj
 0006:00000108       $unwind$DisplaySysEventLogHeader 0000000000149108     UefiShellDebug1CommandsLib:EventLogInfo.obj
 0006:00000108       $unwind$DisplayBiosCharacteristics 0000000000149108     UefiShellDebug1CommandsLib:PrintInfo.obj
 0006:00000108       $unwind$DisplayTpmDeviceCharacteristics 0000000000149108     UefiShellDebug1CommandsLib:PrintInfo.obj
 0006:00000110       $unwind$PerformQuickSort   0000000000149110     UefiSortLib:UefiSortLib.obj
 0006:00000110       $unwind$BasePrintLibSPrint 0000000000149110     BasePrintLib:PrintLibInternal.obj
 0006:00000110       $unwind$DevPathToTextAcpiAdr 0000000000149110     UefiDevicePathLib:DevicePathToText.obj
 0006:00000110       $unwind$DevPathToTextBBS   0000000000149110     UefiDevicePathLib:DevicePathToText.obj
 0006:00000110       $unwind$DevPathToTextCDROM 0000000000149110     UefiDevicePathLib:DevicePathToText.obj
 0006:00000110       $unwind$DevPathToTextHardDrive 0000000000149110     UefiDevicePathLib:DevicePathToText.obj
 0006:00000110       $unwind$DevPathToTextMacAddr 0000000000149110     UefiDevicePathLib:DevicePathToText.obj
 0006:00000110       $unwind$DevPathToTextMemMap 0000000000149110     UefiDevicePathLib:DevicePathToText.obj
 0006:00000110       $unwind$DevPathToTextNodeGeneric 0000000000149110     UefiDevicePathLib:DevicePathToText.obj
 0006:00000110       $unwind$DevPathToTextSata  0000000000149110     UefiDevicePathLib:DevicePathToText.obj
 0006:00000110       $unwind$DevPathToTextUart  0000000000149110     UefiDevicePathLib:DevicePathToText.obj
 0006:00000110       $unwind$DevPathToTextUri   0000000000149110     UefiDevicePathLib:DevicePathToText.obj
 0006:00000110       $unwind$StrnCatGrowLeft    0000000000149110     UefiFileHandleLib:UefiFileHandleLib.obj
 0006:00000110       $unwind$GetVariable2       0000000000149110     UefiLib:UefiLib.obj
 0006:00000110       $unwind$ShellAddEnvVarToList 0000000000149110     Shell:ShellEnvVar.obj
 0006:00000110       $unwind$GetNextParameter   0000000000149110     Shell:ShellParametersProtocol.obj
 0006:00000110       $unwind$CreateAndPopulateShellFileInfo 0000000000149110     Shell:ShellProtocol.obj
 0006:00000110       $unwind$CatPrint           0000000000149110     UefiShellCommandLib:ConsistMapping.obj
 0006:00000110       $unwind$ShellCommandRegisterCommandName 0000000000149110     UefiShellCommandLib:UefiShellCommandLib.obj
 0006:00000110       $unwind$PrintDifferentPoint 0000000000149110     UefiShellDebug1CommandsLib:Comp.obj
 0006:00000110       $unwind$BinaryToHexString  0000000000149110     UefiShellDebug1CommandsLib:DmpStore.obj
 0006:00000110       $unwind$LineStrInsert      0000000000149110     UefiShellDebug1CommandsLib:FileBuffer.obj
 0006:00000110       $unwind$QueryTable         0000000000149110     UefiShellDebug1CommandsLib:QueryTable.obj
 0006:00000110       $unwind$ConvertAndConnectControllers 0000000000149110     UefiShellDriver1CommandsLib:Connect.obj
 0006:00000110       $unwind$TestOperation      0000000000149110     UefiShellLevel1CommandsLib:If.obj
 0006:00000110       $unwind$TestNodeForMove    0000000000149110     UefiShellLevel1CommandsLib:UefiShellLevel1CommandsLib.obj
 0006:00000110       $unwind$SearchList         0000000000149110     UefiShellLevel2CommandsLib:Map.obj
 0006:00000110       $unwind$IsValidMove        0000000000149110     UefiShellLevel2CommandsLib:Mv.obj
 0006:00000110       $unwind$ShellCommandLineParseEx 0000000000149110     UefiShellLib:UefiShellLib.obj
 0006:00000110       $unwind$ShellConvertStringToUint64 0000000000149110     UefiShellLib:UefiShellLib.obj
 0006:00000110       $unwind$ShellOpenFileByDevicePath 0000000000149110     UefiShellLib:UefiShellLib.obj
 0006:00000118       $unwind$EfiShellFindFilesInDir 0000000000149118     Shell:ShellProtocol.obj
 0006:00000118       $unwind$PrintInterpretedExtendedCompatibilityVirtualChannel 0000000000149118     UefiShellDebug1CommandsLib:Pci.obj
 0006:00000118       $unwind$ShellCommandRunSetSize 0000000000149118     UefiShellDebug1CommandsLib:SetSize.obj
 0006:00000118       $unwind$DisplaySysEventLogData 0000000000149118     UefiShellDebug1CommandsLib:EventLogInfo.obj
 0006:00000118       $unwind$ShellCommandRunSmbiosView 0000000000149118     UefiShellDebug1CommandsLib:SmbiosView.obj
 0006:00000118       $unwind$DoDecodeByProtocol 0000000000149118     UefiShellDriver1CommandsLib:Dh.obj
 0006:00000118       $unwind$ShellCommandRunOpenInfo 0000000000149118     UefiShellDriver1CommandsLib:OpenInfo.obj
 0006:00000118       $unwind$ShellCommandRunUnload 0000000000149118     UefiShellDriver1CommandsLib:Unload.obj
 0006:00000118       $unwind$ShellCommandRunGoto 0000000000149118     UefiShellLevel1CommandsLib:Goto.obj
 0006:00000118       $unwind$ShellCommandRunLoad 0000000000149118     UefiShellLevel2CommandsLib:Load.obj
 0006:00000118       $unwind$FileTimeToLocalTime 0000000000149118     UefiShellLevel2CommandsLib:Ls.obj
 0006:00000118       $unwind$ShellCommandRunRm  0000000000149118     UefiShellLevel2CommandsLib:Rm.obj
 0006:00000118       $unwind$ShellCommandRunDate 0000000000149118     UefiShellLevel2CommandsLib:TimeDate.obj
 0006:00000118       $unwind$ShellCommandRunEcho 0000000000149118     UefiShellLevel3CommandsLib:Echo.obj
 0006:00000118       $unwind$ShellCommandRunTouch 0000000000149118     UefiShellLevel3CommandsLib:Touch.obj
 0006:00000118       $unwind$ShellCommandRunType 0000000000149118     UefiShellLevel3CommandsLib:Type.obj
 0006:00000118       $unwind$ShellCommandRunIfconfig 0000000000149118     UefiShellNetwork1CommandsLib:Ifconfig.obj
 0006:00000120       $unwind$StrToIpv6Address   0000000000149120     BaseLib:SafeString.obj
 0006:00000120       $unwind$DevPathToTextAcpiEx 0000000000149120     UefiDevicePathLib:DevicePathToText.obj
 0006:00000120       $unwind$DevPathToTextRamDisk 0000000000149120     UefiDevicePathLib:DevicePathToText.obj
 0006:00000120       $unwind$CreateTabCompletionList 0000000000149120     Shell:FileHandleWrappers.obj
 0006:00000120       $unwind$ShellSearchHandle  0000000000149120     Shell:ShellProtocol.obj
 0006:00000120       $unwind$BcfgRemove         0000000000149120     UefiShellBcfgCommandLib:UefiShellBcfgCommandLib.obj
 0006:00000120       $unwind$HDiskImageRead     0000000000149120     UefiShellDebug1CommandsLib:DiskImage.obj
 0006:00000120       $unwind$PerformParsing     0000000000149120     UefiShellLevel2CommandsLib:Parse.obj
 0006:00000128       $unwind$NetLibDetectMedia  0000000000149128     DxeNetLib:DxeNetLib.obj
 0006:00000128       $unwind$EfiShellFindFiles  0000000000149128     Shell:ShellProtocol.obj
 0006:00000128       $unwind$ShellCommandConsistMappingGenMappingName 0000000000149128     UefiShellCommandLib:ConsistMapping.obj
 0006:00000128       $unwind$FileBufferPrintLine 0000000000149128     UefiShellDebug1CommandsLib:FileBuffer.obj
 0006:00000128       $unwind$FileBufferReplace  0000000000149128     UefiShellDebug1CommandsLib:FileBuffer.obj
 0006:00000128       $unwind$FileBufferSearch   0000000000149128     UefiShellDebug1CommandsLib:FileBuffer.obj
 0006:00000128       $unwind$ConfigToFile       0000000000149128     UefiShellDriver1CommandsLib:DrvCfg.obj
 0006:00000128       $unwind$ShellCommandRunExit 0000000000149128     UefiShellLevel1CommandsLib:Exit.obj
 0006:00000128       $unwind$ShellCommandRunElse 0000000000149128     UefiShellLevel1CommandsLib:If.obj
 0006:00000128       $unwind$ShellCommandRunStall 0000000000149128     UefiShellLevel1CommandsLib:Stall.obj
 0006:00000128       $unwind$ShellLevel1CommandsLibConstructor 0000000000149128     UefiShellLevel1CommandsLib:UefiShellLevel1CommandsLib.obj
 0006:00000128       $unwind$ShellCommandRunSet 0000000000149128     UefiShellLevel2CommandsLib:Set.obj
 0006:00000128       $unwind$ShellCommandRunGetMtc 0000000000149128     UefiShellLevel3CommandsLib:GetMtc.obj
 0006:00000128       $unwind$ShellCommandRunPause 0000000000149128     UefiShellLevel3CommandsLib:Pause.obj
 0006:00000128       $unwind$ShellCommandRunVer 0000000000149128     UefiShellLevel3CommandsLib:Ver.obj
 0006:00000128       $unwind$IfConfigGetInterfaceInfo 0000000000149128     UefiShellNetwork1CommandsLib:Ifconfig.obj
 0006:00000130       $unwind$EfiBootManagerIsValidLoadOptionVariableName 0000000000149130     UefiBootManagerLib:BmLoadOption.obj
 0006:00000130       $unwind$AsciiStrToUnicodeStrS 0000000000149130     BaseLib:SafeString.obj
 0006:00000130       $unwind$StrCpyS            0000000000149130     BaseLib:SafeString.obj
 0006:00000130       $unwind$StrHexToUint64S    0000000000149130     BaseLib:SafeString.obj
 0006:00000130       $unwind$StrHexToUintnS     0000000000149130     BaseLib:SafeString.obj
 0006:00000130       $unwind$UnicodeStrToAsciiStrS 0000000000149130     BaseLib:SafeString.obj
 0006:00000130       $unwind$InternalMemSetMem  0000000000149130     BaseMemoryLib:SetMem.obj
 0006:00000130       $unwind$CatVSPrint         0000000000149130     UefiLib:UefiLibPrint.obj
 0006:00000130       $unwind$FileInterfaceEnvNonVolWrite 0000000000149130     Shell:FileHandleWrappers.obj
 0006:00000130       $unwind$FileInterfaceEnvVolWrite 0000000000149130     Shell:FileHandleWrappers.obj
 0006:00000130       $unwind$FileInterfaceFileRead 0000000000149130     Shell:FileHandleWrappers.obj
 0006:00000130       $unwind$PrintCommandHistory 0000000000149130     Shell:FileHandleWrappers.obj
 0006:00000130       $unwind$EfiShellGetHelpText 0000000000149130     Shell:ShellProtocol.obj
 0006:00000130       $unwind$EfiShellOpenFileList 0000000000149130     Shell:ShellProtocol.obj
 0006:00000130       $unwind$InternalEfiShellSetEnv 0000000000149130     Shell:ShellProtocol.obj
 0006:00000130       $unwind$InternalSetAlias   0000000000149130     Shell:ShellProtocol.obj
 0006:00000130       $unwind$DevPathSerial1394  0000000000149130     UefiShellCommandLib:ConsistMapping.obj
 0006:00000130       $unwind$DevPathSerialIScsi 0000000000149130     UefiShellCommandLib:ConsistMapping.obj
 0006:00000130       $unwind$HBufferImageMovePosition 0000000000149130     UefiShellDebug1CommandsLib:BufferImage.obj
 0006:00000130       $unwind$PrintInterpretedExtendedCompatibilitySecondary 0000000000149130     UefiShellDebug1CommandsLib:Pci.obj
 0006:00000130       $unwind$LibGetSmbios64BitStructure 0000000000149130     UefiShellDebug1CommandsLib:LibSmbiosView.obj
 0006:00000130       $unwind$LibGetSmbiosStructure 0000000000149130     UefiShellDebug1CommandsLib:LibSmbiosView.obj
 0006:00000130       $unwind$PrintBitsInfo      0000000000149130     UefiShellDebug1CommandsLib:QueryTable.obj
 0006:00000130       $unwind$GetDriverName      0000000000149130     UefiShellDriver1CommandsLib:Dh.obj
 0006:00000130       $unwind$IsValidDeleteTarget 0000000000149130     UefiShellLevel2CommandsLib:Rm.obj
 0006:00000130       $unwind$LexicalInsertIntoList 0000000000149130     UefiShellLevel3CommandsLib:Help.obj
 0006:00000138       $unwind$DebugVPrint        0000000000149138     PeiDxeDebugLibReportStatusCode:DebugLib.obj
 0006:00000138       $unwind$HiiGetString       0000000000149138     UefiHiiLib:HiiString.obj
 0006:00000138       $unwind$DivU64x64Remainder 0000000000149138     BaseLib:DivU64x64Remainder.obj
 0006:00000138       $unwind$AsciiStrnCmp       0000000000149138     BaseLib:String.obj
 0006:00000138       $unwind$StrnCmp            0000000000149138     BaseLib:String.obj
 0006:00000138       $unwind$CompareMem         0000000000149138     BaseMemoryLib:CompareMemWrapper.obj
 0006:00000138       $unwind$CopyMem            0000000000149138     BaseMemoryLib:CopyMemWrapper.obj
 0006:00000138       $unwind$SetMem             0000000000149138     BaseMemoryLib:SetMemWrapper.obj
 0006:00000138       $unwind$FileHandleRead     0000000000149138     UefiFileHandleLib:UefiFileHandleLib.obj
 0006:00000138       $unwind$FileHandleWrite    0000000000149138     UefiFileHandleLib:UefiFileHandleLib.obj
 0006:00000138       $unwind$GetEfiGlobalVariable2 0000000000149138     UefiLib:UefiLib.obj
 0006:00000138       $unwind$ReallocatePool     0000000000149138     UefiMemoryAllocationLib:MemoryAllocationLib.obj
 0006:00000138       $unwind$FileInterfaceStdErrWrite 0000000000149138     Shell:FileHandleWrappers.obj
 0006:00000138       $unwind$EfiShellSetEnv     0000000000149138     Shell:ShellProtocol.obj
 0006:00000138       $unwind$InsertNewGuidNameMapping 0000000000149138     UefiHandleParsingLib:UefiHandleParsingLib.obj
 0006:00000138       $unwind$HDiskImageSetDiskNameOffsetSize 0000000000149138     UefiShellDebug1CommandsLib:DiskImage.obj
 0006:00000138       $unwind$MemToString        0000000000149138     UefiShellDebug1CommandsLib:PrintInfo.obj
 0006:00000138       $unwind$BuildNextStatement 0000000000149138     UefiShellLevel1CommandsLib:If.obj
 0006:00000138       $unwind$ShellReadFile      0000000000149138     UefiShellLib:UefiShellLib.obj
 0006:00000138       $unwind$ShellSetEnvironmentVariable 0000000000149138     UefiShellLib:UefiShellLib.obj
 0006:00000138       $unwind$ShellWriteFile     0000000000149138     UefiShellLib:UefiShellLib.obj
 0006:00000140       $unwind$DebugPrintLevelEnabled 0000000000149140     PeiDxeDebugLibReportStatusCode:DebugLib.obj
 0006:00000140       $unwind$PathRemoveLastItem 0000000000149140     BaseLib:FilePaths.obj
 0006:00000140       $unwind$InternalIsDecimalDigitCharacter 0000000000149140     BaseLib:String.obj
 0006:00000140       $unwind$NodeIsNullOrBlack  0000000000149140     BaseOrderedCollectionRedBlackTreeLib:BaseOrderedCollectionRedBlackTreeLib.obj
 0006:00000140       $unwind$OrderedCollectionIsEmpty 0000000000149140     BaseOrderedCollectionRedBlackTreeLib:BaseOrderedCollectionRedBlackTreeLib.obj
 0006:00000140       $unwind$OrderedCollectionMax 0000000000149140     BaseOrderedCollectionRedBlackTreeLib:BaseOrderedCollectionRedBlackTreeLib.obj
 0006:00000140       $unwind$OrderedCollectionMin 0000000000149140     BaseOrderedCollectionRedBlackTreeLib:BaseOrderedCollectionRedBlackTreeLib.obj
 0006:00000140       $unwind$OrderedCollectionNext 0000000000149140     BaseOrderedCollectionRedBlackTreeLib:BaseOrderedCollectionRedBlackTreeLib.obj
 0006:00000140       $unwind$OrderedCollectionPrev 0000000000149140     BaseOrderedCollectionRedBlackTreeLib:BaseOrderedCollectionRedBlackTreeLib.obj
 0006:00000140       $unwind$IsHexStr           0000000000149140     UefiDevicePathLib:DevicePathFromText.obj
 0006:00000140       $unwind$StripQuotes        0000000000149140     Shell:ShellParametersProtocol.obj
 0006:00000140       $unwind$ToLower            0000000000149140     Shell:ShellProtocol.obj
 0006:00000140       $unwind$ShellIsDecimalDigitCharacter 0000000000149140     UefiShellLib:UefiShellLib.obj
 0006:00000140       $unwind$ShellIsHexaDecimalDigitCharacter 0000000000149140     UefiShellLib:UefiShellLib.obj
 0006:00000140       $unwind$PingNetIp4IsLinkLocalAddr 0000000000149140     UefiShellNetwork1CommandsLib:Ping.obj
 0006:00000148       $unwind$DebugPrint         0000000000149148     PeiDxeDebugLibReportStatusCode:DebugLib.obj
 0006:00000148       $unwind$InternalSafeStringNoAsciiStrOverlap 0000000000149148     BaseLib:SafeString.obj
 0006:00000148       $unwind$InternalSafeStringNoStrOverlap 0000000000149148     BaseLib:SafeString.obj
 0006:00000148       $unwind$AsciiSPrint        0000000000149148     BasePrintLib:PrintLib.obj
 0006:00000148       $unwind$AsciiVSPrint       0000000000149148     BasePrintLib:PrintLib.obj
 0006:00000148       $unwind$UnicodeSPrint      0000000000149148     BasePrintLib:PrintLib.obj
 0006:00000148       $unwind$UnicodeVSPrint     0000000000149148     BasePrintLib:PrintLib.obj
 0006:00000148       $unwind$UnicodeValueToStringS 0000000000149148     BasePrintLib:PrintLib.obj
 0006:00000148       $unwind$DevPathRelativeOffsetRange 0000000000149148     UefiDevicePathLib:DevicePathToText.obj
 0006:00000148       $unwind$DevPathToText1394  0000000000149148     UefiDevicePathLib:DevicePathToText.obj
 0006:00000148       $unwind$DevPathToTextAcpi  0000000000149148     UefiDevicePathLib:DevicePathToText.obj
 0006:00000148       $unwind$DevPathToTextBmc   0000000000149148     UefiDevicePathLib:DevicePathToText.obj
 0006:00000148       $unwind$DevPathToTextController 0000000000149148     UefiDevicePathLib:DevicePathToText.obj
 0006:00000148       $unwind$DevPathToTextDns   0000000000149148     UefiDevicePathLib:DevicePathToText.obj
 0006:00000148       $unwind$DevPathToTextEmmc  0000000000149148     UefiDevicePathLib:DevicePathToText.obj
 0006:00000148       $unwind$DevPathToTextFibre 0000000000149148     UefiDevicePathLib:DevicePathToText.obj
 0006:00000148       $unwind$DevPathToTextFibreEx 0000000000149148     UefiDevicePathLib:DevicePathToText.obj
 0006:00000148       $unwind$DevPathToTextFilePath 0000000000149148     UefiDevicePathLib:DevicePathToText.obj
 0006:00000148       $unwind$DevPathToTextFv    0000000000149148     UefiDevicePathLib:DevicePathToText.obj
 0006:00000148       $unwind$DevPathToTextFvFile 0000000000149148     UefiDevicePathLib:DevicePathToText.obj
 0006:00000148       $unwind$DevPathToTextI2O   0000000000149148     UefiDevicePathLib:DevicePathToText.obj
 0006:00000148       $unwind$DevPathToTextIPv4  0000000000149148     UefiDevicePathLib:DevicePathToText.obj
 0006:00000148       $unwind$DevPathToTextIPv6  0000000000149148     UefiDevicePathLib:DevicePathToText.obj
 0006:00000148       $unwind$DevPathToTextLogicalUnit 0000000000149148     UefiDevicePathLib:DevicePathToText.obj
 0006:00000148       $unwind$DevPathToTextMediaProtocol 0000000000149148     UefiDevicePathLib:DevicePathToText.obj
 0006:00000148       $unwind$DevPathToTextPccard 0000000000149148     UefiDevicePathLib:DevicePathToText.obj
 0006:00000148       $unwind$DevPathToTextPci   0000000000149148     UefiDevicePathLib:DevicePathToText.obj
 0006:00000148       $unwind$DevPathToTextScsi  0000000000149148     UefiDevicePathLib:DevicePathToText.obj
 0006:00000148       $unwind$DevPathToTextSd    0000000000149148     UefiDevicePathLib:DevicePathToText.obj
 0006:00000148       $unwind$DevPathToTextUfs   0000000000149148     UefiDevicePathLib:DevicePathToText.obj
 0006:00000148       $unwind$DevPathToTextUsb   0000000000149148     UefiDevicePathLib:DevicePathToText.obj
 0006:00000148       $unwind$DevPathToTextVlan  0000000000149148     UefiDevicePathLib:DevicePathToText.obj
 0006:00000148       $unwind$UefiDevicePathLibCatPrint 0000000000149148     UefiDevicePathLib:DevicePathToText.obj
 0006:00000148       $unwind$CatSPrint          0000000000149148     UefiLib:UefiLibPrint.obj
 0006:00000148       $unwind$Print              0000000000149148     UefiLib:UefiLibPrint.obj
 0006:00000148       $unwind$ConsoleLoggerQueryMode 0000000000149148     Shell:ConsoleLogger.obj
 0006:00000148       $unwind$FileBasedSimpleTextOutQueryMode 0000000000149148     Shell:ConsoleWrappers.obj
 0006:00000148       $unwind$FileInterfaceFileOpen 0000000000149148     Shell:FileHandleWrappers.obj
 0006:00000148       $unwind$FileInterfaceMemGetInfo 0000000000149148     Shell:FileHandleWrappers.obj
 0006:00000148       $unwind$ShellFindEnvVarInList 0000000000149148     Shell:ShellEnvVar.obj
 0006:00000148       $unwind$RestoreStdInStdOutStdErr 0000000000149148     Shell:ShellParametersProtocol.obj
 0006:00000148       $unwind$UpdateArgcArgv     0000000000149148     Shell:ShellParametersProtocol.obj
 0006:00000148       $unwind$EfiShellSetAlias   0000000000149148     Shell:ShellProtocol.obj
 0006:00000148       $unwind$BuffernCatGrow     0000000000149148     UefiHandleParsingLib:UefiHandleParsingLib.obj
 0006:00000148       $unwind$FileBufferReadByte 0000000000149148     UefiShellDebug1CommandsLib:Comp.obj
 0006:00000148       $unwind$Compress           0000000000149148     UefiShellDebug1CommandsLib:Compress.obj
 0006:00000148       $unwind$HBufferImageRead   0000000000149148     UefiShellDebug1CommandsLib:BufferImage.obj
 0006:00000148       $unwind$HBufferImageSave   0000000000149148     UefiShellDebug1CommandsLib:BufferImage.obj
 0006:00000148       $unwind$InternalIsTimeLikeString 0000000000149148     UefiShellLevel2CommandsLib:TimeDate.obj
 0006:00000148       $unwind$ShellCopySearchAndReplace 0000000000149148     UefiShellLib:UefiShellLib.obj
 0006:00000148       $unwind$StrnCatGrow        0000000000149148     UefiShellLib:UefiShellLib.obj
 0006:00000150       $unwind$InternalGetReportStatusCode 0000000000149150     DxeReportStatusCodeLib:ReportStatusCodeLib.obj
 0006:00000150       $unwind$CpuDeadLoop        0000000000149150     BaseLib:CpuDeadLoop.obj
 0006:00000150       $unwind$GetHobList         0000000000149150     DxeHobLib:HobLib.obj
 0006:00000150       $unwind$ConsoleLoggerDoPageBreak 0000000000149150     Shell:ConsoleLogger.obj
 0006:00000150       $unwind$ShellInitEnvVarList 0000000000149150     Shell:ShellEnvVar.obj
 0006:00000150       $unwind$ShellCommandGetCurrentScriptFile 0000000000149150     UefiShellCommandLib:UefiShellCommandLib.obj
 0006:00000150       $unwind$CountTFreq         0000000000149150     UefiShellDebug1CommandsLib:Compress.obj
 0006:00000150       $unwind$Encode             0000000000149150     UefiShellDebug1CommandsLib:Compress.obj
 0006:00000150       $unwind$GetNextMatch       0000000000149150     UefiShellDebug1CommandsLib:Compress.obj
 0006:00000150       $unwind$InitSlide          0000000000149150     UefiShellDebug1CommandsLib:Compress.obj
 0006:00000150       $unwind$WriteCLen          0000000000149150     UefiShellDebug1CommandsLib:Compress.obj
 0006:00000150       $unwind$FileBufferCleanup  0000000000149150     UefiShellDebug1CommandsLib:FileBuffer.obj
 0006:00000150       $unwind$FileBufferCreateLine 0000000000149150     UefiShellDebug1CommandsLib:FileBuffer.obj
 0006:00000150       $unwind$FileBufferRestorePosition 0000000000149150     UefiShellDebug1CommandsLib:FileBuffer.obj
 0006:00000150       $unwind$MainCommandCutLine 0000000000149150     UefiShellDebug1CommandsLib:MainTextEditor.obj
 0006:00000150       $unwind$MainCommandExit    0000000000149150     UefiShellDebug1CommandsLib:MainTextEditor.obj
 0006:00000150       $unwind$MainCommandGotoLine 0000000000149150     UefiShellDebug1CommandsLib:MainTextEditor.obj
 0006:00000150       $unwind$MainCommandPasteLine 0000000000149150     UefiShellDebug1CommandsLib:MainTextEditor.obj
 0006:00000150       $unwind$HBufferImageBackup 0000000000149150     UefiShellDebug1CommandsLib:BufferImage.obj
 0006:00000150       $unwind$HBufferImageCleanup 0000000000149150     UefiShellDebug1CommandsLib:BufferImage.obj
 0006:00000150       $unwind$HBufferImageCreateLine 0000000000149150     UefiShellDebug1CommandsLib:BufferImage.obj
 0006:00000150       $unwind$HBufferImageInit   0000000000149150     UefiShellDebug1CommandsLib:BufferImage.obj
 0006:00000150       $unwind$HBufferImageRestorePosition 0000000000149150     UefiShellDebug1CommandsLib:BufferImage.obj
 0006:00000150       $unwind$HMainCommandSelectEnd 0000000000149150     UefiShellDebug1CommandsLib:MainHexEditor.obj
 0006:00000150       $unwind$HMainCommandSelectStart 0000000000149150     UefiShellDebug1CommandsLib:MainHexEditor.obj
 0006:00000150       $unwind$HMemImageInit      0000000000149150     UefiShellDebug1CommandsLib:MemImage.obj
 0006:00000150       $unwind$ShellInitialize    0000000000149150     UefiShellLib:UefiShellLib.obj
 0006:00000158       $unwind$ParseCommandLineToArgs 0000000000149158     Shell:ShellParametersProtocol.obj
 0006:00000158       $unwind$MainTitleBarRefresh 0000000000149158     UefiShellDebug1CommandsLib:EditTitleBar.obj
 0006:00000160       $unwind$UpdateStdInStdOutStdErr 0000000000149160     Shell:ShellParametersProtocol.obj
 0006:00000168       $unwind$UefiDevicePathLibCreateDeviceNode 0000000000149168     UefiDevicePathLib:DevicePathUtilities.obj
 0006:00000168       $unwind$InternalAllocateCopyPool 0000000000149168     UefiMemoryAllocationLib:MemoryAllocationLib.obj
 0006:00000168       $unwind$ConsoleLoggerDisplayHistory 0000000000149168     Shell:ConsoleLogger.obj
 0006:00000168       $unwind$MakeCode           0000000000149168     UefiShellDebug1CommandsLib:Compress.obj
 0006:00000170       $unwind$UpdateDisplayFromHistory 0000000000149170     Shell:ConsoleLogger.obj
 0006:00000170       $unwind$ShellConnectFromDevPaths 0000000000149170     UefiShellDriver1CommandsLib:Connect.obj
 0006:00000178       $unwind$ConsoleLoggerEnableCursor 0000000000149178     Shell:ConsoleLogger.obj
 0006:00000178       $unwind$ConsoleLoggerReset 0000000000149178     Shell:ConsoleLogger.obj
 0006:00000178       $unwind$DriverEfiVersionProtocolDumpInformation 0000000000149178     UefiHandleParsingLib:UefiHandleParsingLib.obj
 0006:00000178       $unwind$DisplayCacheConfiguration 0000000000149178     UefiShellDebug1CommandsLib:PrintInfo.obj
 0006:00000178       $unwind$DisplayProcessorFamily2 0000000000149178     UefiShellDebug1CommandsLib:PrintInfo.obj
 0006:00000178       $unwind$DisplayCacheSRAMType 0000000000149178     UefiShellDebug1CommandsLib:QueryTable.obj
 0006:00000178       $unwind$DisplayFirmwareCharacteristics 0000000000149178     UefiShellDebug1CommandsLib:QueryTable.obj
 0006:00000178       $unwind$DisplayMcMemorySpeeds 0000000000149178     UefiShellDebug1CommandsLib:QueryTable.obj
 0006:00000178       $unwind$DisplayMemoryDeviceMemoryOperatingModeCapability 0000000000149178     UefiShellDebug1CommandsLib:QueryTable.obj
 0006:00000178       $unwind$DisplayMemoryDeviceTypeDetail 0000000000149178     UefiShellDebug1CommandsLib:QueryTable.obj
 0006:00000178       $unwind$DisplayMmMemoryType 0000000000149178     UefiShellDebug1CommandsLib:QueryTable.obj
 0006:00000178       $unwind$DisplayProcessorCharacteristics 0000000000149178     UefiShellDebug1CommandsLib:QueryTable.obj
 0006:00000178       $unwind$IfConfigPrintMacAddr 0000000000149178     UefiShellNetwork1CommandsLib:Ifconfig.obj
 0006:00000178       $unwind$PingDestroyTxInfo  0000000000149178     UefiShellNetwork1CommandsLib:Ping.obj
 0006:00000180       $unwind$FileInterfaceStdInRead 0000000000149180     Shell:FileHandleWrappers.obj
 0006:00000188       $unwind$SwapBytes32        0000000000149188     BaseLib:SwapBytes32.obj
 0006:00000188       $unwind$CreateFileInterfaceMem 0000000000149188     Shell:FileHandleWrappers.obj
 0006:00000188       $unwind$ConvertMemoryType  0000000000149188     UefiHandleParsingLib:UefiHandleParsingLib.obj
 0006:00000188       $unwind$ConvertPixelFormat 0000000000149188     UefiHandleParsingLib:UefiHandleParsingLib.obj
 0006:00000188       $unwind$CountLen           0000000000149188     UefiShellDebug1CommandsLib:Compress.obj
 0006:00000188       $unwind$EncodeP            0000000000149188     UefiShellDebug1CommandsLib:Compress.obj
 0006:00000188       $unwind$MakeLen            0000000000149188     UefiShellDebug1CommandsLib:Compress.obj
 0006:00000188       $unwind$GetAttrType        0000000000149188     UefiShellDebug1CommandsLib:DmpStore.obj
 0006:00000190       $unwind$EfiBootManagerInitializeLoadOption 0000000000149190     UefiBootManagerLib:BmLoadOption.obj
 0006:00000190       $unwind$PopulateCommonData 0000000000149190     VariablePolicyHelperLib:VariablePolicyHelperLib.obj
 0006:00000190       $unwind$DevPathToTextEndInstance 0000000000149190     UefiDevicePathLib:DevicePathToText.obj
 0006:00000190       $unwind$FileInterfaceFileGetInfo 0000000000149190     Shell:FileHandleWrappers.obj
 0006:00000190       $unwind$FileInterfaceFileSetInfo 0000000000149190     Shell:FileHandleWrappers.obj
 0006:00000198       $unwind$BasePrintLibConvertValueToStringS 0000000000149198     BasePrintLib:PrintLibInternal.obj
 0006:00000198       $unwind$ProcessManFile     0000000000149198     Shell:ShellManParser.obj
 0006:00000198       $unwind$ProcessStatement   0000000000149198     UefiShellLevel1CommandsLib:If.obj
 0006:000001a0       $unwind$BasePrintLibFillBuffer 00000000001491a0     BasePrintLib:PrintLibInternal.obj
 0006:000001a8       $unwind$BasePrintLibSPrintMarker 00000000001491a8     BasePrintLib:PrintLibInternal.obj
 0006:000001b8       $unwind$SetMem16           00000000001491b8     BaseMemoryLib:SetMem16Wrapper.obj
 0006:000001c0       $unwind$InternalMemCopyMem 00000000001491c0     BaseMemoryLib:CopyMem.obj
 0006:000001c0       $unwind$ParseHandleDatabaseForChildDevices 00000000001491c0     UefiHandleParsingLib:UefiHandleParsingLib.obj
 0006:000001c0       $unwind$DevPathSerialIPv4  00000000001491c0     UefiShellCommandLib:ConsistMapping.obj
 0006:000001c0       $unwind$DevPathSerialUsb   00000000001491c0     UefiShellCommandLib:ConsistMapping.obj
 0006:000001c0       $unwind$HDiskImageSave     00000000001491c0     UefiShellDebug1CommandsLib:DiskImage.obj
 0006:000001c0       $unwind$PrintInterpretedExtendedCompatibilityMulticast 00000000001491c0     UefiShellDebug1CommandsLib:Pci.obj
 0006:000001c0       $unwind$GetVariableDataFromParameter 00000000001491c0     UefiShellDebug1CommandsLib:SetVar.obj
 0006:000001c0       $unwind$ParseParameterData 00000000001491c0     UefiShellDebug1CommandsLib:SetVar.obj
 0006:000001c0       $unwind$PingGenerateToken  00000000001491c0     UefiShellNetwork1CommandsLib:Ping.obj
 0006:000001c8       $unwind$DivU64x32Remainder 00000000001491c8     BaseLib:DivU64x32Remainder.obj
 0006:000001c8       $unwind$ConvertDevicePathToText 00000000001491c8     UefiDevicePathLib:UefiDevicePathLib.obj
 0006:000001c8       $unwind$CreateDeviceNode   00000000001491c8     UefiDevicePathLib:UefiDevicePathLib.obj
 0006:000001c8       $unwind$InternalIsFlag     00000000001491c8     UefiShellLib:UefiShellLib.obj
 0006:000001c8       $unwind$ShellIsHexOrDecimalNumber 00000000001491c8     UefiShellLib:UefiShellLib.obj
 0006:000001d0       $unwind$AsciiStrnLenS      00000000001491d0     BaseLib:SafeString.obj
 0006:000001d0       $unwind$SplitStr           00000000001491d0     UefiDevicePathLib:DevicePathFromText.obj
 0006:000001d0       $unwind$StrToAscii         00000000001491d0     UefiDevicePathLib:DevicePathFromText.obj
 0006:000001d0       $unwind$NetAddChecksum     00000000001491d0     DxeNetLib:NetBuffer.obj
 0006:000001d0       $unwind$DevPathCompareAcpi 00000000001491d0     UefiShellCommandLib:ConsistMapping.obj
 0006:000001d0       $unwind$LineDeleteAt       00000000001491d0     UefiShellDebug1CommandsLib:FileBuffer.obj
 0006:000001d0       $unwind$IsNumberLetterOnly 00000000001491d0     UefiShellLevel2CommandsLib:Map.obj
 0006:000001d0       $unwind$RttTimerTickRoutine 00000000001491d0     UefiShellNetwork1CommandsLib:Ping.obj
 0006:000001d8       $unwind$DevPathFromTextGenericPath 00000000001491d8     UefiDevicePathLib:DevicePathFromText.obj
 0006:000001d8       $unwind$HFileImageRead     00000000001491d8     UefiShellDebug1CommandsLib:FileImage.obj
 0006:000001d8       $unwind$PciPrintClassCode  00000000001491d8     UefiShellDebug1CommandsLib:Pci.obj
 0006:000001d8       $unwind$DisplayElVdfInfo   00000000001491d8     UefiShellDebug1CommandsLib:EventLogInfo.obj
 0006:000001d8       $unwind$DisplaySPSCharacteristics 00000000001491d8     UefiShellDebug1CommandsLib:PrintInfo.obj
 0006:000001d8       $unwind$Smbios64BitPrintEPSInfo 00000000001491d8     UefiShellDebug1CommandsLib:PrintInfo.obj
 0006:000001d8       $unwind$SmbiosPrintEPSInfo 00000000001491d8     UefiShellDebug1CommandsLib:PrintInfo.obj
 0006:000001e0       $unwind$ConvertFromTextVendor 00000000001491e0     UefiDevicePathLib:DevicePathFromText.obj
 0006:000001e0       $unwind$ConvertDevicePathToShortText 00000000001491e0     UefiHandleParsingLib:UefiHandleParsingLib.obj
 0006:000001e0       $unwind$AddMemoryLength    00000000001491e0     UefiShellDebug1CommandsLib:MemMap.obj
 0006:000001e0       $unwind$DisplaySystemSlotId 00000000001491e0     UefiShellDebug1CommandsLib:PrintInfo.obj
 0006:000001e8       $unwind$HiiGetStringEx     00000000001491e8     UefiHiiLib:HiiString.obj
 0006:000001e8       $unwind$DevPathToTextVendor 00000000001491e8     UefiDevicePathLib:DevicePathToText.obj
 0006:000001e8       $unwind$EfiOpenFileByDevicePath 00000000001491e8     UefiLib:UefiLib.obj
 0006:000001e8       $unwind$ParseHandleDatabaseByRelationshipWithType 00000000001491e8     UefiHandleParsingLib:UefiHandleParsingLib.obj
 0006:000001e8       $unwind$BcfgMove           00000000001491e8     UefiShellBcfgCommandLib:UefiShellBcfgCommandLib.obj
 0006:000001e8       $unwind$UpdateOptionalData 00000000001491e8     UefiShellBcfgCommandLib:UefiShellBcfgCommandLib.obj
 0006:000001e8       $unwind$DoDevTreeForHandle 00000000001491e8     UefiShellDriver1CommandsLib:DevTree.obj
 0006:000001e8       $unwind$InternalCommandLineParse 00000000001491e8     UefiShellLib:UefiShellLib.obj
 0006:000001f0       $unwind$DevPathToTextNVMe  00000000001491f0     UefiDevicePathLib:DevicePathToText.obj
 0006:000001fc       $unwind$CatIPv6Address     00000000001491fc     UefiDevicePathLib:DevicePathToText.obj
 0006:00000214       $unwind$DevPathToTextBluetoothLE 0000000000149214     UefiDevicePathLib:DevicePathToText.obj
 0006:0000021c       $unwind$UefiDevicePathLibConvertDevicePathToText 000000000014921c     UefiDevicePathLib:DevicePathToText.obj
 0006:0000021c       $unwind$DevicePathProtocolDumpInformationEx 000000000014921c     UefiHandleParsingLib:UefiHandleParsingLib.obj
 0006:0000021c       $unwind$TypeFileByHandle   000000000014921c     UefiShellLevel3CommandsLib:Type.obj
 0006:0000021c       $unwind$ShellPromptForResponse 000000000014921c     UefiShellLib:UefiShellLib.obj
 0006:00000224       $unwind$InternalReallocatePool 0000000000149224     UefiMemoryAllocationLib:MemoryAllocationLib.obj
 0006:00000224       $unwind$MakeTree           0000000000149224     UefiShellDebug1CommandsLib:Compress.obj
 0006:00000224       $unwind$InternalShellIsHexOrDecimalNumber 0000000000149224     UefiShellLib:UefiShellLib.obj
 0006:00000224       $unwind$ShellPromptForResponseHii 0000000000149224     UefiShellLib:UefiShellLib.obj
 0006:0000022c       $unwind$DebugPrintMarker   000000000014922c     PeiDxeDebugLibReportStatusCode:DebugLib.obj
 0006:00000234       $unwind$DebugAssert        0000000000149234     PeiDxeDebugLibReportStatusCode:DebugLib.obj
 0006:0000023c       $unwind$ReportDebugCodeEnabled 000000000014923c     DxeReportStatusCodeLib:ReportStatusCodeLib.obj
 0006:0000023c       $unwind$ReportErrorCodeEnabled 000000000014923c     DxeReportStatusCodeLib:ReportStatusCodeLib.obj
 0006:0000023c       $unwind$ReportProgressCodeEnabled 000000000014923c     DxeReportStatusCodeLib:ReportStatusCodeLib.obj
 0006:0000023c       $unwind$DebugAssertEnabled 000000000014923c     PeiDxeDebugLibReportStatusCode:DebugLib.obj
 0006:0000023c       $unwind$DebugCodeEnabled   000000000014923c     PeiDxeDebugLibReportStatusCode:DebugLib.obj
 0006:0000023c       $unwind$DebugPrintEnabled  000000000014923c     PeiDxeDebugLibReportStatusCode:DebugLib.obj
 0006:0000023c       $unwind$MakeCrcTable       000000000014923c     UefiShellDebug1CommandsLib:Compress.obj
 0006:00000244       $unwind$TdIoWrite32        0000000000149244     BaseIoLibIntrinsic:IoLibInternalTdxNull.obj
 0006:00000244       $unwind$TdIoWrite8         0000000000149244     BaseIoLibIntrinsic:IoLibInternalTdxNull.obj
 0006:00000244       $unwind$TdMmioWrite32      0000000000149244     BaseIoLibIntrinsic:IoLibInternalTdxNull.obj
 0006:00000244       $unwind$TdMmioWrite8       0000000000149244     BaseIoLibIntrinsic:IoLibInternalTdxNull.obj
 0006:00000244       $unwind$DivU64x32          0000000000149244     BaseLib:DivU64x32.obj
 0006:00000244       $unwind$ModU64x32          0000000000149244     BaseLib:ModU64x32.obj
 0006:00000244       $unwind$WriteUnaligned32   0000000000149244     BaseLib:Unaligned.obj
 0006:00000244       $unwind$DevicePathProtocolDumpInformation 0000000000149244     UefiHandleParsingLib:UefiHandleParsingLib.obj
 0006:00000244       $unwind$LoadedImageDevicePathProtocolDumpInformation 0000000000149244     UefiHandleParsingLib:UefiHandleParsingLib.obj
 0006:00000244       $unwind$PciGetClassStrings 0000000000149244     UefiShellDebug1CommandsLib:Pci.obj
 0006:00000244       $unwind$NetChecksum        0000000000149244     UefiShellNetwork1CommandsLib:Ping.obj
 0006:0000024c       $unwind$InternalMathDivU64x32 000000000014924c     BaseLib:Math64.obj
 0006:0000024c       $unwind$InternalMathModU64x32 000000000014924c     BaseLib:Math64.obj
 0006:0000024c       $unwind$ShellCommandRegisterExit 000000000014924c     UefiShellCommandLib:UefiShellCommandLib.obj
 0006:0000024c       $unwind$Child              000000000014924c     UefiShellDebug1CommandsLib:Compress.obj
 0006:0000024c       $unwind$FreadCrc           000000000014924c     UefiShellDebug1CommandsLib:Compress.obj
 0006:0000024c       $unwind$LocatePciCapability 000000000014924c     UefiShellDebug1CommandsLib:Pci.obj
 0006:00000254       $unwind$InternalMathDivRemU64x32 0000000000149254     BaseLib:Math64.obj
 0006:00000254       $unwind$GetNewLine         0000000000149254     UefiShellDebug1CommandsLib:FileBuffer.obj
 0006:0000025c       $unwind$EncodeC            000000000014925c     UefiShellDebug1CommandsLib:Compress.obj
 0006:0000025c       $unwind$PerformResultOperation 000000000014925c     UefiShellLevel1CommandsLib:If.obj
 0006:0000025c       $unwind$ShellSetPageBreakMode 000000000014925c     UefiShellLib:UefiShellLib.obj
 0006:00000264       $unwind$InternalShellPrintWorker 0000000000149264     UefiShellLib:UefiShellLib.obj
 0006:0000026c       $unwind$InternalReportStatusCode 000000000014926c     DxeReportStatusCodeLib:ReportStatusCodeLib.obj
 0006:0000026c       $unwind$ShellPrintEx       000000000014926c     UefiShellLib:UefiShellLib.obj
 0006:00000274       $unwind$DoDhForHandleList  0000000000149274     UefiShellDriver1CommandsLib:Dh.obj
 0006:00000274       $unwind$ShellPrintHiiEx    0000000000149274     UefiShellLib:UefiShellLib.obj
 0006:0000027c       $unwind$LoadedImageProtocolDumpInformation 000000000014927c     UefiHandleParsingLib:UefiHandleParsingLib.obj
 0006:00000284       $unwind$GraphicsOutputProtocolDumpInformation 0000000000149284     UefiHandleParsingLib:UefiHandleParsingLib.obj
 0006:00000294       $unwind$DebugSupportProtocolDumpInformation 0000000000149294     UefiHandleParsingLib:UefiHandleParsingLib.obj
 0006:00000294       $unwind$EdidActiveProtocolDumpInformation 0000000000149294     UefiHandleParsingLib:UefiHandleParsingLib.obj
 0006:00000294       $unwind$EdidDiscoveredProtocolDumpInformation 0000000000149294     UefiHandleParsingLib:UefiHandleParsingLib.obj
 0006:00000294       $unwind$PartitionInfoProtocolDumpInformation 0000000000149294     UefiHandleParsingLib:UefiHandleParsingLib.obj
 0006:00000294       $unwind$UsbIoProtocolDumpInformation 0000000000149294     UefiHandleParsingLib:UefiHandleParsingLib.obj
 0006:00000294       $unwind$DisplaySBDSManufactureDate 0000000000149294     UefiShellDebug1CommandsLib:PrintInfo.obj
 0006:00000294       $unwind$LoadDriver         0000000000149294     UefiShellLevel2CommandsLib:Load.obj
 0006:0000029c       $unwind$BusSpecificDriverOverrideProtocolDumpInformation 000000000014929c     UefiHandleParsingLib:UefiHandleParsingLib.obj
 0006:0000029c       $unwind$PciRootBridgeIoDumpInformation 000000000014929c     UefiHandleParsingLib:UefiHandleParsingLib.obj
 0006:0000029c       $unwind$CascadeDelete      000000000014929c     UefiShellLevel2CommandsLib:Rm.obj
 0006:000002a4       $unwind$BlockIoProtocolDumpInformation 00000000001492a4     UefiHandleParsingLib:UefiHandleParsingLib.obj
 0006:000002a4       $unwind$TxtOutProtocolDumpInformation 00000000001492a4     UefiHandleParsingLib:UefiHandleParsingLib.obj
 0006:000002ac       $unwind$PciIoProtocolDumpInformation 00000000001492ac     UefiHandleParsingLib:UefiHandleParsingLib.obj
 0006:000002b4       $unwind$AdapterInformationDumpInformation 00000000001492b4     UefiHandleParsingLib:UefiHandleParsingLib.obj
 0006:000002c0       $unwind$FirmwareManagementDumpInformation 00000000001492c0     UefiHandleParsingLib:UefiHandleParsingLib.obj
 0006:000002d8       $unwind$OrderedCollectionDelete 00000000001492d8     BaseOrderedCollectionRedBlackTreeLib:BaseOrderedCollectionRedBlackTreeLib.obj
 0006:000002d8       $unwind$NetLibDetectMediaWaitTimeout 00000000001492d8     DxeNetLib:DxeNetLib.obj
 0006:000002d8       $unwind$ParseHandleDatabaseForChildControllers 00000000001492d8     UefiHandleParsingLib:UefiHandleParsingLib.obj
 0006:000002d8       $unwind$DisplayTheBlocks   00000000001492d8     UefiShellDebug1CommandsLib:Dblk.obj
 0006:000002d8       $unwind$FindHiiHandleViaDevPath 00000000001492d8     UefiShellDriver1CommandsLib:DrvCfg.obj
 0006:000002d8       $unwind$CheckAndSetTime    00000000001492d8     UefiShellLevel2CommandsLib:TimeDate.obj
 0006:000002e0       $unwind$ShellCommandCreateNewMappingName 00000000001492e0     UefiShellCommandLib:UefiShellCommandLib.obj
 0006:000002e8       $unwind$DumpHex            00000000001492e8     UefiShellCommandLib:UefiShellCommandLib.obj
 0006:000002e8       $unwind$CascadeProcessVariables 00000000001492e8     UefiShellDebug1CommandsLib:DmpStore.obj
 0006:000002e8       $unwind$CopySingleFile     00000000001492e8     UefiShellLevel2CommandsLib:Cp.obj
 0006:000002f0       $unwind$BcfgDisplayDump    00000000001492f0     UefiShellBcfgCommandLib:UefiShellBcfgCommandLib.obj
 0006:000002f0       $unwind$CatSDumpHex        00000000001492f0     UefiShellCommandLib:UefiShellCommandLib.obj
 0006:000002f0       $unwind$LoadVariablesFromFile 00000000001492f0     UefiShellDebug1CommandsLib:DmpStore.obj
 0006:000002f8       $unwind$ShellSortFileList  00000000001492f8     UefiShellCommandLib:UefiShellCommandLib.obj
 0006:00000300       $unwind$AppendCSDGuid      0000000000149300     UefiShellCommandLib:ConsistMapping.obj
 0006:00000300       $unwind$ShellCommandRunHexEdit 0000000000149300     UefiShellDebug1CommandsLib:HexEdit.obj
 0006:00000300       $unwind$ShellCommandRunConnect 0000000000149300     UefiShellDriver1CommandsLib:Connect.obj
 0006:00000300       $unwind$ConfigFromFile     0000000000149300     UefiShellDriver1CommandsLib:DrvCfg.obj
 0006:00000300       $unwind$ShellCommandRunCp  0000000000149300     UefiShellLevel2CommandsLib:Cp.obj
 0006:00000300       $unwind$ShellCommandRunMap 0000000000149300     UefiShellLevel2CommandsLib:Map.obj
 0006:00000300       $unwind$ShellCommandRunTimeZone 0000000000149300     UefiShellLevel2CommandsLib:TimeDate.obj
 0006:00000300       $unwind$ShellCommandRunCls 0000000000149300     UefiShellLevel3CommandsLib:Cls.obj
 0006:00000300       $unwind$ShellCommandRunHelp 0000000000149300     UefiShellLevel3CommandsLib:Help.obj
 0006:00000300       $unwind$Ping6OnEchoReplyReceived 0000000000149300     UefiShellNetwork1CommandsLib:Ping.obj
 0006:00000300       $unwind$ShellCommandRunPing 0000000000149300     UefiShellNetwork1CommandsLib:Ping.obj
 0006:00000308       $unwind$DevPathSerialIPv6  0000000000149308     UefiShellCommandLib:ConsistMapping.obj
 0006:00000308       $unwind$DevPathSerialInfiniBand 0000000000149308     UefiShellCommandLib:ConsistMapping.obj
 0006:00000308       $unwind$DevPathSerialMacAddr 0000000000149308     UefiShellCommandLib:ConsistMapping.obj
 0006:00000310       $unwind$ShellCommandRunEfiDecompress 0000000000149310     UefiShellDebug1CommandsLib:EfiDecompress.obj
 0006:00000310       $unwind$ShellCommandRunSerMode 0000000000149310     UefiShellDebug1CommandsLib:SerMode.obj
 0006:00000310       $unwind$ShellCommandRunAttrib 0000000000149310     UefiShellLevel2CommandsLib:Attrib.obj
 0006:00000310       $unwind$ShellCommandRunTime 0000000000149310     UefiShellLevel2CommandsLib:TimeDate.obj
 0006:00000318       $unwind$ShellCommandRunEfiCompress 0000000000149318     UefiShellDebug1CommandsLib:EfiCompress.obj
 0006:00000318       $unwind$ShellCommandRunMm  0000000000149318     UefiShellDebug1CommandsLib:Mm.obj
 0006:00000318       $unwind$ShellCommandRunDisconnect 0000000000149318     UefiShellDriver1CommandsLib:Disconnect.obj
 0006:00000318       $unwind$ShellCommandRunCd  0000000000149318     UefiShellLevel2CommandsLib:Cd.obj
 0006:00000320       $unwind$PrintFileInformation 0000000000149320     UefiShellLevel2CommandsLib:Ls.obj
 0006:00000338       $unwind$ShellMmAccess      0000000000149338     UefiShellDebug1CommandsLib:Mm.obj
 0006:00000338       $unwind$PrintLsOutput      0000000000149338     UefiShellLevel2CommandsLib:Ls.obj
 0006:00000340       $unwind$ShellCommandRunDrvCfg 0000000000149340     UefiShellDriver1CommandsLib:DrvCfg.obj
 0006:00000340       $unwind$ShellCommandRunFor 0000000000149340     UefiShellLevel1CommandsLib:For.obj
 0006:00000340       $unwind$ShellCommandRunLs  0000000000149340     UefiShellLevel2CommandsLib:Ls.obj
 0006:00000348       $unwind$PerformSingleMappingDisplay 0000000000149348     UefiShellLevel2CommandsLib:Map.obj
 0006:00000350       $unwind$PerformMappingDisplay 0000000000149350     UefiShellLevel2CommandsLib:Map.obj
 0006:00000358       $unwind$PerformMappingDisplay2 0000000000149358     UefiShellLevel2CommandsLib:Map.obj
 0006:00000360       $unwind$HandleVol          0000000000149360     UefiShellLevel2CommandsLib:Vol.obj
 0006:00000368       $unwind$ValidateAndMoveFiles 0000000000149368     UefiShellLevel2CommandsLib:Mv.obj
 0006:00000370       $unwind$ShellCommandRunDmpStore 0000000000149370     UefiShellDebug1CommandsLib:DmpStore.obj
 0006:00000370       $unwind$ShellCommandRunMode 0000000000149370     UefiShellDebug1CommandsLib:Mode.obj
 0006:00000370       $unwind$ShellCommandRunSetVar 0000000000149370     UefiShellDebug1CommandsLib:SetVar.obj
 0006:00000370       $unwind$ShellCommandRunDevTree 0000000000149370     UefiShellDriver1CommandsLib:DevTree.obj
 0006:00000370       $unwind$ShellCommandRunDrvDiag 0000000000149370     UefiShellDriver1CommandsLib:DrvDiag.obj
 0006:00000370       $unwind$ShellCommandRunMv  0000000000149370     UefiShellLevel2CommandsLib:Mv.obj
 0006:00000370       $unwind$IfConfigSetInterfaceInfo 0000000000149370     UefiShellNetwork1CommandsLib:Ifconfig.obj
 0006:00000378       $unwind$ShellCommandRunDevices 0000000000149378     UefiShellDriver1CommandsLib:Devices.obj
 0006:00000380       $unwind$EfiBootManagerLoadOptionToVariable 0000000000149380     UefiBootManagerLib:BmLoadOption.obj
 0006:00000380       $unwind$TraverseHandleDatabase 0000000000149380     UefiShellDriver1CommandsLib:OpenInfo.obj
 0006:00000388       $unwind$ShellCommandRunDrivers 0000000000149388     UefiShellDriver1CommandsLib:Drivers.obj
 0006:00000390       $unwind$DoDiagnostics      0000000000149390     UefiShellDriver1CommandsLib:DrvDiag.obj
 0006:00000398       $unwind$BcfgAddOpt         0000000000149398     UefiShellBcfgCommandLib:UefiShellBcfgCommandLib.obj
 0006:00000398       $unwind$GetProtocolInfoString 0000000000149398     UefiShellDriver1CommandsLib:Dh.obj
 0006:000003a0       $unwind$DisplayDriverModelHandle 00000000001493a0     UefiShellDriver1CommandsLib:Dh.obj
 0006:000003a8       $unwind$StatusBarRefresh   00000000001493a8     UefiShellDebug1CommandsLib:EditStatusBar.obj
 0006:000003a8       $unwind$DoDhByProtocol     00000000001493a8     UefiShellDriver1CommandsLib:Dh.obj
 0006:000003a8       $unwind$DoDhByProtocolGuid 00000000001493a8     UefiShellDriver1CommandsLib:Dh.obj
 0006:000003b0       $unwind$PreHiiDrvCfg       00000000001493b0     UefiShellDriver1CommandsLib:DrvCfg.obj
 0006:000003b8       $unwind$PrintConfigInfoOnAll 00000000001493b8     UefiShellDriver1CommandsLib:DrvCfg.obj
 0006:000003c0       $unwind$EditorClearLine    00000000001493c0     UefiShellDebug1CommandsLib:UefiShellDebug1CommandsLib.obj
 0006:000003c8       $unwind$ShellCommandRunDmem 00000000001493c8     UefiShellDebug1CommandsLib:Dmem.obj
 0006:000003d0       $unwind$ShellCommandRunPci 00000000001493d0     UefiShellDebug1CommandsLib:Pci.obj
 0006:000003dc       $unwind$PciFindProtocolInterface 00000000001493dc     UefiShellDebug1CommandsLib:Pci.obj
 0006:000003e4       $unwind$GetDevicePathByHandle 00000000001493e4     UefiShellBcfgCommandLib:UefiShellBcfgCommandLib.obj
 0006:000003e4       $unwind$PciExplainStatus   00000000001493e4     UefiShellDebug1CommandsLib:Pci.obj
 0006:000003ec       $unwind$PrintInterpretedExtendedCompatibilityAer 00000000001493ec     UefiShellDebug1CommandsLib:Pci.obj
 0006:000003fc       $unwind$PciExplainPciExpress 00000000001493fc     UefiShellDebug1CommandsLib:Pci.obj
 0006:00000404       $unwind$ShellCommandRunMemMap 0000000000149404     UefiShellDebug1CommandsLib:MemMap.obj
 0006:0000040c       $unwind$DisplaySettings    000000000014940c     UefiShellDebug1CommandsLib:SerMode.obj
 0006:00000414       $unwind$ShellMmDecodePciAddress 0000000000149414     UefiShellDebug1CommandsLib:Mm.obj
 0006:0000041c       $unwind$ShellMmLocateIoProtocol 000000000014941c     UefiShellDebug1CommandsLib:Mm.obj
 0006:00000424       $unwind$ShellCommandRunComp 0000000000149424     UefiShellDebug1CommandsLib:Comp.obj
 0006:0000042c       $unwind$NetGetMaskLength   000000000014942c     DxeNetLib:DxeNetLib.obj
 0006:0000042c       $unwind$DownHeap           000000000014942c     UefiShellDebug1CommandsLib:Compress.obj
 0006:0000042c       $unwind$GetTextX           000000000014942c     UefiShellDebug1CommandsLib:MainTextEditor.obj
 0006:0000042c       $unwind$GetTextY           000000000014942c     UefiShellDebug1CommandsLib:MainTextEditor.obj
 0006:0000042c       $unwind$HGetTextX          000000000014942c     UefiShellDebug1CommandsLib:Misc.obj
 0006:0000042c       $unwind$HGetTextY          000000000014942c     UefiShellDebug1CommandsLib:Misc.obj
 0006:0000042c       $unwind$GetShowTypeString  000000000014942c     UefiShellDebug1CommandsLib:SmbiosView.obj
 0006:00000434       $unwind$LoadEfiDriversFromRomImage 0000000000149434     UefiShellDebug1CommandsLib:LoadPciRom.obj
 0006:0000043c       $unwind$HMainCommandSaveBuffer 000000000014943c     UefiShellDebug1CommandsLib:MainHexEditor.obj
 0006:00000444       $unwind$HMainCommandOpenFile 0000000000149444     UefiShellDebug1CommandsLib:MainHexEditor.obj
 0006:0000044c       $unwind$HMainCommandOpenDisk 000000000014944c     UefiShellDebug1CommandsLib:MainHexEditor.obj
 0006:0000044c       $unwind$HMainCommandOpenMemory 000000000014944c     UefiShellDebug1CommandsLib:MainHexEditor.obj
 0006:0000044c       $unwind$HMainEditorKeyInput 000000000014944c     UefiShellDebug1CommandsLib:MainHexEditor.obj
 0006:00000454       $unwind$EfiBootManagerVariableToLoadOptionEx 0000000000149454     UefiBootManagerLib:BmLoadOption.obj
 0006:00000454       $unwind$FileBufferReplaceAll 0000000000149454     UefiShellDebug1CommandsLib:FileBuffer.obj
 0006:00000454       $unwind$HBufferImageAddCharacterToBuffer 0000000000149454     UefiShellDebug1CommandsLib:BufferImage.obj
 0006:00000454       $unwind$HBufferImageDeleteCharacterFromBuffer 0000000000149454     UefiShellDebug1CommandsLib:BufferImage.obj
 0006:0000045c       $unwind$CompressOutput     000000000014945c     UefiShellDebug1CommandsLib:Compress.obj
 0006:0000045c       $unwind$HBufferImageAdjustMousePosition 000000000014945c     UefiShellDebug1CommandsLib:BufferImage.obj
 0006:00000464       $unwind$MakeChild          0000000000149464     UefiShellDebug1CommandsLib:Compress.obj
 0006:00000464       $unwind$UnicodeToAscii     0000000000149464     UefiShellDebug1CommandsLib:FileBuffer.obj
 0006:0000046c       $unwind$PutBits            000000000014946c     UefiShellDebug1CommandsLib:Compress.obj
 0006:00000474       $unwind$WritePTLen         0000000000149474     UefiShellDebug1CommandsLib:Compress.obj
 0006:0000047c       $unwind$SmbiosPrintStructure 000000000014947c     UefiShellDebug1CommandsLib:PrintInfo.obj
 0006:00000484       $unwind$NetIp4IsUnicast    0000000000149484     DxeNetLib:DxeNetLib.obj
 0006:00000484       $unwind$FileBufferAdjustMousePosition 0000000000149484     UefiShellDebug1CommandsLib:FileBuffer.obj
 0006:00000484       $unwind$DisplaySELLogHeaderLen 0000000000149484     UefiShellDebug1CommandsLib:EventLogInfo.obj
 0006:00000484       $unwind$DisplaySELLogStatus 0000000000149484     UefiShellDebug1CommandsLib:EventLogInfo.obj
 0006:00000484       $unwind$DisplaySysEventLogHeaderFormat 0000000000149484     UefiShellDebug1CommandsLib:EventLogInfo.obj
 0006:00000484       $unwind$DisplayBiosCharacteristicsExt1 0000000000149484     UefiShellDebug1CommandsLib:PrintInfo.obj
 0006:00000484       $unwind$DisplayBiosCharacteristicsExt2 0000000000149484     UefiShellDebug1CommandsLib:PrintInfo.obj
 0006:00000484       $unwind$DisplayOBRAConnections 0000000000149484     UefiShellDebug1CommandsLib:PrintInfo.obj
 0006:00000484       $unwind$DisplayProcessorVoltage 0000000000149484     UefiShellDebug1CommandsLib:PrintInfo.obj
 0006:00000484       $unwind$DisplaySystemBootStatus 0000000000149484     UefiShellDebug1CommandsLib:PrintInfo.obj
 0006:0000048c       $unwind$DisplaySELAccessMethod 000000000014948c     UefiShellDebug1CommandsLib:EventLogInfo.obj
 0006:0000048c       $unwind$DisplayMmMemorySize 000000000014948c     UefiShellDebug1CommandsLib:PrintInfo.obj
 0006:0000048c       $unwind$DisplayProcessorFamily 000000000014948c     UefiShellDebug1CommandsLib:PrintInfo.obj
 0006:0000048c       $unwind$DisplayProcessorStatus 000000000014948c     UefiShellDebug1CommandsLib:PrintInfo.obj
 0006:0000048c       $unwind$DisplayBaseBoardFeatureFlags 000000000014948c     UefiShellDebug1CommandsLib:QueryTable.obj
 0006:0000048c       $unwind$DisplayMcErrorCorrectCapability 000000000014948c     UefiShellDebug1CommandsLib:QueryTable.obj
 0006:0000048c       $unwind$DisplayMemoryModuleVoltage 000000000014948c     UefiShellDebug1CommandsLib:QueryTable.obj
 0006:0000048c       $unwind$DisplayMmErrorStatus 000000000014948c     UefiShellDebug1CommandsLib:QueryTable.obj
 0006:0000048c       $unwind$DisplayPostResultsBitmapDw1 000000000014948c     UefiShellDebug1CommandsLib:QueryTable.obj
 0006:0000048c       $unwind$DisplayPostResultsBitmapDw2 000000000014948c     UefiShellDebug1CommandsLib:QueryTable.obj
 0006:0000048c       $unwind$DisplaySlotCharacteristics1 000000000014948c     UefiShellDebug1CommandsLib:QueryTable.obj
 0006:0000048c       $unwind$DisplaySlotCharacteristics2 000000000014948c     UefiShellDebug1CommandsLib:QueryTable.obj
 0006:00000494       $unwind$DisplayMaxMemoryModuleSize 0000000000149494     UefiShellDebug1CommandsLib:PrintInfo.obj
 0006:0000049c       $unwind$DisplayMemoryModuleConfigHandles 000000000014949c     UefiShellDebug1CommandsLib:PrintInfo.obj
 0006:000004a4       $unwind$DisplayHardwareSecuritySettings 00000000001494a4     UefiShellDebug1CommandsLib:PrintInfo.obj
 0006:000004a4       $unwind$DisplayMmBankConnections 00000000001494a4     UefiShellDebug1CommandsLib:PrintInfo.obj
 0006:000004ac       $unwind$DisplaySystemResetCapabilities 00000000001494ac     UefiShellDebug1CommandsLib:PrintInfo.obj
 0006:000004b4       $unwind$FileBufferRead     00000000001494b4     UefiShellDebug1CommandsLib:FileBuffer.obj
 0006:000004bc       $unwind$FileBufferSave     00000000001494bc     UefiShellDebug1CommandsLib:FileBuffer.obj
 0006:000004c4       $unwind$DisplayBaseBoardBoardType 00000000001494c4     UefiShellDebug1CommandsLib:QueryTable.obj
 0006:000004c4       $unwind$DisplayCacheAssociativity 00000000001494c4     UefiShellDebug1CommandsLib:QueryTable.obj
 0006:000004c4       $unwind$DisplayCacheErrCorrectingType 00000000001494c4     UefiShellDebug1CommandsLib:QueryTable.obj
 0006:000004c4       $unwind$DisplayCacheSystemCacheType 00000000001494c4     UefiShellDebug1CommandsLib:QueryTable.obj
 0006:000004c4       $unwind$DisplayCoolingDeviceStatus 00000000001494c4     UefiShellDebug1CommandsLib:QueryTable.obj
 0006:000004c4       $unwind$DisplayCoolingDeviceType 00000000001494c4     UefiShellDebug1CommandsLib:QueryTable.obj
 0006:000004c4       $unwind$DisplayECPLoc      00000000001494c4     UefiShellDebug1CommandsLib:QueryTable.obj
 0006:000004c4       $unwind$DisplayECPStatus   00000000001494c4     UefiShellDebug1CommandsLib:QueryTable.obj
 0006:000004c4       $unwind$DisplayFirmwareState 00000000001494c4     UefiShellDebug1CommandsLib:QueryTable.obj
 0006:000004c4       $unwind$DisplayIPMIDIBMCInterfaceType 00000000001494c4     UefiShellDebug1CommandsLib:QueryTable.obj
 0006:000004c4       $unwind$DisplayMCHostInterfaceType 00000000001494c4     UefiShellDebug1CommandsLib:QueryTable.obj
 0006:000004c4       $unwind$DisplayMDAddressType 00000000001494c4     UefiShellDebug1CommandsLib:QueryTable.obj
 0006:000004c4       $unwind$DisplayMDType      00000000001494c4     UefiShellDebug1CommandsLib:QueryTable.obj
 0006:000004c4       $unwind$DisplayMcErrorDetectMethod 00000000001494c4     UefiShellDebug1CommandsLib:QueryTable.obj
 0006:000004c4       $unwind$DisplayMcInterleaveSupport 00000000001494c4     UefiShellDebug1CommandsLib:QueryTable.obj
 0006:000004c4       $unwind$DisplayMemoryChannelType 00000000001494c4     UefiShellDebug1CommandsLib:QueryTable.obj
 0006:000004c4       $unwind$DisplayMemoryDeviceFormFactor 00000000001494c4     UefiShellDebug1CommandsLib:QueryTable.obj
 0006:000004c4       $unwind$DisplayMemoryDeviceMemoryTechnology 00000000001494c4     UefiShellDebug1CommandsLib:QueryTable.obj
 0006:000004c4       $unwind$DisplayMemoryDeviceType 00000000001494c4     UefiShellDebug1CommandsLib:QueryTable.obj
 0006:000004c4       $unwind$DisplayMemoryErrorGranularity 00000000001494c4     UefiShellDebug1CommandsLib:QueryTable.obj
 0006:000004c4       $unwind$DisplayMemoryErrorOperation 00000000001494c4     UefiShellDebug1CommandsLib:QueryTable.obj
 0006:000004c4       $unwind$DisplayMemoryErrorType 00000000001494c4     UefiShellDebug1CommandsLib:QueryTable.obj
 0006:000004c4       $unwind$DisplayOnboardDeviceTypes 00000000001494c4     UefiShellDebug1CommandsLib:QueryTable.obj
 0006:000004c4       $unwind$DisplayPBDeviceChemistry 00000000001494c4     UefiShellDebug1CommandsLib:QueryTable.obj
 0006:000004c4       $unwind$DisplayPMAErrorCorrectionTypes 00000000001494c4     UefiShellDebug1CommandsLib:QueryTable.obj
 0006:000004c4       $unwind$DisplayPMALocation 00000000001494c4     UefiShellDebug1CommandsLib:QueryTable.obj
 0006:000004c4       $unwind$DisplayPMAUse      00000000001494c4     UefiShellDebug1CommandsLib:QueryTable.obj
 0006:000004c4       $unwind$DisplayPointingDeviceInterface 00000000001494c4     UefiShellDebug1CommandsLib:QueryTable.obj
 0006:000004c4       $unwind$DisplayPointingDeviceType 00000000001494c4     UefiShellDebug1CommandsLib:QueryTable.obj
 0006:000004c4       $unwind$DisplayPortConnectorType 00000000001494c4     UefiShellDebug1CommandsLib:QueryTable.obj
 0006:000004c4       $unwind$DisplayPortType    00000000001494c4     UefiShellDebug1CommandsLib:QueryTable.obj
 0006:000004c4       $unwind$DisplayProcessorArchitectureType 00000000001494c4     UefiShellDebug1CommandsLib:QueryTable.obj
 0006:000004c4       $unwind$DisplayProcessorType 00000000001494c4     UefiShellDebug1CommandsLib:QueryTable.obj
 0006:000004c4       $unwind$DisplayProcessorUpgrade 00000000001494c4     UefiShellDebug1CommandsLib:QueryTable.obj
 0006:000004c4       $unwind$DisplaySELSysManagementTypes 00000000001494c4     UefiShellDebug1CommandsLib:QueryTable.obj
 0006:000004c4       $unwind$DisplaySELTypes    00000000001494c4     UefiShellDebug1CommandsLib:QueryTable.obj
 0006:000004c4       $unwind$DisplaySELVarDataFormatType 00000000001494c4     UefiShellDebug1CommandsLib:QueryTable.obj
 0006:000004c4       $unwind$DisplaySESecurityStatus 00000000001494c4     UefiShellDebug1CommandsLib:QueryTable.obj
 0006:000004c4       $unwind$DisplayStructureTypeInfo 00000000001494c4     UefiShellDebug1CommandsLib:QueryTable.obj
 0006:000004c4       $unwind$DisplaySystemEnclosureStatus 00000000001494c4     UefiShellDebug1CommandsLib:QueryTable.obj
 0006:000004c4       $unwind$DisplaySystemEnclosureType 00000000001494c4     UefiShellDebug1CommandsLib:QueryTable.obj
 0006:000004c4       $unwind$DisplaySystemSlotCurrentUsage 00000000001494c4     UefiShellDebug1CommandsLib:QueryTable.obj
 0006:000004c4       $unwind$DisplaySystemSlotDataBusWidth 00000000001494c4     UefiShellDebug1CommandsLib:QueryTable.obj
 0006:000004c4       $unwind$DisplaySystemSlotHeight 00000000001494c4     UefiShellDebug1CommandsLib:QueryTable.obj
 0006:000004c4       $unwind$DisplaySystemSlotInformation 00000000001494c4     UefiShellDebug1CommandsLib:QueryTable.obj
 0006:000004c4       $unwind$DisplaySystemSlotLength 00000000001494c4     UefiShellDebug1CommandsLib:QueryTable.obj
 0006:000004c4       $unwind$DisplaySystemSlotPhysicalWidth 00000000001494c4     UefiShellDebug1CommandsLib:QueryTable.obj
 0006:000004c4       $unwind$DisplaySystemSlotType 00000000001494c4     UefiShellDebug1CommandsLib:QueryTable.obj
 0006:000004c4       $unwind$DisplaySystemWakeupType 00000000001494c4     UefiShellDebug1CommandsLib:QueryTable.obj
 0006:000004c4       $unwind$DisplayTemperatureProbeLoc 00000000001494c4     UefiShellDebug1CommandsLib:QueryTable.obj
 0006:000004c4       $unwind$DisplayTemperatureProbeStatus 00000000001494c4     UefiShellDebug1CommandsLib:QueryTable.obj
 0006:000004c4       $unwind$DisplayVPLocation  00000000001494c4     UefiShellDebug1CommandsLib:QueryTable.obj
 0006:000004c4       $unwind$DisplayVPStatus    00000000001494c4     UefiShellDebug1CommandsLib:QueryTable.obj
 0006:000004cc       $unwind$PingCreateIpInstance 00000000001494cc     UefiShellNetwork1CommandsLib:Ping.obj
 0006:000004d4       $unwind$ShellPing          00000000001494d4     UefiShellNetwork1CommandsLib:Ping.obj
 0006:000004dc       $unwind$IfConfigRetriveCheckListByName 00000000001494dc     UefiShellNetwork1CommandsLib:Ifconfig.obj
 0006:000004e8       $unwind$ReportStatusCodeEx 00000000001494e8     DxeReportStatusCodeLib:ReportStatusCodeLib.obj
 0006:000004f0       $unwind$BcfgMod            00000000001494f0     UefiShellBcfgCommandLib:UefiShellBcfgCommandLib.obj
 0006:000004f8       $unwind$BcfgAdd            00000000001494f8     UefiShellBcfgCommandLib:UefiShellBcfgCommandLib.obj
